
iso/i386/boot/kernel.elf:     file format elf32-i386


Disassembly of section .text:

c0107000 <shell_prompt>:
c0107000:	55                   	push   %ebp
c0107001:	89 e5                	mov    %esp,%ebp
c0107003:	53                   	push   %ebx
c0107004:	83 ec 04             	sub    $0x4,%esp
c0107007:	e8 2d 7a 00 00       	call   c010ea39 <__x86.get_pc_thunk.ax>
c010700c:	05 20 b6 00 00       	add    $0xb620,%eax
c0107011:	83 ca 01             	or     $0x1,%edx
c0107014:	83 ec 08             	sub    $0x8,%esp
c0107017:	52                   	push   %edx
c0107018:	8d 90 d4 c9 ff ff    	lea    -0x362c(%eax),%edx
c010701e:	52                   	push   %edx
c010701f:	89 c3                	mov    %eax,%ebx
c0107021:	e8 67 2d 00 00       	call   c0109d8d <fb_print_attrs>
c0107026:	83 c4 10             	add    $0x10,%esp
c0107029:	90                   	nop
c010702a:	8b 5d fc             	mov    -0x4(%ebp),%ebx
c010702d:	c9                   	leave
c010702e:	c3                   	ret

c010702f <shell_start>:
c010702f:	55                   	push   %ebp
c0107030:	89 e5                	mov    %esp,%ebp
c0107032:	53                   	push   %ebx
c0107033:	83 ec 04             	sub    $0x4,%esp
c0107036:	e8 02 7a 00 00       	call   c010ea3d <__x86.get_pc_thunk.bx>
c010703b:	81 c3 f1 b5 00 00    	add    $0xb5f1,%ebx
c0107041:	e8 35 38 00 00       	call   c010a87b <fb_clear>
c0107046:	83 ec 0c             	sub    $0xc,%esp
c0107049:	8d 83 3e 4b ff ff    	lea    -0xb4c2(%ebx),%eax
c010704f:	50                   	push   %eax
c0107050:	e8 1f 1d 00 00       	call   c0108d74 <kbd_add_receiver>
c0107055:	83 c4 10             	add    $0x10,%esp
c0107058:	e8 a3 ff ff ff       	call   c0107000 <shell_prompt>
c010705d:	90                   	nop
c010705e:	8b 5d fc             	mov    -0x4(%ebp),%ebx
c0107061:	c9                   	leave
c0107062:	c3                   	ret

c0107063 <serial_shell>:
c0107063:	55                   	push   %ebp
c0107064:	89 e5                	mov    %esp,%ebp
c0107066:	53                   	push   %ebx
c0107067:	81 ec 04 01 00 00    	sub    $0x104,%esp
c010706d:	e8 cb 79 00 00       	call   c010ea3d <__x86.get_pc_thunk.bx>
c0107072:	81 c3 ba b5 00 00    	add    $0xb5ba,%ebx
c0107078:	83 ec 04             	sub    $0x4,%esp
c010707b:	68 00 01 00 00       	push   $0x100
c0107080:	8d 85 f8 fe ff ff    	lea    -0x108(%ebp),%eax
c0107086:	50                   	push   %eax
c0107087:	68 f8 03 00 00       	push   $0x3f8
c010708c:	e8 b5 3b 00 00       	call   c010ac46 <serial_read_buf>
c0107091:	83 c4 10             	add    $0x10,%esp
c0107094:	83 ec 08             	sub    $0x8,%esp
c0107097:	8d 85 f8 fe ff ff    	lea    -0x108(%ebp),%eax
c010709d:	50                   	push   %eax
c010709e:	68 f8 03 00 00       	push   $0x3f8
c01070a3:	e8 51 3b 00 00       	call   c010abf9 <serial_print>
c01070a8:	83 c4 10             	add    $0x10,%esp
c01070ab:	83 ec 08             	sub    $0x8,%esp
c01070ae:	8d 83 dd c9 ff ff    	lea    -0x3623(%ebx),%eax
c01070b4:	50                   	push   %eax
c01070b5:	68 f8 03 00 00       	push   $0x3f8
c01070ba:	e8 3a 3b 00 00       	call   c010abf9 <serial_print>
c01070bf:	83 c4 10             	add    $0x10,%esp
c01070c2:	83 ec 04             	sub    $0x4,%esp
c01070c5:	68 00 01 00 00       	push   $0x100
c01070ca:	6a 00                	push   $0x0
c01070cc:	8d 85 f8 fe ff ff    	lea    -0x108(%ebp),%eax
c01070d2:	50                   	push   %eax
c01070d3:	e8 ce 47 00 00       	call   c010b8a6 <memset>
c01070d8:	83 c4 10             	add    $0x10,%esp
c01070db:	90                   	nop
c01070dc:	eb 9a                	jmp    c0107078 <serial_shell+0x15>

c01070de <execute>:
c01070de:	55                   	push   %ebp
c01070df:	89 e5                	mov    %esp,%ebp
c01070e1:	53                   	push   %ebx
c01070e2:	83 ec 04             	sub    $0x4,%esp
c01070e5:	e8 53 79 00 00       	call   c010ea3d <__x86.get_pc_thunk.bx>
c01070ea:	81 c3 42 b5 00 00    	add    $0xb542,%ebx
c01070f0:	83 ec 0c             	sub    $0xc,%esp
c01070f3:	68 84 03 00 00       	push   $0x384
c01070f8:	e8 df 23 00 00       	call   c01094dc <sleep_ms>
c01070fd:	83 c4 10             	add    $0x10,%esp
c0107100:	83 ec 04             	sub    $0x4,%esp
c0107103:	6a 04                	push   $0x4
c0107105:	8d 83 e8 c9 ff ff    	lea    -0x3618(%ebx),%eax
c010710b:	50                   	push   %eax
c010710c:	ff 75 08             	push   0x8(%ebp)
c010710f:	e8 79 49 00 00       	call   c010ba8d <strneq>
c0107114:	83 c4 10             	add    $0x10,%esp
c0107117:	85 c0                	test   %eax,%eax
c0107119:	75 1e                	jne    c0107139 <execute+0x5b>
c010711b:	8b 45 08             	mov    0x8(%ebp),%eax
c010711e:	83 c0 05             	add    $0x5,%eax
c0107121:	83 ec 0c             	sub    $0xc,%esp
c0107124:	50                   	push   %eax
c0107125:	e8 f6 30 00 00       	call   c010a220 <fb_print_black>
c010712a:	83 c4 10             	add    $0x10,%esp
c010712d:	e8 37 31 00 00       	call   c010a269 <fb_newline>
c0107132:	b8 00 00 00 00       	mov    $0x0,%eax
c0107137:	eb 2c                	jmp    c0107165 <execute+0x87>
c0107139:	8b 45 08             	mov    0x8(%ebp),%eax
c010713c:	0f b6 00             	movzbl (%eax),%eax
c010713f:	84 c0                	test   %al,%al
c0107141:	75 06                	jne    c0107149 <execute+0x6b>
c0107143:	83 7d 0c 00          	cmpl   $0x0,0xc(%ebp)
c0107147:	75 17                	jne    c0107160 <execute+0x82>
c0107149:	83 ec 0c             	sub    $0xc,%esp
c010714c:	8d 83 ed c9 ff ff    	lea    -0x3613(%ebx),%eax
c0107152:	50                   	push   %eax
c0107153:	e8 c8 30 00 00       	call   c010a220 <fb_print_black>
c0107158:	83 c4 10             	add    $0x10,%esp
c010715b:	e8 09 31 00 00       	call   c010a269 <fb_newline>
c0107160:	b8 01 00 00 00       	mov    $0x1,%eax
c0107165:	8b 5d fc             	mov    -0x4(%ebp),%ebx
c0107168:	c9                   	leave
c0107169:	c3                   	ret

c010716a <read_stream>:
c010716a:	55                   	push   %ebp
c010716b:	89 e5                	mov    %esp,%ebp
c010716d:	53                   	push   %ebx
c010716e:	83 ec 14             	sub    $0x14,%esp
c0107171:	e8 c7 78 00 00       	call   c010ea3d <__x86.get_pc_thunk.bx>
c0107176:	81 c3 b6 b4 00 00    	add    $0xb4b6,%ebx
c010717c:	c7 45 f4 00 00 00 00 	movl   $0x0,-0xc(%ebp)
c0107183:	81 7d 08 58 01 00 00 	cmpl   $0x158,0x8(%ebp)
c010718a:	74 0e                	je     c010719a <read_stream+0x30>
c010718c:	81 7d 08 59 01 00 00 	cmpl   $0x159,0x8(%ebp)
c0107193:	74 58                	je     c01071ed <read_stream+0x83>
c0107195:	e9 8c 00 00 00       	jmp    c0107226 <read_stream+0xbc>
c010719a:	83 ec 08             	sub    $0x8,%esp
c010719d:	8d 45 f0             	lea    -0x10(%ebp),%eax
c01071a0:	50                   	push   %eax
c01071a1:	8d 45 f4             	lea    -0xc(%ebp),%eax
c01071a4:	50                   	push   %eax
c01071a5:	e8 93 2e 00 00       	call   c010a03d <fb_last_written_buf>
c01071aa:	83 c4 10             	add    $0x10,%esp
c01071ad:	8b 55 f0             	mov    -0x10(%ebp),%edx
c01071b0:	8b 45 f4             	mov    -0xc(%ebp),%eax
c01071b3:	83 ec 04             	sub    $0x4,%esp
c01071b6:	52                   	push   %edx
c01071b7:	50                   	push   %eax
c01071b8:	8d 83 d4 0d 00 00    	lea    0xdd4(%ebx),%eax
c01071be:	50                   	push   %eax
c01071bf:	e8 21 47 00 00       	call   c010b8e5 <memcpy>
c01071c4:	83 c4 10             	add    $0x10,%esp
c01071c7:	8b 45 f0             	mov    -0x10(%ebp),%eax
c01071ca:	0f b7 c0             	movzwl %ax,%eax
c01071cd:	83 ec 0c             	sub    $0xc,%esp
c01071d0:	50                   	push   %eax
c01071d1:	e8 2d 2e 00 00       	call   c010a003 <fb_delete_last>
c01071d6:	83 c4 10             	add    $0x10,%esp
c01071d9:	83 ec 0c             	sub    $0xc,%esp
c01071dc:	8d 83 d4 09 00 00    	lea    0x9d4(%ebx),%eax
c01071e2:	50                   	push   %eax
c01071e3:	e8 38 30 00 00       	call   c010a220 <fb_print_black>
c01071e8:	83 c4 10             	add    $0x10,%esp
c01071eb:	eb 4c                	jmp    c0107239 <read_stream+0xcf>
c01071ed:	83 ec 08             	sub    $0x8,%esp
c01071f0:	8d 45 f0             	lea    -0x10(%ebp),%eax
c01071f3:	50                   	push   %eax
c01071f4:	8d 45 f4             	lea    -0xc(%ebp),%eax
c01071f7:	50                   	push   %eax
c01071f8:	e8 40 2e 00 00       	call   c010a03d <fb_last_written_buf>
c01071fd:	83 c4 10             	add    $0x10,%esp
c0107200:	8b 45 f0             	mov    -0x10(%ebp),%eax
c0107203:	0f b7 c0             	movzwl %ax,%eax
c0107206:	83 ec 0c             	sub    $0xc,%esp
c0107209:	50                   	push   %eax
c010720a:	e8 f4 2d 00 00       	call   c010a003 <fb_delete_last>
c010720f:	83 c4 10             	add    $0x10,%esp
c0107212:	83 ec 0c             	sub    $0xc,%esp
c0107215:	8d 83 d4 0d 00 00    	lea    0xdd4(%ebx),%eax
c010721b:	50                   	push   %eax
c010721c:	e8 ff 2f 00 00       	call   c010a220 <fb_print_black>
c0107221:	83 c4 10             	add    $0x10,%esp
c0107224:	eb 13                	jmp    c0107239 <read_stream+0xcf>
c0107226:	8b 45 08             	mov    0x8(%ebp),%eax
c0107229:	0f b6 c0             	movzbl %al,%eax
c010722c:	83 ec 0c             	sub    $0xc,%esp
c010722f:	50                   	push   %eax
c0107230:	e8 6b 2e 00 00       	call   c010a0a0 <fb_putc>
c0107235:	83 c4 10             	add    $0x10,%esp
c0107238:	90                   	nop
c0107239:	83 7d 08 0a          	cmpl   $0xa,0x8(%ebp)
c010723d:	75 05                	jne    c0107244 <read_stream+0xda>
c010723f:	e8 bc fd ff ff       	call   c0107000 <shell_prompt>
c0107244:	b8 00 00 00 00       	mov    $0x0,%eax
c0107249:	8b 5d fc             	mov    -0x4(%ebp),%ebx
c010724c:	c9                   	leave
c010724d:	c3                   	ret
c010724e:	66 90                	xchg   %ax,%ax

c0107250 <_hh_start>:
c0107250:	bc 00 88 11 c0       	mov    $0xc0118800,%esp
c0107255:	81 c3 00 00 00 c0    	add    $0xc0000000,%ebx
c010725b:	53                   	push   %ebx
c010725c:	e8 0f 14 00 00       	call   c0108670 <kernel_main>

c0107261 <_hh_start.loop>:
c0107261:	fa                   	cli
c0107262:	f4                   	hlt
c0107263:	eb fc                	jmp    c0107261 <_hh_start.loop>
c0107265:	66 90                	xchg   %ax,%ax
c0107267:	66 90                	xchg   %ax,%ax
c0107269:	66 90                	xchg   %ax,%ax
c010726b:	66 90                	xchg   %ax,%ax
c010726d:	66 90                	xchg   %ax,%ax
c010726f:	90                   	nop

c0107270 <flush_tlb>:
c0107270:	55                   	push   %ebp
c0107271:	0f 20 d9             	mov    %cr3,%ecx
c0107274:	0f 22 d9             	mov    %ecx,%cr3
c0107277:	5d                   	pop    %ebp
c0107278:	c3                   	ret

c0107279 <flush_page>:
c0107279:	55                   	push   %ebp
c010727a:	8b 4c 24 fc          	mov    -0x4(%esp),%ecx
c010727e:	0f 01 39             	invlpg (%ecx)
c0107281:	5d                   	pop    %ebp
c0107282:	c3                   	ret

c0107283 <disable_paging>:
c0107283:	53                   	push   %ebx
c0107284:	0f 20 c3             	mov    %cr0,%ebx
c0107287:	81 e3 ff ff ff 7f    	and    $0x7fffffff,%ebx
c010728d:	0f 22 c3             	mov    %ebx,%cr0
c0107290:	5b                   	pop    %ebx
c0107291:	c3                   	ret

c0107292 <copy_page_data>:
c0107292:	55                   	push   %ebp
c0107293:	89 e5                	mov    %esp,%ebp
c0107295:	53                   	push   %ebx
c0107296:	9c                   	pushf
c0107297:	fa                   	cli
c0107298:	8b 75 f8             	mov    -0x8(%ebp),%esi
c010729b:	8b 7d f4             	mov    -0xc(%ebp),%edi
c010729e:	e8 e0 ff ff ff       	call   c0107283 <disable_paging>

c01072a3 <_copy>:
c01072a3:	b9 00 00 00 00       	mov    $0x0,%ecx
c01072a8:	8b 1c 8e             	mov    (%esi,%ecx,4),%ebx
c01072ab:	89 1c 8f             	mov    %ebx,(%edi,%ecx,4)
c01072ae:	41                   	inc    %ecx
c01072af:	81 f9 00 04 00 00    	cmp    $0x400,%ecx
c01072b5:	7c ec                	jl     c01072a3 <_copy>
c01072b7:	e8 17 00 00 00       	call   c01072d3 <enable_paging>
c01072bc:	9d                   	popf
c01072bd:	5b                   	pop    %ebx
c01072be:	5d                   	pop    %ebp
c01072bf:	c3                   	ret

c01072c0 <print_cr0>:
c01072c0:	0f 20 c0             	mov    %cr0,%eax
c01072c3:	50                   	push   %eax
c01072c4:	e8 55 31 00 00       	call   c010a41e <fb_print_num>
c01072c9:	58                   	pop    %eax
c01072ca:	c3                   	ret

c01072cb <load_page_dir>:
c01072cb:	8b 44 24 04          	mov    0x4(%esp),%eax
c01072cf:	0f 22 d8             	mov    %eax,%cr3
c01072d2:	c3                   	ret

c01072d3 <enable_paging>:
c01072d3:	53                   	push   %ebx
c01072d4:	0f 20 c3             	mov    %cr0,%ebx
c01072d7:	81 cb 01 00 01 80    	or     $0x80010001,%ebx
c01072dd:	0f 22 c3             	mov    %ebx,%cr0
c01072e0:	0f 20 e1             	mov    %cr4,%ecx
c01072e3:	81 c9 80 00 00 00    	or     $0x80,%ecx
c01072e9:	0f 22 e1             	mov    %ecx,%cr4
c01072ec:	5b                   	pop    %ebx
c01072ed:	c3                   	ret

c01072ee <switch_page_dir_asm>:
c01072ee:	55                   	push   %ebp
c01072ef:	89 e5                	mov    %esp,%ebp
c01072f1:	53                   	push   %ebx
c01072f2:	9c                   	pushf
c01072f3:	fa                   	cli
c01072f4:	8b 4d 08             	mov    0x8(%ebp),%ecx
c01072f7:	0f 22 d9             	mov    %ecx,%cr3
c01072fa:	9d                   	popf
c01072fb:	5b                   	pop    %ebx
c01072fc:	5d                   	pop    %ebp
c01072fd:	c3                   	ret
c01072fe:	66 90                	xchg   %ax,%ax

c0107300 <load_gdt>:
c0107300:	8b 44 24 04          	mov    0x4(%esp),%eax
c0107304:	0f 01 10             	lgdtl  (%eax)
c0107307:	66 b8 10 00          	mov    $0x10,%ax
c010730b:	8e d8                	mov    %eax,%ds
c010730d:	8e c0                	mov    %eax,%es
c010730f:	8e e0                	mov    %eax,%fs
c0107311:	8e e8                	mov    %eax,%gs
c0107313:	8e d0                	mov    %eax,%ss
c0107315:	ea 1c 73 10 c0 08 00 	ljmp   $0x8,$0xc010731c

c010731c <load_gdt.flush>:
c010731c:	c3                   	ret
c010731d:	66 90                	xchg   %ax,%ax
c010731f:	90                   	nop

c0107320 <disable_int>:
c0107320:	9c                   	pushf
c0107321:	58                   	pop    %eax
c0107322:	fa                   	cli
c0107323:	c3                   	ret

c0107324 <recover_int>:
c0107324:	8b 44 24 04          	mov    0x4(%esp),%eax
c0107328:	50                   	push   %eax
c0107329:	9d                   	popf
c010732a:	c3                   	ret

c010732b <load_idt>:
c010732b:	8b 44 24 04          	mov    0x4(%esp),%eax
c010732f:	0f 01 18             	lidtl  (%eax)
c0107332:	c3                   	ret

c0107333 <common_isr>:
c0107333:	60                   	pusha
c0107334:	e8 e2 0e 00 00       	call   c010821b <isr_x86>
c0107339:	61                   	popa
c010733a:	83 c4 08             	add    $0x8,%esp
c010733d:	fb                   	sti
c010733e:	cf                   	iret

c010733f <isr_0>:
c010733f:	fa                   	cli
c0107340:	6a 00                	push   $0x0
c0107342:	6a 00                	push   $0x0
c0107344:	eb ed                	jmp    c0107333 <common_isr>

c0107346 <isr_1>:
c0107346:	fa                   	cli
c0107347:	6a 00                	push   $0x0
c0107349:	6a 01                	push   $0x1
c010734b:	eb e6                	jmp    c0107333 <common_isr>

c010734d <isr_2>:
c010734d:	fa                   	cli
c010734e:	6a 00                	push   $0x0
c0107350:	6a 02                	push   $0x2
c0107352:	eb df                	jmp    c0107333 <common_isr>

c0107354 <isr_3>:
c0107354:	fa                   	cli
c0107355:	6a 00                	push   $0x0
c0107357:	6a 03                	push   $0x3
c0107359:	eb d8                	jmp    c0107333 <common_isr>

c010735b <isr_4>:
c010735b:	fa                   	cli
c010735c:	6a 00                	push   $0x0
c010735e:	6a 04                	push   $0x4
c0107360:	eb d1                	jmp    c0107333 <common_isr>

c0107362 <isr_5>:
c0107362:	fa                   	cli
c0107363:	6a 00                	push   $0x0
c0107365:	6a 05                	push   $0x5
c0107367:	eb ca                	jmp    c0107333 <common_isr>

c0107369 <isr_6>:
c0107369:	fa                   	cli
c010736a:	6a 00                	push   $0x0
c010736c:	6a 06                	push   $0x6
c010736e:	eb c3                	jmp    c0107333 <common_isr>

c0107370 <isr_7>:
c0107370:	fa                   	cli
c0107371:	6a 00                	push   $0x0
c0107373:	6a 07                	push   $0x7
c0107375:	eb bc                	jmp    c0107333 <common_isr>

c0107377 <isr_8>:
c0107377:	fa                   	cli
c0107378:	6a 08                	push   $0x8
c010737a:	eb b7                	jmp    c0107333 <common_isr>

c010737c <isr_9>:
c010737c:	fa                   	cli
c010737d:	6a 00                	push   $0x0
c010737f:	6a 09                	push   $0x9
c0107381:	eb b0                	jmp    c0107333 <common_isr>

c0107383 <isr_10>:
c0107383:	fa                   	cli
c0107384:	6a 0a                	push   $0xa
c0107386:	eb ab                	jmp    c0107333 <common_isr>

c0107388 <isr_11>:
c0107388:	fa                   	cli
c0107389:	6a 0b                	push   $0xb
c010738b:	eb a6                	jmp    c0107333 <common_isr>

c010738d <isr_12>:
c010738d:	fa                   	cli
c010738e:	6a 0c                	push   $0xc
c0107390:	eb a1                	jmp    c0107333 <common_isr>

c0107392 <isr_13>:
c0107392:	fa                   	cli
c0107393:	6a 0d                	push   $0xd
c0107395:	eb 9c                	jmp    c0107333 <common_isr>

c0107397 <isr_14>:
c0107397:	fa                   	cli
c0107398:	6a 0e                	push   $0xe
c010739a:	eb 97                	jmp    c0107333 <common_isr>

c010739c <isr_15>:
c010739c:	fa                   	cli
c010739d:	6a 00                	push   $0x0
c010739f:	6a 0f                	push   $0xf
c01073a1:	eb 90                	jmp    c0107333 <common_isr>

c01073a3 <isr_16>:
c01073a3:	fa                   	cli
c01073a4:	6a 00                	push   $0x0
c01073a6:	6a 10                	push   $0x10
c01073a8:	eb 89                	jmp    c0107333 <common_isr>

c01073aa <isr_17>:
c01073aa:	fa                   	cli
c01073ab:	6a 11                	push   $0x11
c01073ad:	eb 84                	jmp    c0107333 <common_isr>

c01073af <isr_18>:
c01073af:	fa                   	cli
c01073b0:	6a 00                	push   $0x0
c01073b2:	6a 12                	push   $0x12
c01073b4:	e9 7a ff ff ff       	jmp    c0107333 <common_isr>

c01073b9 <isr_19>:
c01073b9:	fa                   	cli
c01073ba:	6a 00                	push   $0x0
c01073bc:	6a 13                	push   $0x13
c01073be:	e9 70 ff ff ff       	jmp    c0107333 <common_isr>

c01073c3 <isr_20>:
c01073c3:	fa                   	cli
c01073c4:	6a 00                	push   $0x0
c01073c6:	6a 14                	push   $0x14
c01073c8:	e9 66 ff ff ff       	jmp    c0107333 <common_isr>

c01073cd <isr_21>:
c01073cd:	fa                   	cli
c01073ce:	6a 00                	push   $0x0
c01073d0:	6a 15                	push   $0x15
c01073d2:	e9 5c ff ff ff       	jmp    c0107333 <common_isr>

c01073d7 <isr_22>:
c01073d7:	fa                   	cli
c01073d8:	6a 00                	push   $0x0
c01073da:	6a 16                	push   $0x16
c01073dc:	e9 52 ff ff ff       	jmp    c0107333 <common_isr>

c01073e1 <isr_23>:
c01073e1:	fa                   	cli
c01073e2:	6a 00                	push   $0x0
c01073e4:	6a 17                	push   $0x17
c01073e6:	e9 48 ff ff ff       	jmp    c0107333 <common_isr>

c01073eb <isr_24>:
c01073eb:	fa                   	cli
c01073ec:	6a 00                	push   $0x0
c01073ee:	6a 18                	push   $0x18
c01073f0:	e9 3e ff ff ff       	jmp    c0107333 <common_isr>

c01073f5 <isr_25>:
c01073f5:	fa                   	cli
c01073f6:	6a 00                	push   $0x0
c01073f8:	6a 19                	push   $0x19
c01073fa:	e9 34 ff ff ff       	jmp    c0107333 <common_isr>

c01073ff <isr_26>:
c01073ff:	fa                   	cli
c0107400:	6a 00                	push   $0x0
c0107402:	6a 1a                	push   $0x1a
c0107404:	e9 2a ff ff ff       	jmp    c0107333 <common_isr>

c0107409 <isr_27>:
c0107409:	fa                   	cli
c010740a:	6a 00                	push   $0x0
c010740c:	6a 1b                	push   $0x1b
c010740e:	e9 20 ff ff ff       	jmp    c0107333 <common_isr>

c0107413 <isr_28>:
c0107413:	fa                   	cli
c0107414:	6a 00                	push   $0x0
c0107416:	6a 1c                	push   $0x1c
c0107418:	e9 16 ff ff ff       	jmp    c0107333 <common_isr>

c010741d <isr_29>:
c010741d:	fa                   	cli
c010741e:	6a 00                	push   $0x0
c0107420:	6a 1d                	push   $0x1d
c0107422:	e9 0c ff ff ff       	jmp    c0107333 <common_isr>

c0107427 <isr_30>:
c0107427:	fa                   	cli
c0107428:	6a 1e                	push   $0x1e
c010742a:	e9 04 ff ff ff       	jmp    c0107333 <common_isr>

c010742f <isr_31>:
c010742f:	fa                   	cli
c0107430:	6a 00                	push   $0x0
c0107432:	6a 1f                	push   $0x1f
c0107434:	e9 fa fe ff ff       	jmp    c0107333 <common_isr>

c0107439 <isr_32>:
c0107439:	fa                   	cli
c010743a:	6a 00                	push   $0x0
c010743c:	6a 20                	push   $0x20
c010743e:	e9 f0 fe ff ff       	jmp    c0107333 <common_isr>

c0107443 <isr_33>:
c0107443:	fa                   	cli
c0107444:	6a 00                	push   $0x0
c0107446:	6a 21                	push   $0x21
c0107448:	e9 e6 fe ff ff       	jmp    c0107333 <common_isr>

c010744d <isr_34>:
c010744d:	fa                   	cli
c010744e:	6a 00                	push   $0x0
c0107450:	6a 22                	push   $0x22
c0107452:	e9 dc fe ff ff       	jmp    c0107333 <common_isr>

c0107457 <isr_35>:
c0107457:	fa                   	cli
c0107458:	6a 00                	push   $0x0
c010745a:	6a 23                	push   $0x23
c010745c:	e9 d2 fe ff ff       	jmp    c0107333 <common_isr>

c0107461 <isr_36>:
c0107461:	fa                   	cli
c0107462:	6a 00                	push   $0x0
c0107464:	6a 24                	push   $0x24
c0107466:	e9 c8 fe ff ff       	jmp    c0107333 <common_isr>

c010746b <isr_37>:
c010746b:	fa                   	cli
c010746c:	6a 00                	push   $0x0
c010746e:	6a 25                	push   $0x25
c0107470:	e9 be fe ff ff       	jmp    c0107333 <common_isr>

c0107475 <isr_38>:
c0107475:	fa                   	cli
c0107476:	6a 00                	push   $0x0
c0107478:	6a 26                	push   $0x26
c010747a:	e9 b4 fe ff ff       	jmp    c0107333 <common_isr>

c010747f <isr_39>:
c010747f:	fa                   	cli
c0107480:	6a 00                	push   $0x0
c0107482:	6a 27                	push   $0x27
c0107484:	e9 aa fe ff ff       	jmp    c0107333 <common_isr>

c0107489 <isr_40>:
c0107489:	fa                   	cli
c010748a:	6a 00                	push   $0x0
c010748c:	6a 28                	push   $0x28
c010748e:	e9 a0 fe ff ff       	jmp    c0107333 <common_isr>

c0107493 <isr_41>:
c0107493:	fa                   	cli
c0107494:	6a 00                	push   $0x0
c0107496:	6a 29                	push   $0x29
c0107498:	e9 96 fe ff ff       	jmp    c0107333 <common_isr>

c010749d <isr_42>:
c010749d:	fa                   	cli
c010749e:	6a 00                	push   $0x0
c01074a0:	6a 2a                	push   $0x2a
c01074a2:	e9 8c fe ff ff       	jmp    c0107333 <common_isr>

c01074a7 <isr_43>:
c01074a7:	fa                   	cli
c01074a8:	6a 00                	push   $0x0
c01074aa:	6a 2b                	push   $0x2b
c01074ac:	e9 82 fe ff ff       	jmp    c0107333 <common_isr>

c01074b1 <isr_44>:
c01074b1:	fa                   	cli
c01074b2:	6a 00                	push   $0x0
c01074b4:	6a 2c                	push   $0x2c
c01074b6:	e9 78 fe ff ff       	jmp    c0107333 <common_isr>

c01074bb <isr_45>:
c01074bb:	fa                   	cli
c01074bc:	6a 00                	push   $0x0
c01074be:	6a 2d                	push   $0x2d
c01074c0:	e9 6e fe ff ff       	jmp    c0107333 <common_isr>

c01074c5 <isr_46>:
c01074c5:	fa                   	cli
c01074c6:	6a 00                	push   $0x0
c01074c8:	6a 2e                	push   $0x2e
c01074ca:	e9 64 fe ff ff       	jmp    c0107333 <common_isr>

c01074cf <isr_47>:
c01074cf:	fa                   	cli
c01074d0:	6a 00                	push   $0x0
c01074d2:	6a 2f                	push   $0x2f
c01074d4:	e9 5a fe ff ff       	jmp    c0107333 <common_isr>

c01074d9 <isr_48>:
c01074d9:	fa                   	cli
c01074da:	6a 00                	push   $0x0
c01074dc:	6a 30                	push   $0x30
c01074de:	e9 50 fe ff ff       	jmp    c0107333 <common_isr>

c01074e3 <isr_49>:
c01074e3:	fa                   	cli
c01074e4:	6a 00                	push   $0x0
c01074e6:	6a 31                	push   $0x31
c01074e8:	e9 46 fe ff ff       	jmp    c0107333 <common_isr>

c01074ed <isr_50>:
c01074ed:	fa                   	cli
c01074ee:	6a 00                	push   $0x0
c01074f0:	6a 32                	push   $0x32
c01074f2:	e9 3c fe ff ff       	jmp    c0107333 <common_isr>

c01074f7 <isr_51>:
c01074f7:	fa                   	cli
c01074f8:	6a 00                	push   $0x0
c01074fa:	6a 33                	push   $0x33
c01074fc:	e9 32 fe ff ff       	jmp    c0107333 <common_isr>

c0107501 <isr_52>:
c0107501:	fa                   	cli
c0107502:	6a 00                	push   $0x0
c0107504:	6a 34                	push   $0x34
c0107506:	e9 28 fe ff ff       	jmp    c0107333 <common_isr>

c010750b <isr_53>:
c010750b:	fa                   	cli
c010750c:	6a 00                	push   $0x0
c010750e:	6a 35                	push   $0x35
c0107510:	e9 1e fe ff ff       	jmp    c0107333 <common_isr>

c0107515 <isr_54>:
c0107515:	fa                   	cli
c0107516:	6a 00                	push   $0x0
c0107518:	6a 36                	push   $0x36
c010751a:	e9 14 fe ff ff       	jmp    c0107333 <common_isr>

c010751f <isr_55>:
c010751f:	fa                   	cli
c0107520:	6a 00                	push   $0x0
c0107522:	6a 37                	push   $0x37
c0107524:	e9 0a fe ff ff       	jmp    c0107333 <common_isr>

c0107529 <isr_56>:
c0107529:	fa                   	cli
c010752a:	6a 00                	push   $0x0
c010752c:	6a 38                	push   $0x38
c010752e:	e9 00 fe ff ff       	jmp    c0107333 <common_isr>

c0107533 <isr_57>:
c0107533:	fa                   	cli
c0107534:	6a 00                	push   $0x0
c0107536:	6a 39                	push   $0x39
c0107538:	e9 f6 fd ff ff       	jmp    c0107333 <common_isr>

c010753d <isr_58>:
c010753d:	fa                   	cli
c010753e:	6a 00                	push   $0x0
c0107540:	6a 3a                	push   $0x3a
c0107542:	e9 ec fd ff ff       	jmp    c0107333 <common_isr>

c0107547 <isr_59>:
c0107547:	fa                   	cli
c0107548:	6a 00                	push   $0x0
c010754a:	6a 3b                	push   $0x3b
c010754c:	e9 e2 fd ff ff       	jmp    c0107333 <common_isr>

c0107551 <isr_60>:
c0107551:	fa                   	cli
c0107552:	6a 00                	push   $0x0
c0107554:	6a 3c                	push   $0x3c
c0107556:	e9 d8 fd ff ff       	jmp    c0107333 <common_isr>

c010755b <isr_61>:
c010755b:	fa                   	cli
c010755c:	6a 00                	push   $0x0
c010755e:	6a 3d                	push   $0x3d
c0107560:	e9 ce fd ff ff       	jmp    c0107333 <common_isr>

c0107565 <isr_62>:
c0107565:	fa                   	cli
c0107566:	6a 00                	push   $0x0
c0107568:	6a 3e                	push   $0x3e
c010756a:	e9 c4 fd ff ff       	jmp    c0107333 <common_isr>

c010756f <isr_63>:
c010756f:	fa                   	cli
c0107570:	6a 00                	push   $0x0
c0107572:	6a 3f                	push   $0x3f
c0107574:	e9 ba fd ff ff       	jmp    c0107333 <common_isr>

c0107579 <isr_64>:
c0107579:	fa                   	cli
c010757a:	6a 00                	push   $0x0
c010757c:	6a 40                	push   $0x40
c010757e:	e9 b0 fd ff ff       	jmp    c0107333 <common_isr>

c0107583 <isr_65>:
c0107583:	fa                   	cli
c0107584:	6a 00                	push   $0x0
c0107586:	6a 41                	push   $0x41
c0107588:	e9 a6 fd ff ff       	jmp    c0107333 <common_isr>

c010758d <isr_66>:
c010758d:	fa                   	cli
c010758e:	6a 00                	push   $0x0
c0107590:	6a 42                	push   $0x42
c0107592:	e9 9c fd ff ff       	jmp    c0107333 <common_isr>

c0107597 <isr_67>:
c0107597:	fa                   	cli
c0107598:	6a 00                	push   $0x0
c010759a:	6a 43                	push   $0x43
c010759c:	e9 92 fd ff ff       	jmp    c0107333 <common_isr>

c01075a1 <isr_68>:
c01075a1:	fa                   	cli
c01075a2:	6a 00                	push   $0x0
c01075a4:	6a 44                	push   $0x44
c01075a6:	e9 88 fd ff ff       	jmp    c0107333 <common_isr>

c01075ab <isr_69>:
c01075ab:	fa                   	cli
c01075ac:	6a 00                	push   $0x0
c01075ae:	6a 45                	push   $0x45
c01075b0:	e9 7e fd ff ff       	jmp    c0107333 <common_isr>

c01075b5 <isr_70>:
c01075b5:	fa                   	cli
c01075b6:	6a 00                	push   $0x0
c01075b8:	6a 46                	push   $0x46
c01075ba:	e9 74 fd ff ff       	jmp    c0107333 <common_isr>

c01075bf <isr_71>:
c01075bf:	fa                   	cli
c01075c0:	6a 00                	push   $0x0
c01075c2:	6a 47                	push   $0x47
c01075c4:	e9 6a fd ff ff       	jmp    c0107333 <common_isr>

c01075c9 <isr_72>:
c01075c9:	fa                   	cli
c01075ca:	6a 00                	push   $0x0
c01075cc:	6a 48                	push   $0x48
c01075ce:	e9 60 fd ff ff       	jmp    c0107333 <common_isr>

c01075d3 <isr_73>:
c01075d3:	fa                   	cli
c01075d4:	6a 00                	push   $0x0
c01075d6:	6a 49                	push   $0x49
c01075d8:	e9 56 fd ff ff       	jmp    c0107333 <common_isr>

c01075dd <isr_74>:
c01075dd:	fa                   	cli
c01075de:	6a 00                	push   $0x0
c01075e0:	6a 4a                	push   $0x4a
c01075e2:	e9 4c fd ff ff       	jmp    c0107333 <common_isr>

c01075e7 <isr_75>:
c01075e7:	fa                   	cli
c01075e8:	6a 00                	push   $0x0
c01075ea:	6a 4b                	push   $0x4b
c01075ec:	e9 42 fd ff ff       	jmp    c0107333 <common_isr>

c01075f1 <isr_76>:
c01075f1:	fa                   	cli
c01075f2:	6a 00                	push   $0x0
c01075f4:	6a 4c                	push   $0x4c
c01075f6:	e9 38 fd ff ff       	jmp    c0107333 <common_isr>

c01075fb <isr_77>:
c01075fb:	fa                   	cli
c01075fc:	6a 00                	push   $0x0
c01075fe:	6a 4d                	push   $0x4d
c0107600:	e9 2e fd ff ff       	jmp    c0107333 <common_isr>

c0107605 <isr_78>:
c0107605:	fa                   	cli
c0107606:	6a 00                	push   $0x0
c0107608:	6a 4e                	push   $0x4e
c010760a:	e9 24 fd ff ff       	jmp    c0107333 <common_isr>

c010760f <isr_79>:
c010760f:	fa                   	cli
c0107610:	6a 00                	push   $0x0
c0107612:	6a 4f                	push   $0x4f
c0107614:	e9 1a fd ff ff       	jmp    c0107333 <common_isr>

c0107619 <isr_80>:
c0107619:	fa                   	cli
c010761a:	6a 00                	push   $0x0
c010761c:	6a 50                	push   $0x50
c010761e:	e9 10 fd ff ff       	jmp    c0107333 <common_isr>

c0107623 <isr_81>:
c0107623:	fa                   	cli
c0107624:	6a 00                	push   $0x0
c0107626:	6a 51                	push   $0x51
c0107628:	e9 06 fd ff ff       	jmp    c0107333 <common_isr>

c010762d <isr_82>:
c010762d:	fa                   	cli
c010762e:	6a 00                	push   $0x0
c0107630:	6a 52                	push   $0x52
c0107632:	e9 fc fc ff ff       	jmp    c0107333 <common_isr>

c0107637 <isr_83>:
c0107637:	fa                   	cli
c0107638:	6a 00                	push   $0x0
c010763a:	6a 53                	push   $0x53
c010763c:	e9 f2 fc ff ff       	jmp    c0107333 <common_isr>

c0107641 <isr_84>:
c0107641:	fa                   	cli
c0107642:	6a 00                	push   $0x0
c0107644:	6a 54                	push   $0x54
c0107646:	e9 e8 fc ff ff       	jmp    c0107333 <common_isr>

c010764b <isr_85>:
c010764b:	fa                   	cli
c010764c:	6a 00                	push   $0x0
c010764e:	6a 55                	push   $0x55
c0107650:	e9 de fc ff ff       	jmp    c0107333 <common_isr>

c0107655 <isr_86>:
c0107655:	fa                   	cli
c0107656:	6a 00                	push   $0x0
c0107658:	6a 56                	push   $0x56
c010765a:	e9 d4 fc ff ff       	jmp    c0107333 <common_isr>

c010765f <isr_87>:
c010765f:	fa                   	cli
c0107660:	6a 00                	push   $0x0
c0107662:	6a 57                	push   $0x57
c0107664:	e9 ca fc ff ff       	jmp    c0107333 <common_isr>

c0107669 <isr_88>:
c0107669:	fa                   	cli
c010766a:	6a 00                	push   $0x0
c010766c:	6a 58                	push   $0x58
c010766e:	e9 c0 fc ff ff       	jmp    c0107333 <common_isr>

c0107673 <isr_89>:
c0107673:	fa                   	cli
c0107674:	6a 00                	push   $0x0
c0107676:	6a 59                	push   $0x59
c0107678:	e9 b6 fc ff ff       	jmp    c0107333 <common_isr>

c010767d <isr_90>:
c010767d:	fa                   	cli
c010767e:	6a 00                	push   $0x0
c0107680:	6a 5a                	push   $0x5a
c0107682:	e9 ac fc ff ff       	jmp    c0107333 <common_isr>

c0107687 <isr_91>:
c0107687:	fa                   	cli
c0107688:	6a 00                	push   $0x0
c010768a:	6a 5b                	push   $0x5b
c010768c:	e9 a2 fc ff ff       	jmp    c0107333 <common_isr>

c0107691 <isr_92>:
c0107691:	fa                   	cli
c0107692:	6a 00                	push   $0x0
c0107694:	6a 5c                	push   $0x5c
c0107696:	e9 98 fc ff ff       	jmp    c0107333 <common_isr>

c010769b <isr_93>:
c010769b:	fa                   	cli
c010769c:	6a 00                	push   $0x0
c010769e:	6a 5d                	push   $0x5d
c01076a0:	e9 8e fc ff ff       	jmp    c0107333 <common_isr>

c01076a5 <isr_94>:
c01076a5:	fa                   	cli
c01076a6:	6a 00                	push   $0x0
c01076a8:	6a 5e                	push   $0x5e
c01076aa:	e9 84 fc ff ff       	jmp    c0107333 <common_isr>

c01076af <isr_95>:
c01076af:	fa                   	cli
c01076b0:	6a 00                	push   $0x0
c01076b2:	6a 5f                	push   $0x5f
c01076b4:	e9 7a fc ff ff       	jmp    c0107333 <common_isr>

c01076b9 <isr_96>:
c01076b9:	fa                   	cli
c01076ba:	6a 00                	push   $0x0
c01076bc:	6a 60                	push   $0x60
c01076be:	e9 70 fc ff ff       	jmp    c0107333 <common_isr>

c01076c3 <isr_97>:
c01076c3:	fa                   	cli
c01076c4:	6a 00                	push   $0x0
c01076c6:	6a 61                	push   $0x61
c01076c8:	e9 66 fc ff ff       	jmp    c0107333 <common_isr>

c01076cd <isr_98>:
c01076cd:	fa                   	cli
c01076ce:	6a 00                	push   $0x0
c01076d0:	6a 62                	push   $0x62
c01076d2:	e9 5c fc ff ff       	jmp    c0107333 <common_isr>

c01076d7 <isr_99>:
c01076d7:	fa                   	cli
c01076d8:	6a 00                	push   $0x0
c01076da:	6a 63                	push   $0x63
c01076dc:	e9 52 fc ff ff       	jmp    c0107333 <common_isr>

c01076e1 <isr_100>:
c01076e1:	fa                   	cli
c01076e2:	6a 00                	push   $0x0
c01076e4:	6a 64                	push   $0x64
c01076e6:	e9 48 fc ff ff       	jmp    c0107333 <common_isr>

c01076eb <isr_101>:
c01076eb:	fa                   	cli
c01076ec:	6a 00                	push   $0x0
c01076ee:	6a 65                	push   $0x65
c01076f0:	e9 3e fc ff ff       	jmp    c0107333 <common_isr>

c01076f5 <isr_102>:
c01076f5:	fa                   	cli
c01076f6:	6a 00                	push   $0x0
c01076f8:	6a 66                	push   $0x66
c01076fa:	e9 34 fc ff ff       	jmp    c0107333 <common_isr>

c01076ff <isr_103>:
c01076ff:	fa                   	cli
c0107700:	6a 00                	push   $0x0
c0107702:	6a 67                	push   $0x67
c0107704:	e9 2a fc ff ff       	jmp    c0107333 <common_isr>

c0107709 <isr_104>:
c0107709:	fa                   	cli
c010770a:	6a 00                	push   $0x0
c010770c:	6a 68                	push   $0x68
c010770e:	e9 20 fc ff ff       	jmp    c0107333 <common_isr>

c0107713 <isr_105>:
c0107713:	fa                   	cli
c0107714:	6a 00                	push   $0x0
c0107716:	6a 69                	push   $0x69
c0107718:	e9 16 fc ff ff       	jmp    c0107333 <common_isr>

c010771d <isr_106>:
c010771d:	fa                   	cli
c010771e:	6a 00                	push   $0x0
c0107720:	6a 6a                	push   $0x6a
c0107722:	e9 0c fc ff ff       	jmp    c0107333 <common_isr>

c0107727 <isr_107>:
c0107727:	fa                   	cli
c0107728:	6a 00                	push   $0x0
c010772a:	6a 6b                	push   $0x6b
c010772c:	e9 02 fc ff ff       	jmp    c0107333 <common_isr>

c0107731 <isr_108>:
c0107731:	fa                   	cli
c0107732:	6a 00                	push   $0x0
c0107734:	6a 6c                	push   $0x6c
c0107736:	e9 f8 fb ff ff       	jmp    c0107333 <common_isr>

c010773b <isr_109>:
c010773b:	fa                   	cli
c010773c:	6a 00                	push   $0x0
c010773e:	6a 6d                	push   $0x6d
c0107740:	e9 ee fb ff ff       	jmp    c0107333 <common_isr>

c0107745 <isr_110>:
c0107745:	fa                   	cli
c0107746:	6a 00                	push   $0x0
c0107748:	6a 6e                	push   $0x6e
c010774a:	e9 e4 fb ff ff       	jmp    c0107333 <common_isr>

c010774f <isr_111>:
c010774f:	fa                   	cli
c0107750:	6a 00                	push   $0x0
c0107752:	6a 6f                	push   $0x6f
c0107754:	e9 da fb ff ff       	jmp    c0107333 <common_isr>

c0107759 <isr_112>:
c0107759:	fa                   	cli
c010775a:	6a 00                	push   $0x0
c010775c:	6a 70                	push   $0x70
c010775e:	e9 d0 fb ff ff       	jmp    c0107333 <common_isr>

c0107763 <isr_113>:
c0107763:	fa                   	cli
c0107764:	6a 00                	push   $0x0
c0107766:	6a 71                	push   $0x71
c0107768:	e9 c6 fb ff ff       	jmp    c0107333 <common_isr>

c010776d <isr_114>:
c010776d:	fa                   	cli
c010776e:	6a 00                	push   $0x0
c0107770:	6a 72                	push   $0x72
c0107772:	e9 bc fb ff ff       	jmp    c0107333 <common_isr>

c0107777 <isr_115>:
c0107777:	fa                   	cli
c0107778:	6a 00                	push   $0x0
c010777a:	6a 73                	push   $0x73
c010777c:	e9 b2 fb ff ff       	jmp    c0107333 <common_isr>

c0107781 <isr_116>:
c0107781:	fa                   	cli
c0107782:	6a 00                	push   $0x0
c0107784:	6a 74                	push   $0x74
c0107786:	e9 a8 fb ff ff       	jmp    c0107333 <common_isr>

c010778b <isr_117>:
c010778b:	fa                   	cli
c010778c:	6a 00                	push   $0x0
c010778e:	6a 75                	push   $0x75
c0107790:	e9 9e fb ff ff       	jmp    c0107333 <common_isr>

c0107795 <isr_118>:
c0107795:	fa                   	cli
c0107796:	6a 00                	push   $0x0
c0107798:	6a 76                	push   $0x76
c010779a:	e9 94 fb ff ff       	jmp    c0107333 <common_isr>

c010779f <isr_119>:
c010779f:	fa                   	cli
c01077a0:	6a 00                	push   $0x0
c01077a2:	6a 77                	push   $0x77
c01077a4:	e9 8a fb ff ff       	jmp    c0107333 <common_isr>

c01077a9 <isr_120>:
c01077a9:	fa                   	cli
c01077aa:	6a 00                	push   $0x0
c01077ac:	6a 78                	push   $0x78
c01077ae:	e9 80 fb ff ff       	jmp    c0107333 <common_isr>

c01077b3 <isr_121>:
c01077b3:	fa                   	cli
c01077b4:	6a 00                	push   $0x0
c01077b6:	6a 79                	push   $0x79
c01077b8:	e9 76 fb ff ff       	jmp    c0107333 <common_isr>

c01077bd <isr_122>:
c01077bd:	fa                   	cli
c01077be:	6a 00                	push   $0x0
c01077c0:	6a 7a                	push   $0x7a
c01077c2:	e9 6c fb ff ff       	jmp    c0107333 <common_isr>

c01077c7 <isr_123>:
c01077c7:	fa                   	cli
c01077c8:	6a 00                	push   $0x0
c01077ca:	6a 7b                	push   $0x7b
c01077cc:	e9 62 fb ff ff       	jmp    c0107333 <common_isr>

c01077d1 <isr_124>:
c01077d1:	fa                   	cli
c01077d2:	6a 00                	push   $0x0
c01077d4:	6a 7c                	push   $0x7c
c01077d6:	e9 58 fb ff ff       	jmp    c0107333 <common_isr>

c01077db <isr_125>:
c01077db:	fa                   	cli
c01077dc:	6a 00                	push   $0x0
c01077de:	6a 7d                	push   $0x7d
c01077e0:	e9 4e fb ff ff       	jmp    c0107333 <common_isr>

c01077e5 <isr_126>:
c01077e5:	fa                   	cli
c01077e6:	6a 00                	push   $0x0
c01077e8:	6a 7e                	push   $0x7e
c01077ea:	e9 44 fb ff ff       	jmp    c0107333 <common_isr>

c01077ef <isr_127>:
c01077ef:	fa                   	cli
c01077f0:	6a 00                	push   $0x0
c01077f2:	6a 7f                	push   $0x7f
c01077f4:	e9 3a fb ff ff       	jmp    c0107333 <common_isr>

c01077f9 <isr_128>:
c01077f9:	fa                   	cli
c01077fa:	6a 00                	push   $0x0
c01077fc:	68 80 00 00 00       	push   $0x80
c0107801:	e9 2d fb ff ff       	jmp    c0107333 <common_isr>

c0107806 <isr_129>:
c0107806:	fa                   	cli
c0107807:	6a 00                	push   $0x0
c0107809:	68 81 00 00 00       	push   $0x81
c010780e:	e9 20 fb ff ff       	jmp    c0107333 <common_isr>

c0107813 <isr_130>:
c0107813:	fa                   	cli
c0107814:	6a 00                	push   $0x0
c0107816:	68 82 00 00 00       	push   $0x82
c010781b:	e9 13 fb ff ff       	jmp    c0107333 <common_isr>

c0107820 <isr_131>:
c0107820:	fa                   	cli
c0107821:	6a 00                	push   $0x0
c0107823:	68 83 00 00 00       	push   $0x83
c0107828:	e9 06 fb ff ff       	jmp    c0107333 <common_isr>

c010782d <isr_132>:
c010782d:	fa                   	cli
c010782e:	6a 00                	push   $0x0
c0107830:	68 84 00 00 00       	push   $0x84
c0107835:	e9 f9 fa ff ff       	jmp    c0107333 <common_isr>

c010783a <isr_133>:
c010783a:	fa                   	cli
c010783b:	6a 00                	push   $0x0
c010783d:	68 85 00 00 00       	push   $0x85
c0107842:	e9 ec fa ff ff       	jmp    c0107333 <common_isr>

c0107847 <isr_134>:
c0107847:	fa                   	cli
c0107848:	6a 00                	push   $0x0
c010784a:	68 86 00 00 00       	push   $0x86
c010784f:	e9 df fa ff ff       	jmp    c0107333 <common_isr>

c0107854 <isr_135>:
c0107854:	fa                   	cli
c0107855:	6a 00                	push   $0x0
c0107857:	68 87 00 00 00       	push   $0x87
c010785c:	e9 d2 fa ff ff       	jmp    c0107333 <common_isr>

c0107861 <isr_136>:
c0107861:	fa                   	cli
c0107862:	6a 00                	push   $0x0
c0107864:	68 88 00 00 00       	push   $0x88
c0107869:	e9 c5 fa ff ff       	jmp    c0107333 <common_isr>

c010786e <isr_137>:
c010786e:	fa                   	cli
c010786f:	6a 00                	push   $0x0
c0107871:	68 89 00 00 00       	push   $0x89
c0107876:	e9 b8 fa ff ff       	jmp    c0107333 <common_isr>

c010787b <isr_138>:
c010787b:	fa                   	cli
c010787c:	6a 00                	push   $0x0
c010787e:	68 8a 00 00 00       	push   $0x8a
c0107883:	e9 ab fa ff ff       	jmp    c0107333 <common_isr>

c0107888 <isr_139>:
c0107888:	fa                   	cli
c0107889:	6a 00                	push   $0x0
c010788b:	68 8b 00 00 00       	push   $0x8b
c0107890:	e9 9e fa ff ff       	jmp    c0107333 <common_isr>

c0107895 <isr_140>:
c0107895:	fa                   	cli
c0107896:	6a 00                	push   $0x0
c0107898:	68 8c 00 00 00       	push   $0x8c
c010789d:	e9 91 fa ff ff       	jmp    c0107333 <common_isr>

c01078a2 <isr_141>:
c01078a2:	fa                   	cli
c01078a3:	6a 00                	push   $0x0
c01078a5:	68 8d 00 00 00       	push   $0x8d
c01078aa:	e9 84 fa ff ff       	jmp    c0107333 <common_isr>

c01078af <isr_142>:
c01078af:	fa                   	cli
c01078b0:	6a 00                	push   $0x0
c01078b2:	68 8e 00 00 00       	push   $0x8e
c01078b7:	e9 77 fa ff ff       	jmp    c0107333 <common_isr>

c01078bc <isr_143>:
c01078bc:	fa                   	cli
c01078bd:	6a 00                	push   $0x0
c01078bf:	68 8f 00 00 00       	push   $0x8f
c01078c4:	e9 6a fa ff ff       	jmp    c0107333 <common_isr>

c01078c9 <isr_144>:
c01078c9:	fa                   	cli
c01078ca:	6a 00                	push   $0x0
c01078cc:	68 90 00 00 00       	push   $0x90
c01078d1:	e9 5d fa ff ff       	jmp    c0107333 <common_isr>

c01078d6 <isr_145>:
c01078d6:	fa                   	cli
c01078d7:	6a 00                	push   $0x0
c01078d9:	68 91 00 00 00       	push   $0x91
c01078de:	e9 50 fa ff ff       	jmp    c0107333 <common_isr>

c01078e3 <isr_146>:
c01078e3:	fa                   	cli
c01078e4:	6a 00                	push   $0x0
c01078e6:	68 92 00 00 00       	push   $0x92
c01078eb:	e9 43 fa ff ff       	jmp    c0107333 <common_isr>

c01078f0 <isr_147>:
c01078f0:	fa                   	cli
c01078f1:	6a 00                	push   $0x0
c01078f3:	68 93 00 00 00       	push   $0x93
c01078f8:	e9 36 fa ff ff       	jmp    c0107333 <common_isr>

c01078fd <isr_148>:
c01078fd:	fa                   	cli
c01078fe:	6a 00                	push   $0x0
c0107900:	68 94 00 00 00       	push   $0x94
c0107905:	e9 29 fa ff ff       	jmp    c0107333 <common_isr>

c010790a <isr_149>:
c010790a:	fa                   	cli
c010790b:	6a 00                	push   $0x0
c010790d:	68 95 00 00 00       	push   $0x95
c0107912:	e9 1c fa ff ff       	jmp    c0107333 <common_isr>

c0107917 <isr_150>:
c0107917:	fa                   	cli
c0107918:	6a 00                	push   $0x0
c010791a:	68 96 00 00 00       	push   $0x96
c010791f:	e9 0f fa ff ff       	jmp    c0107333 <common_isr>

c0107924 <isr_151>:
c0107924:	fa                   	cli
c0107925:	6a 00                	push   $0x0
c0107927:	68 97 00 00 00       	push   $0x97
c010792c:	e9 02 fa ff ff       	jmp    c0107333 <common_isr>

c0107931 <isr_152>:
c0107931:	fa                   	cli
c0107932:	6a 00                	push   $0x0
c0107934:	68 98 00 00 00       	push   $0x98
c0107939:	e9 f5 f9 ff ff       	jmp    c0107333 <common_isr>

c010793e <isr_153>:
c010793e:	fa                   	cli
c010793f:	6a 00                	push   $0x0
c0107941:	68 99 00 00 00       	push   $0x99
c0107946:	e9 e8 f9 ff ff       	jmp    c0107333 <common_isr>

c010794b <isr_154>:
c010794b:	fa                   	cli
c010794c:	6a 00                	push   $0x0
c010794e:	68 9a 00 00 00       	push   $0x9a
c0107953:	e9 db f9 ff ff       	jmp    c0107333 <common_isr>

c0107958 <isr_155>:
c0107958:	fa                   	cli
c0107959:	6a 00                	push   $0x0
c010795b:	68 9b 00 00 00       	push   $0x9b
c0107960:	e9 ce f9 ff ff       	jmp    c0107333 <common_isr>

c0107965 <isr_156>:
c0107965:	fa                   	cli
c0107966:	6a 00                	push   $0x0
c0107968:	68 9c 00 00 00       	push   $0x9c
c010796d:	e9 c1 f9 ff ff       	jmp    c0107333 <common_isr>

c0107972 <isr_157>:
c0107972:	fa                   	cli
c0107973:	6a 00                	push   $0x0
c0107975:	68 9d 00 00 00       	push   $0x9d
c010797a:	e9 b4 f9 ff ff       	jmp    c0107333 <common_isr>

c010797f <isr_158>:
c010797f:	fa                   	cli
c0107980:	6a 00                	push   $0x0
c0107982:	68 9e 00 00 00       	push   $0x9e
c0107987:	e9 a7 f9 ff ff       	jmp    c0107333 <common_isr>

c010798c <isr_159>:
c010798c:	fa                   	cli
c010798d:	6a 00                	push   $0x0
c010798f:	68 9f 00 00 00       	push   $0x9f
c0107994:	e9 9a f9 ff ff       	jmp    c0107333 <common_isr>

c0107999 <isr_160>:
c0107999:	fa                   	cli
c010799a:	6a 00                	push   $0x0
c010799c:	68 a0 00 00 00       	push   $0xa0
c01079a1:	e9 8d f9 ff ff       	jmp    c0107333 <common_isr>

c01079a6 <isr_161>:
c01079a6:	fa                   	cli
c01079a7:	6a 00                	push   $0x0
c01079a9:	68 a1 00 00 00       	push   $0xa1
c01079ae:	e9 80 f9 ff ff       	jmp    c0107333 <common_isr>

c01079b3 <isr_162>:
c01079b3:	fa                   	cli
c01079b4:	6a 00                	push   $0x0
c01079b6:	68 a2 00 00 00       	push   $0xa2
c01079bb:	e9 73 f9 ff ff       	jmp    c0107333 <common_isr>

c01079c0 <isr_163>:
c01079c0:	fa                   	cli
c01079c1:	6a 00                	push   $0x0
c01079c3:	68 a3 00 00 00       	push   $0xa3
c01079c8:	e9 66 f9 ff ff       	jmp    c0107333 <common_isr>

c01079cd <isr_164>:
c01079cd:	fa                   	cli
c01079ce:	6a 00                	push   $0x0
c01079d0:	68 a4 00 00 00       	push   $0xa4
c01079d5:	e9 59 f9 ff ff       	jmp    c0107333 <common_isr>

c01079da <isr_165>:
c01079da:	fa                   	cli
c01079db:	6a 00                	push   $0x0
c01079dd:	68 a5 00 00 00       	push   $0xa5
c01079e2:	e9 4c f9 ff ff       	jmp    c0107333 <common_isr>

c01079e7 <isr_166>:
c01079e7:	fa                   	cli
c01079e8:	6a 00                	push   $0x0
c01079ea:	68 a6 00 00 00       	push   $0xa6
c01079ef:	e9 3f f9 ff ff       	jmp    c0107333 <common_isr>

c01079f4 <isr_167>:
c01079f4:	fa                   	cli
c01079f5:	6a 00                	push   $0x0
c01079f7:	68 a7 00 00 00       	push   $0xa7
c01079fc:	e9 32 f9 ff ff       	jmp    c0107333 <common_isr>

c0107a01 <isr_168>:
c0107a01:	fa                   	cli
c0107a02:	6a 00                	push   $0x0
c0107a04:	68 a8 00 00 00       	push   $0xa8
c0107a09:	e9 25 f9 ff ff       	jmp    c0107333 <common_isr>

c0107a0e <isr_169>:
c0107a0e:	fa                   	cli
c0107a0f:	6a 00                	push   $0x0
c0107a11:	68 a9 00 00 00       	push   $0xa9
c0107a16:	e9 18 f9 ff ff       	jmp    c0107333 <common_isr>

c0107a1b <isr_170>:
c0107a1b:	fa                   	cli
c0107a1c:	6a 00                	push   $0x0
c0107a1e:	68 aa 00 00 00       	push   $0xaa
c0107a23:	e9 0b f9 ff ff       	jmp    c0107333 <common_isr>

c0107a28 <isr_171>:
c0107a28:	fa                   	cli
c0107a29:	6a 00                	push   $0x0
c0107a2b:	68 ab 00 00 00       	push   $0xab
c0107a30:	e9 fe f8 ff ff       	jmp    c0107333 <common_isr>

c0107a35 <isr_172>:
c0107a35:	fa                   	cli
c0107a36:	6a 00                	push   $0x0
c0107a38:	68 ac 00 00 00       	push   $0xac
c0107a3d:	e9 f1 f8 ff ff       	jmp    c0107333 <common_isr>

c0107a42 <isr_173>:
c0107a42:	fa                   	cli
c0107a43:	6a 00                	push   $0x0
c0107a45:	68 ad 00 00 00       	push   $0xad
c0107a4a:	e9 e4 f8 ff ff       	jmp    c0107333 <common_isr>

c0107a4f <isr_174>:
c0107a4f:	fa                   	cli
c0107a50:	6a 00                	push   $0x0
c0107a52:	68 ae 00 00 00       	push   $0xae
c0107a57:	e9 d7 f8 ff ff       	jmp    c0107333 <common_isr>

c0107a5c <isr_175>:
c0107a5c:	fa                   	cli
c0107a5d:	6a 00                	push   $0x0
c0107a5f:	68 af 00 00 00       	push   $0xaf
c0107a64:	e9 ca f8 ff ff       	jmp    c0107333 <common_isr>

c0107a69 <isr_176>:
c0107a69:	fa                   	cli
c0107a6a:	6a 00                	push   $0x0
c0107a6c:	68 b0 00 00 00       	push   $0xb0
c0107a71:	e9 bd f8 ff ff       	jmp    c0107333 <common_isr>

c0107a76 <isr_177>:
c0107a76:	fa                   	cli
c0107a77:	6a 00                	push   $0x0
c0107a79:	68 b1 00 00 00       	push   $0xb1
c0107a7e:	e9 b0 f8 ff ff       	jmp    c0107333 <common_isr>

c0107a83 <isr_178>:
c0107a83:	fa                   	cli
c0107a84:	6a 00                	push   $0x0
c0107a86:	68 b2 00 00 00       	push   $0xb2
c0107a8b:	e9 a3 f8 ff ff       	jmp    c0107333 <common_isr>

c0107a90 <isr_179>:
c0107a90:	fa                   	cli
c0107a91:	6a 00                	push   $0x0
c0107a93:	68 b3 00 00 00       	push   $0xb3
c0107a98:	e9 96 f8 ff ff       	jmp    c0107333 <common_isr>

c0107a9d <isr_180>:
c0107a9d:	fa                   	cli
c0107a9e:	6a 00                	push   $0x0
c0107aa0:	68 b4 00 00 00       	push   $0xb4
c0107aa5:	e9 89 f8 ff ff       	jmp    c0107333 <common_isr>

c0107aaa <isr_181>:
c0107aaa:	fa                   	cli
c0107aab:	6a 00                	push   $0x0
c0107aad:	68 b5 00 00 00       	push   $0xb5
c0107ab2:	e9 7c f8 ff ff       	jmp    c0107333 <common_isr>

c0107ab7 <isr_182>:
c0107ab7:	fa                   	cli
c0107ab8:	6a 00                	push   $0x0
c0107aba:	68 b6 00 00 00       	push   $0xb6
c0107abf:	e9 6f f8 ff ff       	jmp    c0107333 <common_isr>

c0107ac4 <isr_183>:
c0107ac4:	fa                   	cli
c0107ac5:	6a 00                	push   $0x0
c0107ac7:	68 b7 00 00 00       	push   $0xb7
c0107acc:	e9 62 f8 ff ff       	jmp    c0107333 <common_isr>

c0107ad1 <isr_184>:
c0107ad1:	fa                   	cli
c0107ad2:	6a 00                	push   $0x0
c0107ad4:	68 b8 00 00 00       	push   $0xb8
c0107ad9:	e9 55 f8 ff ff       	jmp    c0107333 <common_isr>

c0107ade <isr_185>:
c0107ade:	fa                   	cli
c0107adf:	6a 00                	push   $0x0
c0107ae1:	68 b9 00 00 00       	push   $0xb9
c0107ae6:	e9 48 f8 ff ff       	jmp    c0107333 <common_isr>

c0107aeb <isr_186>:
c0107aeb:	fa                   	cli
c0107aec:	6a 00                	push   $0x0
c0107aee:	68 ba 00 00 00       	push   $0xba
c0107af3:	e9 3b f8 ff ff       	jmp    c0107333 <common_isr>

c0107af8 <isr_187>:
c0107af8:	fa                   	cli
c0107af9:	6a 00                	push   $0x0
c0107afb:	68 bb 00 00 00       	push   $0xbb
c0107b00:	e9 2e f8 ff ff       	jmp    c0107333 <common_isr>

c0107b05 <isr_188>:
c0107b05:	fa                   	cli
c0107b06:	6a 00                	push   $0x0
c0107b08:	68 bc 00 00 00       	push   $0xbc
c0107b0d:	e9 21 f8 ff ff       	jmp    c0107333 <common_isr>

c0107b12 <isr_189>:
c0107b12:	fa                   	cli
c0107b13:	6a 00                	push   $0x0
c0107b15:	68 bd 00 00 00       	push   $0xbd
c0107b1a:	e9 14 f8 ff ff       	jmp    c0107333 <common_isr>

c0107b1f <isr_190>:
c0107b1f:	fa                   	cli
c0107b20:	6a 00                	push   $0x0
c0107b22:	68 be 00 00 00       	push   $0xbe
c0107b27:	e9 07 f8 ff ff       	jmp    c0107333 <common_isr>

c0107b2c <isr_191>:
c0107b2c:	fa                   	cli
c0107b2d:	6a 00                	push   $0x0
c0107b2f:	68 bf 00 00 00       	push   $0xbf
c0107b34:	e9 fa f7 ff ff       	jmp    c0107333 <common_isr>

c0107b39 <isr_192>:
c0107b39:	fa                   	cli
c0107b3a:	6a 00                	push   $0x0
c0107b3c:	68 c0 00 00 00       	push   $0xc0
c0107b41:	e9 ed f7 ff ff       	jmp    c0107333 <common_isr>

c0107b46 <isr_193>:
c0107b46:	fa                   	cli
c0107b47:	6a 00                	push   $0x0
c0107b49:	68 c1 00 00 00       	push   $0xc1
c0107b4e:	e9 e0 f7 ff ff       	jmp    c0107333 <common_isr>

c0107b53 <isr_194>:
c0107b53:	fa                   	cli
c0107b54:	6a 00                	push   $0x0
c0107b56:	68 c2 00 00 00       	push   $0xc2
c0107b5b:	e9 d3 f7 ff ff       	jmp    c0107333 <common_isr>

c0107b60 <isr_195>:
c0107b60:	fa                   	cli
c0107b61:	6a 00                	push   $0x0
c0107b63:	68 c3 00 00 00       	push   $0xc3
c0107b68:	e9 c6 f7 ff ff       	jmp    c0107333 <common_isr>

c0107b6d <isr_196>:
c0107b6d:	fa                   	cli
c0107b6e:	6a 00                	push   $0x0
c0107b70:	68 c4 00 00 00       	push   $0xc4
c0107b75:	e9 b9 f7 ff ff       	jmp    c0107333 <common_isr>

c0107b7a <isr_197>:
c0107b7a:	fa                   	cli
c0107b7b:	6a 00                	push   $0x0
c0107b7d:	68 c5 00 00 00       	push   $0xc5
c0107b82:	e9 ac f7 ff ff       	jmp    c0107333 <common_isr>

c0107b87 <isr_198>:
c0107b87:	fa                   	cli
c0107b88:	6a 00                	push   $0x0
c0107b8a:	68 c6 00 00 00       	push   $0xc6
c0107b8f:	e9 9f f7 ff ff       	jmp    c0107333 <common_isr>

c0107b94 <isr_199>:
c0107b94:	fa                   	cli
c0107b95:	6a 00                	push   $0x0
c0107b97:	68 c7 00 00 00       	push   $0xc7
c0107b9c:	e9 92 f7 ff ff       	jmp    c0107333 <common_isr>

c0107ba1 <isr_200>:
c0107ba1:	fa                   	cli
c0107ba2:	6a 00                	push   $0x0
c0107ba4:	68 c8 00 00 00       	push   $0xc8
c0107ba9:	e9 85 f7 ff ff       	jmp    c0107333 <common_isr>

c0107bae <isr_201>:
c0107bae:	fa                   	cli
c0107baf:	6a 00                	push   $0x0
c0107bb1:	68 c9 00 00 00       	push   $0xc9
c0107bb6:	e9 78 f7 ff ff       	jmp    c0107333 <common_isr>

c0107bbb <isr_202>:
c0107bbb:	fa                   	cli
c0107bbc:	6a 00                	push   $0x0
c0107bbe:	68 ca 00 00 00       	push   $0xca
c0107bc3:	e9 6b f7 ff ff       	jmp    c0107333 <common_isr>

c0107bc8 <isr_203>:
c0107bc8:	fa                   	cli
c0107bc9:	6a 00                	push   $0x0
c0107bcb:	68 cb 00 00 00       	push   $0xcb
c0107bd0:	e9 5e f7 ff ff       	jmp    c0107333 <common_isr>

c0107bd5 <isr_204>:
c0107bd5:	fa                   	cli
c0107bd6:	6a 00                	push   $0x0
c0107bd8:	68 cc 00 00 00       	push   $0xcc
c0107bdd:	e9 51 f7 ff ff       	jmp    c0107333 <common_isr>

c0107be2 <isr_205>:
c0107be2:	fa                   	cli
c0107be3:	6a 00                	push   $0x0
c0107be5:	68 cd 00 00 00       	push   $0xcd
c0107bea:	e9 44 f7 ff ff       	jmp    c0107333 <common_isr>

c0107bef <isr_206>:
c0107bef:	fa                   	cli
c0107bf0:	6a 00                	push   $0x0
c0107bf2:	68 ce 00 00 00       	push   $0xce
c0107bf7:	e9 37 f7 ff ff       	jmp    c0107333 <common_isr>

c0107bfc <isr_207>:
c0107bfc:	fa                   	cli
c0107bfd:	6a 00                	push   $0x0
c0107bff:	68 cf 00 00 00       	push   $0xcf
c0107c04:	e9 2a f7 ff ff       	jmp    c0107333 <common_isr>

c0107c09 <isr_208>:
c0107c09:	fa                   	cli
c0107c0a:	6a 00                	push   $0x0
c0107c0c:	68 d0 00 00 00       	push   $0xd0
c0107c11:	e9 1d f7 ff ff       	jmp    c0107333 <common_isr>

c0107c16 <isr_209>:
c0107c16:	fa                   	cli
c0107c17:	6a 00                	push   $0x0
c0107c19:	68 d1 00 00 00       	push   $0xd1
c0107c1e:	e9 10 f7 ff ff       	jmp    c0107333 <common_isr>

c0107c23 <isr_210>:
c0107c23:	fa                   	cli
c0107c24:	6a 00                	push   $0x0
c0107c26:	68 d2 00 00 00       	push   $0xd2
c0107c2b:	e9 03 f7 ff ff       	jmp    c0107333 <common_isr>

c0107c30 <isr_211>:
c0107c30:	fa                   	cli
c0107c31:	6a 00                	push   $0x0
c0107c33:	68 d3 00 00 00       	push   $0xd3
c0107c38:	e9 f6 f6 ff ff       	jmp    c0107333 <common_isr>

c0107c3d <isr_212>:
c0107c3d:	fa                   	cli
c0107c3e:	6a 00                	push   $0x0
c0107c40:	68 d4 00 00 00       	push   $0xd4
c0107c45:	e9 e9 f6 ff ff       	jmp    c0107333 <common_isr>

c0107c4a <isr_213>:
c0107c4a:	fa                   	cli
c0107c4b:	6a 00                	push   $0x0
c0107c4d:	68 d5 00 00 00       	push   $0xd5
c0107c52:	e9 dc f6 ff ff       	jmp    c0107333 <common_isr>

c0107c57 <isr_214>:
c0107c57:	fa                   	cli
c0107c58:	6a 00                	push   $0x0
c0107c5a:	68 d6 00 00 00       	push   $0xd6
c0107c5f:	e9 cf f6 ff ff       	jmp    c0107333 <common_isr>

c0107c64 <isr_215>:
c0107c64:	fa                   	cli
c0107c65:	6a 00                	push   $0x0
c0107c67:	68 d7 00 00 00       	push   $0xd7
c0107c6c:	e9 c2 f6 ff ff       	jmp    c0107333 <common_isr>

c0107c71 <isr_216>:
c0107c71:	fa                   	cli
c0107c72:	6a 00                	push   $0x0
c0107c74:	68 d8 00 00 00       	push   $0xd8
c0107c79:	e9 b5 f6 ff ff       	jmp    c0107333 <common_isr>

c0107c7e <isr_217>:
c0107c7e:	fa                   	cli
c0107c7f:	6a 00                	push   $0x0
c0107c81:	68 d9 00 00 00       	push   $0xd9
c0107c86:	e9 a8 f6 ff ff       	jmp    c0107333 <common_isr>

c0107c8b <isr_218>:
c0107c8b:	fa                   	cli
c0107c8c:	6a 00                	push   $0x0
c0107c8e:	68 da 00 00 00       	push   $0xda
c0107c93:	e9 9b f6 ff ff       	jmp    c0107333 <common_isr>

c0107c98 <isr_219>:
c0107c98:	fa                   	cli
c0107c99:	6a 00                	push   $0x0
c0107c9b:	68 db 00 00 00       	push   $0xdb
c0107ca0:	e9 8e f6 ff ff       	jmp    c0107333 <common_isr>

c0107ca5 <isr_220>:
c0107ca5:	fa                   	cli
c0107ca6:	6a 00                	push   $0x0
c0107ca8:	68 dc 00 00 00       	push   $0xdc
c0107cad:	e9 81 f6 ff ff       	jmp    c0107333 <common_isr>

c0107cb2 <isr_221>:
c0107cb2:	fa                   	cli
c0107cb3:	6a 00                	push   $0x0
c0107cb5:	68 dd 00 00 00       	push   $0xdd
c0107cba:	e9 74 f6 ff ff       	jmp    c0107333 <common_isr>

c0107cbf <isr_222>:
c0107cbf:	fa                   	cli
c0107cc0:	6a 00                	push   $0x0
c0107cc2:	68 de 00 00 00       	push   $0xde
c0107cc7:	e9 67 f6 ff ff       	jmp    c0107333 <common_isr>

c0107ccc <isr_223>:
c0107ccc:	fa                   	cli
c0107ccd:	6a 00                	push   $0x0
c0107ccf:	68 df 00 00 00       	push   $0xdf
c0107cd4:	e9 5a f6 ff ff       	jmp    c0107333 <common_isr>

c0107cd9 <isr_224>:
c0107cd9:	fa                   	cli
c0107cda:	6a 00                	push   $0x0
c0107cdc:	68 e0 00 00 00       	push   $0xe0
c0107ce1:	e9 4d f6 ff ff       	jmp    c0107333 <common_isr>

c0107ce6 <isr_225>:
c0107ce6:	fa                   	cli
c0107ce7:	6a 00                	push   $0x0
c0107ce9:	68 e1 00 00 00       	push   $0xe1
c0107cee:	e9 40 f6 ff ff       	jmp    c0107333 <common_isr>

c0107cf3 <isr_226>:
c0107cf3:	fa                   	cli
c0107cf4:	6a 00                	push   $0x0
c0107cf6:	68 e2 00 00 00       	push   $0xe2
c0107cfb:	e9 33 f6 ff ff       	jmp    c0107333 <common_isr>

c0107d00 <isr_227>:
c0107d00:	fa                   	cli
c0107d01:	6a 00                	push   $0x0
c0107d03:	68 e3 00 00 00       	push   $0xe3
c0107d08:	e9 26 f6 ff ff       	jmp    c0107333 <common_isr>

c0107d0d <isr_228>:
c0107d0d:	fa                   	cli
c0107d0e:	6a 00                	push   $0x0
c0107d10:	68 e4 00 00 00       	push   $0xe4
c0107d15:	e9 19 f6 ff ff       	jmp    c0107333 <common_isr>

c0107d1a <isr_229>:
c0107d1a:	fa                   	cli
c0107d1b:	6a 00                	push   $0x0
c0107d1d:	68 e5 00 00 00       	push   $0xe5
c0107d22:	e9 0c f6 ff ff       	jmp    c0107333 <common_isr>

c0107d27 <isr_230>:
c0107d27:	fa                   	cli
c0107d28:	6a 00                	push   $0x0
c0107d2a:	68 e6 00 00 00       	push   $0xe6
c0107d2f:	e9 ff f5 ff ff       	jmp    c0107333 <common_isr>

c0107d34 <isr_231>:
c0107d34:	fa                   	cli
c0107d35:	6a 00                	push   $0x0
c0107d37:	68 e7 00 00 00       	push   $0xe7
c0107d3c:	e9 f2 f5 ff ff       	jmp    c0107333 <common_isr>

c0107d41 <isr_232>:
c0107d41:	fa                   	cli
c0107d42:	6a 00                	push   $0x0
c0107d44:	68 e8 00 00 00       	push   $0xe8
c0107d49:	e9 e5 f5 ff ff       	jmp    c0107333 <common_isr>

c0107d4e <isr_233>:
c0107d4e:	fa                   	cli
c0107d4f:	6a 00                	push   $0x0
c0107d51:	68 e9 00 00 00       	push   $0xe9
c0107d56:	e9 d8 f5 ff ff       	jmp    c0107333 <common_isr>

c0107d5b <isr_234>:
c0107d5b:	fa                   	cli
c0107d5c:	6a 00                	push   $0x0
c0107d5e:	68 ea 00 00 00       	push   $0xea
c0107d63:	e9 cb f5 ff ff       	jmp    c0107333 <common_isr>

c0107d68 <isr_235>:
c0107d68:	fa                   	cli
c0107d69:	6a 00                	push   $0x0
c0107d6b:	68 eb 00 00 00       	push   $0xeb
c0107d70:	e9 be f5 ff ff       	jmp    c0107333 <common_isr>

c0107d75 <isr_236>:
c0107d75:	fa                   	cli
c0107d76:	6a 00                	push   $0x0
c0107d78:	68 ec 00 00 00       	push   $0xec
c0107d7d:	e9 b1 f5 ff ff       	jmp    c0107333 <common_isr>

c0107d82 <isr_237>:
c0107d82:	fa                   	cli
c0107d83:	6a 00                	push   $0x0
c0107d85:	68 ed 00 00 00       	push   $0xed
c0107d8a:	e9 a4 f5 ff ff       	jmp    c0107333 <common_isr>

c0107d8f <isr_238>:
c0107d8f:	fa                   	cli
c0107d90:	6a 00                	push   $0x0
c0107d92:	68 ee 00 00 00       	push   $0xee
c0107d97:	e9 97 f5 ff ff       	jmp    c0107333 <common_isr>

c0107d9c <isr_239>:
c0107d9c:	fa                   	cli
c0107d9d:	6a 00                	push   $0x0
c0107d9f:	68 ef 00 00 00       	push   $0xef
c0107da4:	e9 8a f5 ff ff       	jmp    c0107333 <common_isr>

c0107da9 <isr_240>:
c0107da9:	fa                   	cli
c0107daa:	6a 00                	push   $0x0
c0107dac:	68 f0 00 00 00       	push   $0xf0
c0107db1:	e9 7d f5 ff ff       	jmp    c0107333 <common_isr>

c0107db6 <isr_241>:
c0107db6:	fa                   	cli
c0107db7:	6a 00                	push   $0x0
c0107db9:	68 f1 00 00 00       	push   $0xf1
c0107dbe:	e9 70 f5 ff ff       	jmp    c0107333 <common_isr>

c0107dc3 <isr_242>:
c0107dc3:	fa                   	cli
c0107dc4:	6a 00                	push   $0x0
c0107dc6:	68 f2 00 00 00       	push   $0xf2
c0107dcb:	e9 63 f5 ff ff       	jmp    c0107333 <common_isr>

c0107dd0 <isr_243>:
c0107dd0:	fa                   	cli
c0107dd1:	6a 00                	push   $0x0
c0107dd3:	68 f3 00 00 00       	push   $0xf3
c0107dd8:	e9 56 f5 ff ff       	jmp    c0107333 <common_isr>

c0107ddd <isr_244>:
c0107ddd:	fa                   	cli
c0107dde:	6a 00                	push   $0x0
c0107de0:	68 f4 00 00 00       	push   $0xf4
c0107de5:	e9 49 f5 ff ff       	jmp    c0107333 <common_isr>

c0107dea <isr_245>:
c0107dea:	fa                   	cli
c0107deb:	6a 00                	push   $0x0
c0107ded:	68 f5 00 00 00       	push   $0xf5
c0107df2:	e9 3c f5 ff ff       	jmp    c0107333 <common_isr>

c0107df7 <isr_246>:
c0107df7:	fa                   	cli
c0107df8:	6a 00                	push   $0x0
c0107dfa:	68 f6 00 00 00       	push   $0xf6
c0107dff:	e9 2f f5 ff ff       	jmp    c0107333 <common_isr>

c0107e04 <isr_247>:
c0107e04:	fa                   	cli
c0107e05:	6a 00                	push   $0x0
c0107e07:	68 f7 00 00 00       	push   $0xf7
c0107e0c:	e9 22 f5 ff ff       	jmp    c0107333 <common_isr>

c0107e11 <isr_248>:
c0107e11:	fa                   	cli
c0107e12:	6a 00                	push   $0x0
c0107e14:	68 f8 00 00 00       	push   $0xf8
c0107e19:	e9 15 f5 ff ff       	jmp    c0107333 <common_isr>

c0107e1e <isr_249>:
c0107e1e:	fa                   	cli
c0107e1f:	6a 00                	push   $0x0
c0107e21:	68 f9 00 00 00       	push   $0xf9
c0107e26:	e9 08 f5 ff ff       	jmp    c0107333 <common_isr>

c0107e2b <isr_250>:
c0107e2b:	fa                   	cli
c0107e2c:	6a 00                	push   $0x0
c0107e2e:	68 fa 00 00 00       	push   $0xfa
c0107e33:	e9 fb f4 ff ff       	jmp    c0107333 <common_isr>

c0107e38 <isr_251>:
c0107e38:	fa                   	cli
c0107e39:	6a 00                	push   $0x0
c0107e3b:	68 fb 00 00 00       	push   $0xfb
c0107e40:	e9 ee f4 ff ff       	jmp    c0107333 <common_isr>

c0107e45 <isr_252>:
c0107e45:	fa                   	cli
c0107e46:	6a 00                	push   $0x0
c0107e48:	68 fc 00 00 00       	push   $0xfc
c0107e4d:	e9 e1 f4 ff ff       	jmp    c0107333 <common_isr>

c0107e52 <isr_253>:
c0107e52:	fa                   	cli
c0107e53:	6a 00                	push   $0x0
c0107e55:	68 fd 00 00 00       	push   $0xfd
c0107e5a:	e9 d4 f4 ff ff       	jmp    c0107333 <common_isr>

c0107e5f <isr_254>:
c0107e5f:	fa                   	cli
c0107e60:	6a 00                	push   $0x0
c0107e62:	68 fe 00 00 00       	push   $0xfe
c0107e67:	e9 c7 f4 ff ff       	jmp    c0107333 <common_isr>

c0107e6c <isr_255>:
c0107e6c:	fa                   	cli
c0107e6d:	6a 00                	push   $0x0
c0107e6f:	68 ff 00 00 00       	push   $0xff
c0107e74:	e9 ba f4 ff ff       	jmp    c0107333 <common_isr>

c0107e79 <sys_write>:
c0107e79:	55                   	push   %ebp
c0107e7a:	89 e5                	mov    %esp,%ebp
c0107e7c:	53                   	push   %ebx
c0107e7d:	83 ec 04             	sub    $0x4,%esp
c0107e80:	e8 b4 6b 00 00       	call   c010ea39 <__x86.get_pc_thunk.ax>
c0107e85:	05 a7 a7 00 00       	add    $0xa7a7,%eax
c0107e8a:	83 ec 08             	sub    $0x8,%esp
c0107e8d:	ff 75 0c             	push   0xc(%ebp)
c0107e90:	ff 75 08             	push   0x8(%ebp)
c0107e93:	89 c3                	mov    %eax,%ebx
c0107e95:	e8 ab 23 00 00       	call   c010a245 <fb_nprint_black>
c0107e9a:	83 c4 10             	add    $0x10,%esp
c0107e9d:	8b 45 0c             	mov    0xc(%ebp),%eax
c0107ea0:	8b 5d fc             	mov    -0x4(%ebp),%ebx
c0107ea3:	c9                   	leave
c0107ea4:	c3                   	ret

c0107ea5 <sys_read>:
c0107ea5:	55                   	push   %ebp
c0107ea6:	89 e5                	mov    %esp,%ebp
c0107ea8:	56                   	push   %esi
c0107ea9:	53                   	push   %ebx
c0107eaa:	83 ec 10             	sub    $0x10,%esp
c0107ead:	e8 8b 6b 00 00       	call   c010ea3d <__x86.get_pc_thunk.bx>
c0107eb2:	81 c3 7a a7 00 00    	add    $0xa77a,%ebx
c0107eb8:	8b 45 08             	mov    0x8(%ebp),%eax
c0107ebb:	89 45 f0             	mov    %eax,-0x10(%ebp)
c0107ebe:	c7 45 f4 00 00 00 00 	movl   $0x0,-0xc(%ebp)
c0107ec5:	eb 1b                	jmp    c0107ee2 <sys_read+0x3d>
c0107ec7:	8b 45 f4             	mov    -0xc(%ebp),%eax
c0107eca:	8d 14 85 00 00 00 00 	lea    0x0(,%eax,4),%edx
c0107ed1:	8b 45 f0             	mov    -0x10(%ebp),%eax
c0107ed4:	8d 34 02             	lea    (%edx,%eax,1),%esi
c0107ed7:	e8 42 0f 00 00       	call   c0108e1e <kbd_read>
c0107edc:	89 06                	mov    %eax,(%esi)
c0107ede:	83 45 f4 01          	addl   $0x1,-0xc(%ebp)
c0107ee2:	8b 45 f4             	mov    -0xc(%ebp),%eax
c0107ee5:	3b 45 0c             	cmp    0xc(%ebp),%eax
c0107ee8:	72 dd                	jb     c0107ec7 <sys_read+0x22>
c0107eea:	8b 45 f4             	mov    -0xc(%ebp),%eax
c0107eed:	83 c4 10             	add    $0x10,%esp
c0107ef0:	5b                   	pop    %ebx
c0107ef1:	5e                   	pop    %esi
c0107ef2:	5d                   	pop    %ebp
c0107ef3:	c3                   	ret

c0107ef4 <sys_echo>:
c0107ef4:	55                   	push   %ebp
c0107ef5:	89 e5                	mov    %esp,%ebp
c0107ef7:	53                   	push   %ebx
c0107ef8:	83 ec 04             	sub    $0x4,%esp
c0107efb:	e8 3d 6b 00 00       	call   c010ea3d <__x86.get_pc_thunk.bx>
c0107f00:	81 c3 2c a7 00 00    	add    $0xa72c,%ebx
c0107f06:	8b 45 08             	mov    0x8(%ebp),%eax
c0107f09:	83 ec 0c             	sub    $0xc,%esp
c0107f0c:	50                   	push   %eax
c0107f0d:	e8 0c 25 00 00       	call   c010a41e <fb_print_num>
c0107f12:	83 c4 10             	add    $0x10,%esp
c0107f15:	e8 4f 23 00 00       	call   c010a269 <fb_newline>
c0107f1a:	8b 45 08             	mov    0x8(%ebp),%eax
c0107f1d:	8b 5d fc             	mov    -0x4(%ebp),%ebx
c0107f20:	c9                   	leave
c0107f21:	c3                   	ret

c0107f22 <syscall>:
c0107f22:	55                   	push   %ebp
c0107f23:	89 e5                	mov    %esp,%ebp
c0107f25:	53                   	push   %ebx
c0107f26:	83 ec 24             	sub    $0x24,%esp
c0107f29:	e8 0b 6b 00 00       	call   c010ea39 <__x86.get_pc_thunk.ax>
c0107f2e:	05 fe a6 00 00       	add    $0xa6fe,%eax
c0107f33:	8d 55 0c             	lea    0xc(%ebp),%edx
c0107f36:	89 55 e0             	mov    %edx,-0x20(%ebp)
c0107f39:	83 7d 08 00          	cmpl   $0x0,0x8(%ebp)
c0107f3d:	74 0b                	je     c0107f4a <syscall+0x28>
c0107f3f:	83 7d 08 01          	cmpl   $0x1,0x8(%ebp)
c0107f43:	74 48                	je     c0107f8d <syscall+0x6b>
c0107f45:	e9 85 00 00 00       	jmp    c0107fcf <syscall+0xad>
c0107f4a:	8b 55 e0             	mov    -0x20(%ebp),%edx
c0107f4d:	8d 4a 04             	lea    0x4(%edx),%ecx
c0107f50:	89 4d e0             	mov    %ecx,-0x20(%ebp)
c0107f53:	8b 12                	mov    (%edx),%edx
c0107f55:	89 55 e8             	mov    %edx,-0x18(%ebp)
c0107f58:	8b 55 e0             	mov    -0x20(%ebp),%edx
c0107f5b:	8d 4a 04             	lea    0x4(%edx),%ecx
c0107f5e:	89 4d e0             	mov    %ecx,-0x20(%ebp)
c0107f61:	8b 12                	mov    (%edx),%edx
c0107f63:	89 55 e4             	mov    %edx,-0x1c(%ebp)
c0107f66:	8d 90 79 58 ff ff    	lea    -0xa787(%eax),%edx
c0107f6c:	83 ec 04             	sub    $0x4,%esp
c0107f6f:	6a 00                	push   $0x0
c0107f71:	6a 00                	push   $0x0
c0107f73:	6a 00                	push   $0x0
c0107f75:	ff 75 e4             	push   -0x1c(%ebp)
c0107f78:	ff 75 e8             	push   -0x18(%ebp)
c0107f7b:	52                   	push   %edx
c0107f7c:	6a 02                	push   $0x2
c0107f7e:	89 c3                	mov    %eax,%ebx
c0107f80:	e8 88 03 00 00       	call   c010830d <sysenter>
c0107f85:	83 c4 20             	add    $0x20,%esp
c0107f88:	89 45 f4             	mov    %eax,-0xc(%ebp)
c0107f8b:	eb 42                	jmp    c0107fcf <syscall+0xad>
c0107f8d:	8b 55 e0             	mov    -0x20(%ebp),%edx
c0107f90:	8d 4a 04             	lea    0x4(%edx),%ecx
c0107f93:	89 4d e0             	mov    %ecx,-0x20(%ebp)
c0107f96:	8b 12                	mov    (%edx),%edx
c0107f98:	89 55 f0             	mov    %edx,-0x10(%ebp)
c0107f9b:	8b 55 e0             	mov    -0x20(%ebp),%edx
c0107f9e:	8d 4a 04             	lea    0x4(%edx),%ecx
c0107fa1:	89 4d e0             	mov    %ecx,-0x20(%ebp)
c0107fa4:	8b 12                	mov    (%edx),%edx
c0107fa6:	89 55 ec             	mov    %edx,-0x14(%ebp)
c0107fa9:	8d 90 4d 58 ff ff    	lea    -0xa7b3(%eax),%edx
c0107faf:	83 ec 04             	sub    $0x4,%esp
c0107fb2:	6a 00                	push   $0x0
c0107fb4:	6a 00                	push   $0x0
c0107fb6:	6a 00                	push   $0x0
c0107fb8:	ff 75 ec             	push   -0x14(%ebp)
c0107fbb:	ff 75 f0             	push   -0x10(%ebp)
c0107fbe:	52                   	push   %edx
c0107fbf:	6a 02                	push   $0x2
c0107fc1:	89 c3                	mov    %eax,%ebx
c0107fc3:	e8 45 03 00 00       	call   c010830d <sysenter>
c0107fc8:	83 c4 20             	add    $0x20,%esp
c0107fcb:	89 45 f4             	mov    %eax,-0xc(%ebp)
c0107fce:	90                   	nop
c0107fcf:	8b 45 f4             	mov    -0xc(%ebp),%eax
c0107fd2:	8b 5d fc             	mov    -0x4(%ebp),%ebx
c0107fd5:	c9                   	leave
c0107fd6:	c3                   	ret

c0107fd7 <syscall_init>:
c0107fd7:	55                   	push   %ebp
c0107fd8:	89 e5                	mov    %esp,%ebp
c0107fda:	53                   	push   %ebx
c0107fdb:	83 ec 04             	sub    $0x4,%esp
c0107fde:	e8 56 6a 00 00       	call   c010ea39 <__x86.get_pc_thunk.ax>
c0107fe3:	05 49 a6 00 00       	add    $0xa649,%eax
c0107fe8:	89 c3                	mov    %eax,%ebx
c0107fea:	e8 c5 02 00 00       	call   c01082b4 <syscall_setup>
c0107fef:	90                   	nop
c0107ff0:	8b 5d fc             	mov    -0x4(%ebp),%ebx
c0107ff3:	c9                   	leave
c0107ff4:	c3                   	ret

c0107ff5 <sti>:
c0107ff5:	55                   	push   %ebp
c0107ff6:	89 e5                	mov    %esp,%ebp
c0107ff8:	e8 3c 6a 00 00       	call   c010ea39 <__x86.get_pc_thunk.ax>
c0107ffd:	05 2f a6 00 00       	add    $0xa62f,%eax
c0108002:	fb                   	sti
c0108003:	90                   	nop
c0108004:	5d                   	pop    %ebp
c0108005:	c3                   	ret

c0108006 <idt_set_entry>:
c0108006:	55                   	push   %ebp
c0108007:	89 e5                	mov    %esp,%ebp
c0108009:	83 ec 18             	sub    $0x18,%esp
c010800c:	e8 28 6a 00 00       	call   c010ea39 <__x86.get_pc_thunk.ax>
c0108011:	05 1b a6 00 00       	add    $0xa61b,%eax
c0108016:	8b 4d 08             	mov    0x8(%ebp),%ecx
c0108019:	8b 55 10             	mov    0x10(%ebp),%edx
c010801c:	88 4d ec             	mov    %cl,-0x14(%ebp)
c010801f:	88 55 e8             	mov    %dl,-0x18(%ebp)
c0108022:	0f b6 55 ec          	movzbl -0x14(%ebp),%edx
c0108026:	c1 e2 03             	shl    $0x3,%edx
c0108029:	8d 80 d4 61 00 00    	lea    0x61d4(%eax),%eax
c010802f:	01 d0                	add    %edx,%eax
c0108031:	89 45 fc             	mov    %eax,-0x4(%ebp)
c0108034:	83 7d fc 00          	cmpl   $0x0,-0x4(%ebp)
c0108038:	75 07                	jne    c0108041 <idt_set_entry+0x3b>
c010803a:	b8 02 00 00 00       	mov    $0x2,%eax
c010803f:	eb 39                	jmp    c010807a <idt_set_entry+0x74>
c0108041:	8b 45 0c             	mov    0xc(%ebp),%eax
c0108044:	89 c2                	mov    %eax,%edx
c0108046:	8b 45 fc             	mov    -0x4(%ebp),%eax
c0108049:	66 89 10             	mov    %dx,(%eax)
c010804c:	8b 45 0c             	mov    0xc(%ebp),%eax
c010804f:	c1 e8 10             	shr    $0x10,%eax
c0108052:	89 c2                	mov    %eax,%edx
c0108054:	8b 45 fc             	mov    -0x4(%ebp),%eax
c0108057:	66 89 50 06          	mov    %dx,0x6(%eax)
c010805b:	8b 45 fc             	mov    -0x4(%ebp),%eax
c010805e:	66 c7 40 02 08 00    	movw   $0x8,0x2(%eax)
c0108064:	8b 45 fc             	mov    -0x4(%ebp),%eax
c0108067:	0f b6 55 e8          	movzbl -0x18(%ebp),%edx
c010806b:	88 50 05             	mov    %dl,0x5(%eax)
c010806e:	8b 45 fc             	mov    -0x4(%ebp),%eax
c0108071:	c6 40 04 00          	movb   $0x0,0x4(%eax)
c0108075:	b8 00 00 00 00       	mov    $0x0,%eax
c010807a:	c9                   	leave
c010807b:	c3                   	ret

c010807c <void_handler>:
c010807c:	55                   	push   %ebp
c010807d:	89 e5                	mov    %esp,%ebp
c010807f:	53                   	push   %ebx
c0108080:	83 ec 04             	sub    $0x4,%esp
c0108083:	e8 b5 69 00 00       	call   c010ea3d <__x86.get_pc_thunk.bx>
c0108088:	81 c3 a4 a5 00 00    	add    $0xa5a4,%ebx
c010808e:	8d 83 04 ca ff ff    	lea    -0x35fc(%ebx),%eax
c0108094:	50                   	push   %eax
c0108095:	83 ec 0c             	sub    $0xc,%esp
c0108098:	89 e1                	mov    %esp,%ecx
c010809a:	8b 45 08             	mov    0x8(%ebp),%eax
c010809d:	8b 55 0c             	mov    0xc(%ebp),%edx
c01080a0:	89 01                	mov    %eax,(%ecx)
c01080a2:	89 51 04             	mov    %edx,0x4(%ecx)
c01080a5:	8b 45 10             	mov    0x10(%ebp),%eax
c01080a8:	89 41 08             	mov    %eax,0x8(%ecx)
c01080ab:	e8 03 07 00 00       	call   c01087b3 <general_handler>
c01080b0:	83 c4 10             	add    $0x10,%esp
c01080b3:	8b 45 08             	mov    0x8(%ebp),%eax
c01080b6:	83 ec 0c             	sub    $0xc,%esp
c01080b9:	50                   	push   %eax
c01080ba:	e8 5f 23 00 00       	call   c010a41e <fb_print_num>
c01080bf:	83 c4 10             	add    $0x10,%esp
c01080c2:	e8 a2 21 00 00       	call   c010a269 <fb_newline>
c01080c7:	90                   	nop
c01080c8:	8b 5d fc             	mov    -0x4(%ebp),%ebx
c01080cb:	c9                   	leave
c01080cc:	c3                   	ret

c01080cd <idt_init>:
c01080cd:	55                   	push   %ebp
c01080ce:	89 e5                	mov    %esp,%ebp
c01080d0:	53                   	push   %ebx
c01080d1:	83 ec 14             	sub    $0x14,%esp
c01080d4:	e8 64 69 00 00       	call   c010ea3d <__x86.get_pc_thunk.bx>
c01080d9:	81 c3 53 a5 00 00    	add    $0xa553,%ebx
c01080df:	8d 83 d4 61 00 00    	lea    0x61d4(%ebx),%eax
c01080e5:	89 83 d6 69 00 00    	mov    %eax,0x69d6(%ebx)
c01080eb:	66 c7 83 d4 69 00 00 	movw   $0x7ff,0x69d4(%ebx)
c01080f2:	ff 07 
c01080f4:	c6 45 f7 00          	movb   $0x0,-0x9(%ebp)
c01080f8:	eb 3b                	jmp    c0108135 <idt_init+0x68>
c01080fa:	0f b6 55 f7          	movzbl -0x9(%ebp),%edx
c01080fe:	c7 c0 00 20 11 c0    	mov    $0xc0112000,%eax
c0108104:	8b 14 90             	mov    (%eax,%edx,4),%edx
c0108107:	0f b6 45 f7          	movzbl -0x9(%ebp),%eax
c010810b:	68 8e 00 00 00       	push   $0x8e
c0108110:	52                   	push   %edx
c0108111:	50                   	push   %eax
c0108112:	e8 ef fe ff ff       	call   c0108006 <idt_set_entry>
c0108117:	83 c4 0c             	add    $0xc,%esp
c010811a:	0f b6 45 f7          	movzbl -0x9(%ebp),%eax
c010811e:	8d 93 50 5a ff ff    	lea    -0xa5b0(%ebx),%edx
c0108124:	89 94 83 f4 69 00 00 	mov    %edx,0x69f4(%ebx,%eax,4)
c010812b:	0f b6 45 f7          	movzbl -0x9(%ebp),%eax
c010812f:	83 c0 01             	add    $0x1,%eax
c0108132:	88 45 f7             	mov    %al,-0x9(%ebp)
c0108135:	80 7d f7 ff          	cmpb   $0xff,-0x9(%ebp)
c0108139:	75 bf                	jne    c01080fa <idt_init+0x2d>
c010813b:	8d 83 d4 69 00 00    	lea    0x69d4(%ebx),%eax
c0108141:	83 ec 0c             	sub    $0xc,%esp
c0108144:	50                   	push   %eax
c0108145:	e8 e1 f1 ff ff       	call   c010732b <load_idt>
c010814a:	83 c4 10             	add    $0x10,%esp
c010814d:	83 ec 08             	sub    $0x8,%esp
c0108150:	6a 01                	push   $0x1
c0108152:	6a 00                	push   $0x0
c0108154:	e8 c4 19 00 00       	call   c0109b1d <pic_init>
c0108159:	83 c4 10             	add    $0x10,%esp
c010815c:	e8 71 07 00 00       	call   c01088d2 <exception_handlers_init>
c0108161:	e8 8f fe ff ff       	call   c0107ff5 <sti>
c0108166:	83 ec 0c             	sub    $0xc,%esp
c0108169:	8d 83 18 ca ff ff    	lea    -0x35e8(%ebx),%eax
c010816f:	50                   	push   %eax
c0108170:	e8 6b 36 00 00       	call   c010b7e0 <klog>
c0108175:	83 c4 10             	add    $0x10,%esp
c0108178:	b8 00 00 00 00       	mov    $0x0,%eax
c010817d:	8b 5d fc             	mov    -0x4(%ebp),%ebx
c0108180:	c9                   	leave
c0108181:	c3                   	ret

c0108182 <add_irq_handler>:
c0108182:	55                   	push   %ebp
c0108183:	89 e5                	mov    %esp,%ebp
c0108185:	53                   	push   %ebx
c0108186:	83 ec 14             	sub    $0x14,%esp
c0108189:	e8 ab 68 00 00       	call   c010ea39 <__x86.get_pc_thunk.ax>
c010818e:	05 9e a4 00 00       	add    $0xa49e,%eax
c0108193:	8b 55 08             	mov    0x8(%ebp),%edx
c0108196:	88 55 f4             	mov    %dl,-0xc(%ebp)
c0108199:	0f b6 55 f4          	movzbl -0xc(%ebp),%edx
c010819d:	8d 4a 20             	lea    0x20(%edx),%ecx
c01081a0:	8b 55 0c             	mov    0xc(%ebp),%edx
c01081a3:	89 94 88 f4 69 00 00 	mov    %edx,0x69f4(%eax,%ecx,4)
c01081aa:	0f b6 55 f4          	movzbl -0xc(%ebp),%edx
c01081ae:	83 ec 0c             	sub    $0xc,%esp
c01081b1:	52                   	push   %edx
c01081b2:	89 c3                	mov    %eax,%ebx
c01081b4:	e8 a8 18 00 00       	call   c0109a61 <pic_unmask>
c01081b9:	83 c4 10             	add    $0x10,%esp
c01081bc:	90                   	nop
c01081bd:	8b 5d fc             	mov    -0x4(%ebp),%ebx
c01081c0:	c9                   	leave
c01081c1:	c3                   	ret

c01081c2 <add_isr_handler>:
c01081c2:	55                   	push   %ebp
c01081c3:	89 e5                	mov    %esp,%ebp
c01081c5:	83 ec 08             	sub    $0x8,%esp
c01081c8:	e8 6c 68 00 00       	call   c010ea39 <__x86.get_pc_thunk.ax>
c01081cd:	05 5f a4 00 00       	add    $0xa45f,%eax
c01081d2:	8b 4d 08             	mov    0x8(%ebp),%ecx
c01081d5:	8b 55 10             	mov    0x10(%ebp),%edx
c01081d8:	88 4d fc             	mov    %cl,-0x4(%ebp)
c01081db:	88 55 f8             	mov    %dl,-0x8(%ebp)
c01081de:	0f b6 55 fc          	movzbl -0x4(%ebp),%edx
c01081e2:	8b 4d 0c             	mov    0xc(%ebp),%ecx
c01081e5:	89 8c 90 f4 69 00 00 	mov    %ecx,0x69f4(%eax,%edx,4)
c01081ec:	80 7d f8 00          	cmpb   $0x0,-0x8(%ebp)
c01081f0:	74 22                	je     c0108214 <add_isr_handler+0x52>
c01081f2:	0f b6 4d f8          	movzbl -0x8(%ebp),%ecx
c01081f6:	0f b6 55 fc          	movzbl -0x4(%ebp),%edx
c01081fa:	c7 c0 00 20 11 c0    	mov    $0xc0112000,%eax
c0108200:	8b 14 90             	mov    (%eax,%edx,4),%edx
c0108203:	0f b6 45 fc          	movzbl -0x4(%ebp),%eax
c0108207:	51                   	push   %ecx
c0108208:	52                   	push   %edx
c0108209:	50                   	push   %eax
c010820a:	e8 f7 fd ff ff       	call   c0108006 <idt_set_entry>
c010820f:	83 c4 0c             	add    $0xc,%esp
c0108212:	eb 05                	jmp    c0108219 <add_isr_handler+0x57>
c0108214:	b8 00 00 00 00       	mov    $0x0,%eax
c0108219:	c9                   	leave
c010821a:	c3                   	ret

c010821b <isr_x86>:
c010821b:	55                   	push   %ebp
c010821c:	89 e5                	mov    %esp,%ebp
c010821e:	53                   	push   %ebx
c010821f:	83 ec 14             	sub    $0x14,%esp
c0108222:	e8 12 68 00 00       	call   c010ea39 <__x86.get_pc_thunk.ax>
c0108227:	05 05 a4 00 00       	add    $0xa405,%eax
c010822c:	8b 90 dc 69 00 00    	mov    0x69dc(%eax),%edx
c0108232:	83 c2 01             	add    $0x1,%edx
c0108235:	89 90 dc 69 00 00    	mov    %edx,0x69dc(%eax)
c010823b:	8b 55 28             	mov    0x28(%ebp),%edx
c010823e:	8b 9c 90 f4 69 00 00 	mov    0x69f4(%eax,%edx,4),%ebx
c0108245:	8b 45 28             	mov    0x28(%ebp),%eax
c0108248:	89 45 ec             	mov    %eax,-0x14(%ebp)
c010824b:	8b 45 2c             	mov    0x2c(%ebp),%eax
c010824e:	89 45 f0             	mov    %eax,-0x10(%ebp)
c0108251:	8b 45 30             	mov    0x30(%ebp),%eax
c0108254:	89 45 f4             	mov    %eax,-0xc(%ebp)
c0108257:	83 ec 04             	sub    $0x4,%esp
c010825a:	83 ec 0c             	sub    $0xc,%esp
c010825d:	89 e1                	mov    %esp,%ecx
c010825f:	8b 45 ec             	mov    -0x14(%ebp),%eax
c0108262:	8b 55 f0             	mov    -0x10(%ebp),%edx
c0108265:	89 01                	mov    %eax,(%ecx)
c0108267:	89 51 04             	mov    %edx,0x4(%ecx)
c010826a:	8b 45 f4             	mov    -0xc(%ebp),%eax
c010826d:	89 41 08             	mov    %eax,0x8(%ecx)
c0108270:	ff d3                	call   *%ebx
c0108272:	83 c4 10             	add    $0x10,%esp
c0108275:	90                   	nop
c0108276:	8b 5d fc             	mov    -0x4(%ebp),%ebx
c0108279:	c9                   	leave
c010827a:	c3                   	ret
c010827b:	66 90                	xchg   %ax,%ax
c010827d:	66 90                	xchg   %ax,%ax
c010827f:	90                   	nop

c0108280 <usermode_bootstrap>:
c0108280:	8c c8                	mov    %cs,%eax
c0108282:	83 e0 03             	and    $0x3,%eax
c0108285:	74 05                	je     c010828c <loop>
c0108287:	e8 e4 38 00 00       	call   c010bb70 <usermode>

c010828c <loop>:
c010828c:	eb fe                	jmp    c010828c <loop>

c010828e <get_eip>:
c010828e:	8b 04 24             	mov    (%esp),%eax
c0108291:	c3                   	ret

c0108292 <scall_wrapper>:
c0108292:	51                   	push   %ecx
c0108293:	52                   	push   %edx
c0108294:	8d 69 18             	lea    0x18(%ecx),%ebp
c0108297:	8b 7d 00             	mov    0x0(%ebp),%edi

c010829a <_push_args>:
c010829a:	ff 74 bd 04          	push   0x4(%ebp,%edi,4)
c010829e:	4f                   	dec    %edi
c010829f:	75 f9                	jne    c010829a <_push_args>
c01082a1:	ff 55 04             	call   *0x4(%ebp)
c01082a4:	50                   	push   %eax
c01082a5:	b8 04 00 00 00       	mov    $0x4,%eax
c01082aa:	f7 65 00             	mull   0x0(%ebp)
c01082ad:	01 c4                	add    %eax,%esp
c01082af:	58                   	pop    %eax
c01082b0:	5a                   	pop    %edx
c01082b1:	59                   	pop    %ecx
c01082b2:	0f 35                	sysexit

c01082b4 <syscall_setup>:
c01082b4:	c6 05 20 94 11 c0 00 	movb   $0x0,0xc0119420
c01082bb:	9c                   	pushf
c01082bc:	81 0c 24 00 00 20 00 	orl    $0x200000,(%esp)
c01082c3:	9d                   	popf
c01082c4:	9c                   	pushf
c01082c5:	8b 04 24             	mov    (%esp),%eax
c01082c8:	c1 e8 15             	shr    $0x15,%eax
c01082cb:	83 e0 01             	and    $0x1,%eax
c01082ce:	74 3c                	je     c010830c <_legacy_setup>
c01082d0:	9d                   	popf
c01082d1:	b8 01 00 00 00       	mov    $0x1,%eax
c01082d6:	0f a2                	cpuid
c01082d8:	c1 ea 0b             	shr    $0xb,%edx
c01082db:	83 e2 01             	and    $0x1,%edx
c01082de:	74 2c                	je     c010830c <_legacy_setup>

c01082e0 <_sysenter_setup>:
c01082e0:	c6 05 20 94 11 c0 01 	movb   $0x1,0xc0119420
c01082e7:	b9 74 01 00 00       	mov    $0x174,%ecx
c01082ec:	b8 08 00 00 00       	mov    $0x8,%eax
c01082f1:	0f 30                	wrmsr
c01082f3:	b9 75 01 00 00       	mov    $0x175,%ecx
c01082f8:	b8 00 48 11 c0       	mov    $0xc0114800,%eax
c01082fd:	0f 30                	wrmsr
c01082ff:	b9 76 01 00 00       	mov    $0x176,%ecx
c0108304:	b8 92 82 10 c0       	mov    $0xc0108292,%eax
c0108309:	0f 30                	wrmsr
c010830b:	c3                   	ret

c010830c <_legacy_setup>:
c010830c:	c3                   	ret

c010830d <sysenter>:
c010830d:	f6 05 20 94 11 c0 00 	testb  $0x0,0xc0119420
c0108314:	75 1a                	jne    c0108330 <_legacy>
c0108316:	53                   	push   %ebx
c0108317:	54                   	push   %esp
c0108318:	55                   	push   %ebp
c0108319:	56                   	push   %esi
c010831a:	57                   	push   %edi
c010831b:	89 e1                	mov    %esp,%ecx
c010831d:	ba 31 83 10 c0       	mov    $0xc0108331,%edx
c0108322:	0f 34                	sysenter
c0108324:	68 0b 24 11 c0       	push   $0xc011240b
c0108329:	e8 f2 1e 00 00       	call   c010a220 <fb_print_black>
c010832e:	eb 01                	jmp    c0108331 <_after>

c0108330 <_legacy>:
c0108330:	c3                   	ret

c0108331 <_after>:
c0108331:	5f                   	pop    %edi
c0108332:	5e                   	pop    %esi
c0108333:	5d                   	pop    %ebp
c0108334:	5c                   	pop    %esp
c0108335:	5b                   	pop    %ebx
c0108336:	c3                   	ret

c0108337 <jump_usermode>:
c0108337:	fa                   	cli
c0108338:	66 b8 23 00          	mov    $0x23,%ax
c010833c:	8e d8                	mov    %eax,%ds
c010833e:	8e c0                	mov    %eax,%es
c0108340:	8e e0                	mov    %eax,%fs
c0108342:	8e e8                	mov    %eax,%gs
c0108344:	89 e0                	mov    %esp,%eax
c0108346:	6a 23                	push   $0x23
c0108348:	50                   	push   %eax
c0108349:	9c                   	pushf
c010834a:	6a 1b                	push   $0x1b
c010834c:	fb                   	sti
c010834d:	68 80 82 10 c0       	push   $0xc0108280
c0108352:	cf                   	iret

c0108353 <ltr>:
c0108353:	66 b8 2b 00          	mov    $0x2b,%ax
c0108357:	0f 00 d8             	ltr    %ax
c010835a:	c3                   	ret

c010835b <cli>:
c010835b:	55                   	push   %ebp
c010835c:	89 e5                	mov    %esp,%ebp
c010835e:	e8 d6 66 00 00       	call   c010ea39 <__x86.get_pc_thunk.ax>
c0108363:	05 c9 a2 00 00       	add    $0xa2c9,%eax
c0108368:	fa                   	cli
c0108369:	90                   	nop
c010836a:	5d                   	pop    %ebp
c010836b:	c3                   	ret

c010836c <gdt_fill_entry>:
c010836c:	55                   	push   %ebp
c010836d:	89 e5                	mov    %esp,%ebp
c010836f:	83 ec 18             	sub    $0x18,%esp
c0108372:	e8 c2 66 00 00       	call   c010ea39 <__x86.get_pc_thunk.ax>
c0108377:	05 b5 a2 00 00       	add    $0xa2b5,%eax
c010837c:	8b 4d 14             	mov    0x14(%ebp),%ecx
c010837f:	8b 55 18             	mov    0x18(%ebp),%edx
c0108382:	88 4d ec             	mov    %cl,-0x14(%ebp)
c0108385:	88 55 e8             	mov    %dl,-0x18(%ebp)
c0108388:	8b 55 08             	mov    0x8(%ebp),%edx
c010838b:	c1 e2 03             	shl    $0x3,%edx
c010838e:	8d 80 14 6e 00 00    	lea    0x6e14(%eax),%eax
c0108394:	01 d0                	add    %edx,%eax
c0108396:	89 45 fc             	mov    %eax,-0x4(%ebp)
c0108399:	8b 45 0c             	mov    0xc(%ebp),%eax
c010839c:	89 c2                	mov    %eax,%edx
c010839e:	8b 45 fc             	mov    -0x4(%ebp),%eax
c01083a1:	66 89 50 02          	mov    %dx,0x2(%eax)
c01083a5:	8b 45 0c             	mov    0xc(%ebp),%eax
c01083a8:	c1 e8 10             	shr    $0x10,%eax
c01083ab:	89 c2                	mov    %eax,%edx
c01083ad:	8b 45 fc             	mov    -0x4(%ebp),%eax
c01083b0:	88 50 04             	mov    %dl,0x4(%eax)
c01083b3:	8b 45 0c             	mov    0xc(%ebp),%eax
c01083b6:	c1 e8 18             	shr    $0x18,%eax
c01083b9:	89 c2                	mov    %eax,%edx
c01083bb:	8b 45 fc             	mov    -0x4(%ebp),%eax
c01083be:	88 50 07             	mov    %dl,0x7(%eax)
c01083c1:	8b 45 10             	mov    0x10(%ebp),%eax
c01083c4:	89 c2                	mov    %eax,%edx
c01083c6:	8b 45 fc             	mov    -0x4(%ebp),%eax
c01083c9:	66 89 10             	mov    %dx,(%eax)
c01083cc:	8b 45 10             	mov    0x10(%ebp),%eax
c01083cf:	c1 e8 10             	shr    $0x10,%eax
c01083d2:	83 e0 0f             	and    $0xf,%eax
c01083d5:	8b 55 fc             	mov    -0x4(%ebp),%edx
c01083d8:	83 e0 0f             	and    $0xf,%eax
c01083db:	89 c1                	mov    %eax,%ecx
c01083dd:	0f b6 42 06          	movzbl 0x6(%edx),%eax
c01083e1:	83 e0 f0             	and    $0xfffffff0,%eax
c01083e4:	09 c8                	or     %ecx,%eax
c01083e6:	88 42 06             	mov    %al,0x6(%edx)
c01083e9:	8b 45 fc             	mov    -0x4(%ebp),%eax
c01083ec:	0f b6 55 ec          	movzbl -0x14(%ebp),%edx
c01083f0:	88 50 05             	mov    %dl,0x5(%eax)
c01083f3:	0f b6 45 e8          	movzbl -0x18(%ebp),%eax
c01083f7:	83 e0 0f             	and    $0xf,%eax
c01083fa:	89 c2                	mov    %eax,%edx
c01083fc:	8b 45 fc             	mov    -0x4(%ebp),%eax
c01083ff:	89 d1                	mov    %edx,%ecx
c0108401:	c1 e1 04             	shl    $0x4,%ecx
c0108404:	0f b6 50 06          	movzbl 0x6(%eax),%edx
c0108408:	83 e2 0f             	and    $0xf,%edx
c010840b:	09 ca                	or     %ecx,%edx
c010840d:	88 50 06             	mov    %dl,0x6(%eax)
c0108410:	90                   	nop
c0108411:	c9                   	leave
c0108412:	c3                   	ret

c0108413 <fill_gdt>:
c0108413:	55                   	push   %ebp
c0108414:	89 e5                	mov    %esp,%ebp
c0108416:	53                   	push   %ebx
c0108417:	83 ec 04             	sub    $0x4,%esp
c010841a:	e8 1e 66 00 00       	call   c010ea3d <__x86.get_pc_thunk.bx>
c010841f:	81 c3 0d a2 00 00    	add    $0xa20d,%ebx
c0108425:	8d 83 14 6e 00 00    	lea    0x6e14(%ebx),%eax
c010842b:	89 83 46 6e 00 00    	mov    %eax,0x6e46(%ebx)
c0108431:	66 c7 83 44 6e 00 00 	movw   $0x2f,0x6e44(%ebx)
c0108438:	2f 00 
c010843a:	6a 00                	push   $0x0
c010843c:	6a 00                	push   $0x0
c010843e:	6a 00                	push   $0x0
c0108440:	6a 00                	push   $0x0
c0108442:	6a 00                	push   $0x0
c0108444:	e8 23 ff ff ff       	call   c010836c <gdt_fill_entry>
c0108449:	83 c4 14             	add    $0x14,%esp
c010844c:	6a 0c                	push   $0xc
c010844e:	68 9a 00 00 00       	push   $0x9a
c0108453:	6a ff                	push   $0xffffffff
c0108455:	6a 00                	push   $0x0
c0108457:	6a 01                	push   $0x1
c0108459:	e8 0e ff ff ff       	call   c010836c <gdt_fill_entry>
c010845e:	83 c4 14             	add    $0x14,%esp
c0108461:	6a 0c                	push   $0xc
c0108463:	68 92 00 00 00       	push   $0x92
c0108468:	6a ff                	push   $0xffffffff
c010846a:	6a 00                	push   $0x0
c010846c:	6a 02                	push   $0x2
c010846e:	e8 f9 fe ff ff       	call   c010836c <gdt_fill_entry>
c0108473:	83 c4 14             	add    $0x14,%esp
c0108476:	6a 0c                	push   $0xc
c0108478:	68 fa 00 00 00       	push   $0xfa
c010847d:	6a ff                	push   $0xffffffff
c010847f:	6a 00                	push   $0x0
c0108481:	6a 03                	push   $0x3
c0108483:	e8 e4 fe ff ff       	call   c010836c <gdt_fill_entry>
c0108488:	83 c4 14             	add    $0x14,%esp
c010848b:	6a 0c                	push   $0xc
c010848d:	68 f2 00 00 00       	push   $0xf2
c0108492:	6a ff                	push   $0xffffffff
c0108494:	6a 00                	push   $0x0
c0108496:	6a 04                	push   $0x4
c0108498:	e8 cf fe ff ff       	call   c010836c <gdt_fill_entry>
c010849d:	83 c4 14             	add    $0x14,%esp
c01084a0:	c7 c0 00 a0 11 c0    	mov    $0xc011a000,%eax
c01084a6:	6a 00                	push   $0x0
c01084a8:	68 e9 00 00 00       	push   $0xe9
c01084ad:	6a 67                	push   $0x67
c01084af:	50                   	push   %eax
c01084b0:	6a 05                	push   $0x5
c01084b2:	e8 b5 fe ff ff       	call   c010836c <gdt_fill_entry>
c01084b7:	83 c4 14             	add    $0x14,%esp
c01084ba:	8d 83 44 6e 00 00    	lea    0x6e44(%ebx),%eax
c01084c0:	83 ec 0c             	sub    $0xc,%esp
c01084c3:	50                   	push   %eax
c01084c4:	e8 37 ee ff ff       	call   c0107300 <load_gdt>
c01084c9:	83 c4 10             	add    $0x10,%esp
c01084cc:	e8 0d 02 00 00       	call   c01086de <load_tss>
c01084d1:	90                   	nop
c01084d2:	8b 5d fc             	mov    -0x4(%ebp),%ebx
c01084d5:	c9                   	leave
c01084d6:	c3                   	ret

c01084d7 <gdt_init>:
c01084d7:	55                   	push   %ebp
c01084d8:	89 e5                	mov    %esp,%ebp
c01084da:	53                   	push   %ebx
c01084db:	83 ec 04             	sub    $0x4,%esp
c01084de:	e8 5a 65 00 00       	call   c010ea3d <__x86.get_pc_thunk.bx>
c01084e3:	81 c3 49 a1 00 00    	add    $0xa149,%ebx
c01084e9:	e8 6d fe ff ff       	call   c010835b <cli>
c01084ee:	e8 20 ff ff ff       	call   c0108413 <fill_gdt>
c01084f3:	83 ec 0c             	sub    $0xc,%esp
c01084f6:	8d 83 2c ca ff ff    	lea    -0x35d4(%ebx),%eax
c01084fc:	50                   	push   %eax
c01084fd:	e8 de 32 00 00       	call   c010b7e0 <klog>
c0108502:	83 c4 10             	add    $0x10,%esp
c0108505:	90                   	nop
c0108506:	8b 5d fc             	mov    -0x4(%ebp),%ebx
c0108509:	c9                   	leave
c010850a:	c3                   	ret

c010850b <cli>:
c010850b:	55                   	push   %ebp
c010850c:	89 e5                	mov    %esp,%ebp
c010850e:	e8 26 65 00 00       	call   c010ea39 <__x86.get_pc_thunk.ax>
c0108513:	05 19 a1 00 00       	add    $0xa119,%eax
c0108518:	fa                   	cli
c0108519:	90                   	nop
c010851a:	5d                   	pop    %ebp
c010851b:	c3                   	ret

c010851c <halt>:
c010851c:	55                   	push   %ebp
c010851d:	89 e5                	mov    %esp,%ebp
c010851f:	e8 15 65 00 00       	call   c010ea39 <__x86.get_pc_thunk.ax>
c0108524:	05 08 a1 00 00       	add    $0xa108,%eax
c0108529:	f4                   	hlt
c010852a:	90                   	nop
c010852b:	5d                   	pop    %ebp
c010852c:	c3                   	ret

c010852d <reboot>:
c010852d:	55                   	push   %ebp
c010852e:	89 e5                	mov    %esp,%ebp
c0108530:	53                   	push   %ebx
c0108531:	83 ec 14             	sub    $0x14,%esp
c0108534:	e8 04 65 00 00       	call   c010ea3d <__x86.get_pc_thunk.bx>
c0108539:	81 c3 f3 a0 00 00    	add    $0xa0f3,%ebx
c010853f:	e8 c7 ff ff ff       	call   c010850b <cli>
c0108544:	e8 d7 04 00 00       	call   c0108a20 <ps2_read_status>
c0108549:	88 45 f7             	mov    %al,-0x9(%ebp)
c010854c:	eb 08                	jmp    c0108556 <reboot+0x29>
c010854e:	e8 f2 04 00 00       	call   c0108a45 <ps2_read_data>
c0108553:	88 45 f7             	mov    %al,-0x9(%ebp)
c0108556:	0f b6 45 f7          	movzbl -0x9(%ebp),%eax
c010855a:	83 e0 01             	and    $0x1,%eax
c010855d:	85 c0                	test   %eax,%eax
c010855f:	75 ed                	jne    c010854e <reboot+0x21>
c0108561:	83 ec 0c             	sub    $0xc,%esp
c0108564:	68 fe 00 00 00       	push   $0xfe
c0108569:	e8 fc 04 00 00       	call   c0108a6a <ps2_write_cmd>
c010856e:	83 c4 10             	add    $0x10,%esp
c0108571:	e8 a6 ff ff ff       	call   c010851c <halt>
c0108576:	eb f9                	jmp    c0108571 <reboot+0x44>

c0108578 <error>:
c0108578:	55                   	push   %ebp
c0108579:	89 e5                	mov    %esp,%ebp
c010857b:	53                   	push   %ebx
c010857c:	83 ec 04             	sub    $0x4,%esp
c010857f:	e8 b9 64 00 00       	call   c010ea3d <__x86.get_pc_thunk.bx>
c0108584:	81 c3 a8 a0 00 00    	add    $0xa0a8,%ebx
c010858a:	83 ec 0c             	sub    $0xc,%esp
c010858d:	ff 75 08             	push   0x8(%ebp)
c0108590:	e8 df 32 00 00       	call   c010b874 <klog_error>
c0108595:	83 c4 10             	add    $0x10,%esp
c0108598:	83 ec 0c             	sub    $0xc,%esp
c010859b:	8d 83 3c ca ff ff    	lea    -0x35c4(%ebx),%eax
c01085a1:	50                   	push   %eax
c01085a2:	e8 cd 32 00 00       	call   c010b874 <klog_error>
c01085a7:	83 c4 10             	add    $0x10,%esp
c01085aa:	8b 45 10             	mov    0x10(%ebp),%eax
c01085ad:	83 ec 0c             	sub    $0xc,%esp
c01085b0:	50                   	push   %eax
c01085b1:	e8 68 1e 00 00       	call   c010a41e <fb_print_num>
c01085b6:	83 c4 10             	add    $0x10,%esp
c01085b9:	90                   	nop
c01085ba:	8b 5d fc             	mov    -0x4(%ebp),%ebx
c01085bd:	c9                   	leave
c01085be:	c3                   	ret

c01085bf <panic>:
c01085bf:	55                   	push   %ebp
c01085c0:	89 e5                	mov    %esp,%ebp
c01085c2:	53                   	push   %ebx
c01085c3:	83 ec 04             	sub    $0x4,%esp
c01085c6:	e8 6e 64 00 00       	call   c010ea39 <__x86.get_pc_thunk.ax>
c01085cb:	05 61 a0 00 00       	add    $0xa061,%eax
c01085d0:	83 ec 0c             	sub    $0xc,%esp
c01085d3:	ff 75 08             	push   0x8(%ebp)
c01085d6:	89 c3                	mov    %eax,%ebx
c01085d8:	e8 97 32 00 00       	call   c010b874 <klog_error>
c01085dd:	83 c4 10             	add    $0x10,%esp
c01085e0:	e8 48 ff ff ff       	call   c010852d <reboot>
c01085e5:	b8 00 00 00 00       	mov    $0x0,%eax
c01085ea:	8b 5d fc             	mov    -0x4(%ebp),%ebx
c01085ed:	c9                   	leave
c01085ee:	c3                   	ret

c01085ef <cli>:
c01085ef:	55                   	push   %ebp
c01085f0:	89 e5                	mov    %esp,%ebp
c01085f2:	e8 42 64 00 00       	call   c010ea39 <__x86.get_pc_thunk.ax>
c01085f7:	05 35 a0 00 00       	add    $0xa035,%eax
c01085fc:	fa                   	cli
c01085fd:	90                   	nop
c01085fe:	5d                   	pop    %ebp
c01085ff:	c3                   	ret

c0108600 <halt>:
c0108600:	55                   	push   %ebp
c0108601:	89 e5                	mov    %esp,%ebp
c0108603:	e8 31 64 00 00       	call   c010ea39 <__x86.get_pc_thunk.ax>
c0108608:	05 24 a0 00 00       	add    $0xa024,%eax
c010860d:	f4                   	hlt
c010860e:	90                   	nop
c010860f:	5d                   	pop    %ebp
c0108610:	c3                   	ret

c0108611 <print_multi_boot_data>:
c0108611:	55                   	push   %ebp
c0108612:	89 e5                	mov    %esp,%ebp
c0108614:	53                   	push   %ebx
c0108615:	83 ec 04             	sub    $0x4,%esp
c0108618:	e8 20 64 00 00       	call   c010ea3d <__x86.get_pc_thunk.bx>
c010861d:	81 c3 0f a0 00 00    	add    $0xa00f,%ebx
c0108623:	8b 45 08             	mov    0x8(%ebp),%eax
c0108626:	8b 00                	mov    (%eax),%eax
c0108628:	83 ec 0c             	sub    $0xc,%esp
c010862b:	50                   	push   %eax
c010862c:	e8 73 1f 00 00       	call   c010a5a4 <fb_print_hex>
c0108631:	83 c4 10             	add    $0x10,%esp
c0108634:	8b 45 08             	mov    0x8(%ebp),%eax
c0108637:	8b 40 04             	mov    0x4(%eax),%eax
c010863a:	83 ec 0c             	sub    $0xc,%esp
c010863d:	50                   	push   %eax
c010863e:	e8 61 1f 00 00       	call   c010a5a4 <fb_print_hex>
c0108643:	83 c4 10             	add    $0x10,%esp
c0108646:	8b 45 08             	mov    0x8(%ebp),%eax
c0108649:	8b 40 08             	mov    0x8(%eax),%eax
c010864c:	83 ec 0c             	sub    $0xc,%esp
c010864f:	50                   	push   %eax
c0108650:	e8 4f 1f 00 00       	call   c010a5a4 <fb_print_hex>
c0108655:	83 c4 10             	add    $0x10,%esp
c0108658:	8b 45 08             	mov    0x8(%ebp),%eax
c010865b:	8b 40 10             	mov    0x10(%eax),%eax
c010865e:	83 ec 0c             	sub    $0xc,%esp
c0108661:	50                   	push   %eax
c0108662:	e8 3d 1f 00 00       	call   c010a5a4 <fb_print_hex>
c0108667:	83 c4 10             	add    $0x10,%esp
c010866a:	90                   	nop
c010866b:	8b 5d fc             	mov    -0x4(%ebp),%ebx
c010866e:	c9                   	leave
c010866f:	c3                   	ret

c0108670 <kernel_main>:
c0108670:	55                   	push   %ebp
c0108671:	89 e5                	mov    %esp,%ebp
c0108673:	53                   	push   %ebx
c0108674:	83 ec 04             	sub    $0x4,%esp
c0108677:	e8 c1 63 00 00       	call   c010ea3d <__x86.get_pc_thunk.bx>
c010867c:	81 c3 b0 9f 00 00    	add    $0x9fb0,%ebx
c0108682:	e8 f4 21 00 00       	call   c010a87b <fb_clear>
c0108687:	e8 4b fe ff ff       	call   c01084d7 <gdt_init>
c010868c:	e8 3c fa ff ff       	call   c01080cd <idt_init>
c0108691:	8b 45 08             	mov    0x8(%ebp),%eax
c0108694:	8b 40 08             	mov    0x8(%eax),%eax
c0108697:	c1 e0 0a             	shl    $0xa,%eax
c010869a:	83 ec 0c             	sub    $0xc,%esp
c010869d:	50                   	push   %eax
c010869e:	e8 5b 3c 00 00       	call   c010c2fe <paging_init>
c01086a3:	83 c4 10             	add    $0x10,%esp
c01086a6:	e8 27 26 00 00       	call   c010acd2 <serial_init>
c01086ab:	e8 83 07 00 00       	call   c0108e33 <kbd_init>
c01086b0:	e8 06 05 00 00       	call   c0108bbb <ps2_init>
c01086b5:	83 ec 0c             	sub    $0xc,%esp
c01086b8:	6a 00                	push   $0x0
c01086ba:	e8 d5 0e 00 00       	call   c0109594 <pit_init>
c01086bf:	83 c4 10             	add    $0x10,%esp
c01086c2:	e8 b7 0b 00 00       	call   c010927e <rtc_init>
c01086c7:	e8 0b f9 ff ff       	call   c0107fd7 <syscall_init>
c01086cc:	e8 e4 0f 00 00       	call   c01096b5 <apic_init>
c01086d1:	e8 19 ff ff ff       	call   c01085ef <cli>
c01086d6:	e8 25 ff ff ff       	call   c0108600 <halt>
c01086db:	90                   	nop
c01086dc:	eb f3                	jmp    c01086d1 <kernel_main+0x61>

c01086de <load_tss>:
c01086de:	55                   	push   %ebp
c01086df:	89 e5                	mov    %esp,%ebp
c01086e1:	53                   	push   %ebx
c01086e2:	83 ec 04             	sub    $0x4,%esp
c01086e5:	e8 53 63 00 00       	call   c010ea3d <__x86.get_pc_thunk.bx>
c01086ea:	81 c3 42 9f 00 00    	add    $0x9f42,%ebx
c01086f0:	83 ec 04             	sub    $0x4,%esp
c01086f3:	6a 68                	push   $0x68
c01086f5:	6a 00                	push   $0x0
c01086f7:	8d 83 d4 79 00 00    	lea    0x79d4(%ebx),%eax
c01086fd:	50                   	push   %eax
c01086fe:	e8 a3 31 00 00       	call   c010b8a6 <memset>
c0108703:	83 c4 10             	add    $0x10,%esp
c0108706:	66 c7 83 3a 7a 00 00 	movw   $0x68,0x7a3a(%ebx)
c010870d:	68 00 
c010870f:	c7 83 dc 79 00 00 10 	movl   $0x10,0x79dc(%ebx)
c0108716:	00 00 00 
c0108719:	c7 c0 00 48 11 c0    	mov    $0xc0114800,%eax
c010871f:	8b 00                	mov    (%eax),%eax
c0108721:	89 83 d8 79 00 00    	mov    %eax,0x79d8(%ebx)
c0108727:	c7 83 20 7a 00 00 0b 	movl   $0xb,0x7a20(%ebx)
c010872e:	00 00 00 
c0108731:	c7 83 30 7a 00 00 13 	movl   $0x13,0x7a30(%ebx)
c0108738:	00 00 00 
c010873b:	8b 83 30 7a 00 00    	mov    0x7a30(%ebx),%eax
c0108741:	89 83 2c 7a 00 00    	mov    %eax,0x7a2c(%ebx)
c0108747:	8b 83 2c 7a 00 00    	mov    0x7a2c(%ebx),%eax
c010874d:	89 83 1c 7a 00 00    	mov    %eax,0x7a1c(%ebx)
c0108753:	8b 83 1c 7a 00 00    	mov    0x7a1c(%ebx),%eax
c0108759:	89 83 28 7a 00 00    	mov    %eax,0x7a28(%ebx)
c010875f:	8b 83 28 7a 00 00    	mov    0x7a28(%ebx),%eax
c0108765:	89 83 24 7a 00 00    	mov    %eax,0x7a24(%ebx)
c010876b:	e8 e3 fb ff ff       	call   c0108353 <ltr>
c0108770:	90                   	nop
c0108771:	8b 5d fc             	mov    -0x4(%ebp),%ebx
c0108774:	c9                   	leave
c0108775:	c3                   	ret

c0108776 <set_kernel_stack>:
c0108776:	55                   	push   %ebp
c0108777:	89 e5                	mov    %esp,%ebp
c0108779:	e8 bb 62 00 00       	call   c010ea39 <__x86.get_pc_thunk.ax>
c010877e:	05 ae 9e 00 00       	add    $0x9eae,%eax
c0108783:	8b 55 08             	mov    0x8(%ebp),%edx
c0108786:	89 90 d8 79 00 00    	mov    %edx,0x79d8(%eax)
c010878c:	90                   	nop
c010878d:	5d                   	pop    %ebp
c010878e:	c3                   	ret
c010878f:	90                   	nop

c0108790 <some>:
c0108790:	50                   	push   %eax
c0108791:	53                   	push   %ebx
c0108792:	31 c0                	xor    %eax,%eax
c0108794:	b8 0f 00 00 00       	mov    $0xf,%eax
c0108799:	c1 e0 10             	shl    $0x10,%eax
c010879c:	bb 03 00 00 00       	mov    $0x3,%ebx
c01087a1:	c1 e3 18             	shl    $0x18,%ebx
c01087a4:	09 d8                	or     %ebx,%eax
c01087a6:	83 c8 61             	or     $0x61,%eax
c01087a9:	50                   	push   %eax
c01087aa:	e8 f4 19 00 00       	call   c010a1a3 <fb_put_pixel>
c01087af:	58                   	pop    %eax
c01087b0:	5b                   	pop    %ebx
c01087b1:	58                   	pop    %eax
c01087b2:	c3                   	ret

c01087b3 <general_handler>:
c01087b3:	55                   	push   %ebp
c01087b4:	89 e5                	mov    %esp,%ebp
c01087b6:	53                   	push   %ebx
c01087b7:	83 ec 04             	sub    $0x4,%esp
c01087ba:	e8 7a 62 00 00       	call   c010ea39 <__x86.get_pc_thunk.ax>
c01087bf:	05 6d 9e 00 00       	add    $0x9e6d,%eax
c01087c4:	8b 4d 10             	mov    0x10(%ebp),%ecx
c01087c7:	8b 90 3c 7a 00 00    	mov    0x7a3c(%eax),%edx
c01087cd:	39 d1                	cmp    %edx,%ecx
c01087cf:	74 1b                	je     c01087ec <general_handler+0x39>
c01087d1:	8b 55 10             	mov    0x10(%ebp),%edx
c01087d4:	89 90 3c 7a 00 00    	mov    %edx,0x7a3c(%eax)
c01087da:	83 ec 0c             	sub    $0xc,%esp
c01087dd:	ff 75 14             	push   0x14(%ebp)
c01087e0:	89 c3                	mov    %eax,%ebx
c01087e2:	e8 8d 30 00 00       	call   c010b874 <klog_error>
c01087e7:	83 c4 10             	add    $0x10,%esp
c01087ea:	eb 01                	jmp    c01087ed <general_handler+0x3a>
c01087ec:	90                   	nop
c01087ed:	8b 5d fc             	mov    -0x4(%ebp),%ebx
c01087f0:	c9                   	leave
c01087f1:	c3                   	ret

c01087f2 <gp_fault>:
c01087f2:	55                   	push   %ebp
c01087f3:	89 e5                	mov    %esp,%ebp
c01087f5:	83 ec 08             	sub    $0x8,%esp
c01087f8:	e8 3c 62 00 00       	call   c010ea39 <__x86.get_pc_thunk.ax>
c01087fd:	05 2f 9e 00 00       	add    $0x9e2f,%eax
c0108802:	8d 80 49 ca ff ff    	lea    -0x35b7(%eax),%eax
c0108808:	50                   	push   %eax
c0108809:	83 ec 0c             	sub    $0xc,%esp
c010880c:	89 e1                	mov    %esp,%ecx
c010880e:	8b 45 08             	mov    0x8(%ebp),%eax
c0108811:	8b 55 0c             	mov    0xc(%ebp),%edx
c0108814:	89 01                	mov    %eax,(%ecx)
c0108816:	89 51 04             	mov    %edx,0x4(%ecx)
c0108819:	8b 45 10             	mov    0x10(%ebp),%eax
c010881c:	89 41 08             	mov    %eax,0x8(%ecx)
c010881f:	e8 8f ff ff ff       	call   c01087b3 <general_handler>
c0108824:	83 c4 10             	add    $0x10,%esp
c0108827:	90                   	nop
c0108828:	c9                   	leave
c0108829:	c3                   	ret

c010882a <invalid_tss_handler>:
c010882a:	55                   	push   %ebp
c010882b:	89 e5                	mov    %esp,%ebp
c010882d:	83 ec 08             	sub    $0x8,%esp
c0108830:	e8 04 62 00 00       	call   c010ea39 <__x86.get_pc_thunk.ax>
c0108835:	05 f7 9d 00 00       	add    $0x9df7,%eax
c010883a:	8d 80 5b ca ff ff    	lea    -0x35a5(%eax),%eax
c0108840:	50                   	push   %eax
c0108841:	83 ec 0c             	sub    $0xc,%esp
c0108844:	89 e1                	mov    %esp,%ecx
c0108846:	8b 45 08             	mov    0x8(%ebp),%eax
c0108849:	8b 55 0c             	mov    0xc(%ebp),%edx
c010884c:	89 01                	mov    %eax,(%ecx)
c010884e:	89 51 04             	mov    %edx,0x4(%ecx)
c0108851:	8b 45 10             	mov    0x10(%ebp),%eax
c0108854:	89 41 08             	mov    %eax,0x8(%ecx)
c0108857:	e8 57 ff ff ff       	call   c01087b3 <general_handler>
c010885c:	83 c4 10             	add    $0x10,%esp
c010885f:	90                   	nop
c0108860:	c9                   	leave
c0108861:	c3                   	ret

c0108862 <invalid_opcode>:
c0108862:	55                   	push   %ebp
c0108863:	89 e5                	mov    %esp,%ebp
c0108865:	83 ec 08             	sub    $0x8,%esp
c0108868:	e8 cc 61 00 00       	call   c010ea39 <__x86.get_pc_thunk.ax>
c010886d:	05 bf 9d 00 00       	add    $0x9dbf,%eax
c0108872:	8d 80 68 ca ff ff    	lea    -0x3598(%eax),%eax
c0108878:	50                   	push   %eax
c0108879:	83 ec 0c             	sub    $0xc,%esp
c010887c:	89 e1                	mov    %esp,%ecx
c010887e:	8b 45 08             	mov    0x8(%ebp),%eax
c0108881:	8b 55 0c             	mov    0xc(%ebp),%edx
c0108884:	89 01                	mov    %eax,(%ecx)
c0108886:	89 51 04             	mov    %edx,0x4(%ecx)
c0108889:	8b 45 10             	mov    0x10(%ebp),%eax
c010888c:	89 41 08             	mov    %eax,0x8(%ecx)
c010888f:	e8 1f ff ff ff       	call   c01087b3 <general_handler>
c0108894:	83 c4 10             	add    $0x10,%esp
c0108897:	90                   	nop
c0108898:	c9                   	leave
c0108899:	c3                   	ret

c010889a <spurious_handler>:
c010889a:	55                   	push   %ebp
c010889b:	89 e5                	mov    %esp,%ebp
c010889d:	83 ec 08             	sub    $0x8,%esp
c01088a0:	e8 94 61 00 00       	call   c010ea39 <__x86.get_pc_thunk.ax>
c01088a5:	05 87 9d 00 00       	add    $0x9d87,%eax
c01088aa:	8d 80 78 ca ff ff    	lea    -0x3588(%eax),%eax
c01088b0:	50                   	push   %eax
c01088b1:	83 ec 0c             	sub    $0xc,%esp
c01088b4:	89 e1                	mov    %esp,%ecx
c01088b6:	8b 45 08             	mov    0x8(%ebp),%eax
c01088b9:	8b 55 0c             	mov    0xc(%ebp),%edx
c01088bc:	89 01                	mov    %eax,(%ecx)
c01088be:	89 51 04             	mov    %edx,0x4(%ecx)
c01088c1:	8b 45 10             	mov    0x10(%ebp),%eax
c01088c4:	89 41 08             	mov    %eax,0x8(%ecx)
c01088c7:	e8 e7 fe ff ff       	call   c01087b3 <general_handler>
c01088cc:	83 c4 10             	add    $0x10,%esp
c01088cf:	90                   	nop
c01088d0:	c9                   	leave
c01088d1:	c3                   	ret

c01088d2 <exception_handlers_init>:
c01088d2:	55                   	push   %ebp
c01088d3:	89 e5                	mov    %esp,%ebp
c01088d5:	53                   	push   %ebx
c01088d6:	83 ec 04             	sub    $0x4,%esp
c01088d9:	e8 5f 61 00 00       	call   c010ea3d <__x86.get_pc_thunk.bx>
c01088de:	81 c3 4e 9d 00 00    	add    $0x9d4e,%ebx
c01088e4:	83 ec 04             	sub    $0x4,%esp
c01088e7:	6a 00                	push   $0x0
c01088e9:	8d 83 36 62 ff ff    	lea    -0x9dca(%ebx),%eax
c01088ef:	50                   	push   %eax
c01088f0:	6a 06                	push   $0x6
c01088f2:	e8 cb f8 ff ff       	call   c01081c2 <add_isr_handler>
c01088f7:	83 c4 10             	add    $0x10,%esp
c01088fa:	83 ec 04             	sub    $0x4,%esp
c01088fd:	6a 00                	push   $0x0
c01088ff:	8d 83 6e 62 ff ff    	lea    -0x9d92(%ebx),%eax
c0108905:	50                   	push   %eax
c0108906:	6a 07                	push   $0x7
c0108908:	e8 b5 f8 ff ff       	call   c01081c2 <add_isr_handler>
c010890d:	83 c4 10             	add    $0x10,%esp
c0108910:	83 ec 04             	sub    $0x4,%esp
c0108913:	6a 00                	push   $0x0
c0108915:	8d 83 fe 61 ff ff    	lea    -0x9e02(%ebx),%eax
c010891b:	50                   	push   %eax
c010891c:	6a 0a                	push   $0xa
c010891e:	e8 9f f8 ff ff       	call   c01081c2 <add_isr_handler>
c0108923:	83 c4 10             	add    $0x10,%esp
c0108926:	83 ec 04             	sub    $0x4,%esp
c0108929:	6a 00                	push   $0x0
c010892b:	8d 83 c6 61 ff ff    	lea    -0x9e3a(%ebx),%eax
c0108931:	50                   	push   %eax
c0108932:	6a 0d                	push   $0xd
c0108934:	e8 89 f8 ff ff       	call   c01081c2 <add_isr_handler>
c0108939:	83 c4 10             	add    $0x10,%esp
c010893c:	90                   	nop
c010893d:	8b 5d fc             	mov    -0x4(%ebp),%ebx
c0108940:	c9                   	leave
c0108941:	c3                   	ret

c0108942 <cmos_select_reg>:
c0108942:	55                   	push   %ebp
c0108943:	89 e5                	mov    %esp,%ebp
c0108945:	53                   	push   %ebx
c0108946:	83 ec 14             	sub    $0x14,%esp
c0108949:	e8 ef 60 00 00       	call   c010ea3d <__x86.get_pc_thunk.bx>
c010894e:	81 c3 de 9c 00 00    	add    $0x9cde,%ebx
c0108954:	8b 45 08             	mov    0x8(%ebp),%eax
c0108957:	88 45 f4             	mov    %al,-0xc(%ebp)
c010895a:	0f b6 45 f4          	movzbl -0xc(%ebp),%eax
c010895e:	83 ec 08             	sub    $0x8,%esp
c0108961:	50                   	push   %eax
c0108962:	6a 70                	push   $0x70
c0108964:	e8 da 2f 00 00       	call   c010b943 <outb>
c0108969:	83 c4 10             	add    $0x10,%esp
c010896c:	83 ec 0c             	sub    $0xc,%esp
c010896f:	6a 32                	push   $0x32
c0108971:	e8 66 0b 00 00       	call   c01094dc <sleep_ms>
c0108976:	83 c4 10             	add    $0x10,%esp
c0108979:	90                   	nop
c010897a:	8b 5d fc             	mov    -0x4(%ebp),%ebx
c010897d:	c9                   	leave
c010897e:	c3                   	ret

c010897f <cmos_read_data>:
c010897f:	55                   	push   %ebp
c0108980:	89 e5                	mov    %esp,%ebp
c0108982:	53                   	push   %ebx
c0108983:	83 ec 04             	sub    $0x4,%esp
c0108986:	e8 ae 60 00 00       	call   c010ea39 <__x86.get_pc_thunk.ax>
c010898b:	05 a1 9c 00 00       	add    $0x9ca1,%eax
c0108990:	83 ec 0c             	sub    $0xc,%esp
c0108993:	6a 71                	push   $0x71
c0108995:	89 c3                	mov    %eax,%ebx
c0108997:	e8 d0 2f 00 00       	call   c010b96c <inb>
c010899c:	83 c4 10             	add    $0x10,%esp
c010899f:	8b 5d fc             	mov    -0x4(%ebp),%ebx
c01089a2:	c9                   	leave
c01089a3:	c3                   	ret

c01089a4 <cmos_write_data>:
c01089a4:	55                   	push   %ebp
c01089a5:	89 e5                	mov    %esp,%ebp
c01089a7:	53                   	push   %ebx
c01089a8:	83 ec 14             	sub    $0x14,%esp
c01089ab:	e8 8d 60 00 00       	call   c010ea3d <__x86.get_pc_thunk.bx>
c01089b0:	81 c3 7c 9c 00 00    	add    $0x9c7c,%ebx
c01089b6:	8b 45 08             	mov    0x8(%ebp),%eax
c01089b9:	88 45 f4             	mov    %al,-0xc(%ebp)
c01089bc:	0f b6 45 f4          	movzbl -0xc(%ebp),%eax
c01089c0:	83 ec 08             	sub    $0x8,%esp
c01089c3:	50                   	push   %eax
c01089c4:	6a 71                	push   $0x71
c01089c6:	e8 78 2f 00 00       	call   c010b943 <outb>
c01089cb:	83 c4 10             	add    $0x10,%esp
c01089ce:	e8 7e 31 00 00       	call   c010bb51 <io_wait>
c01089d3:	90                   	nop
c01089d4:	8b 5d fc             	mov    -0x4(%ebp),%ebx
c01089d7:	c9                   	leave
c01089d8:	c3                   	ret
c01089d9:	66 90                	xchg   %ax,%ax
c01089db:	66 90                	xchg   %ax,%ax
c01089dd:	66 90                	xchg   %ax,%ax
c01089df:	90                   	nop

c01089e0 <enter_v86>:
c01089e0:	9c                   	pushf
c01089e1:	81 0c 24 00 00 02 00 	orl    $0x20000,(%esp)
c01089e8:	9d                   	popf

c01089e9 <fprintf>:
c01089e9:	55                   	push   %ebp
c01089ea:	89 e5                	mov    %esp,%ebp
c01089ec:	53                   	push   %ebx
c01089ed:	83 ec 04             	sub    $0x4,%esp
c01089f0:	e8 44 60 00 00       	call   c010ea39 <__x86.get_pc_thunk.ax>
c01089f5:	05 37 9c 00 00       	add    $0x9c37,%eax
c01089fa:	83 ec 0c             	sub    $0xc,%esp
c01089fd:	ff 75 18             	push   0x18(%ebp)
c0108a00:	89 c3                	mov    %eax,%ebx
c0108a02:	e8 19 18 00 00       	call   c010a220 <fb_print_black>
c0108a07:	83 c4 10             	add    $0x10,%esp
c0108a0a:	90                   	nop
c0108a0b:	8b 5d fc             	mov    -0x4(%ebp),%ebx
c0108a0e:	c9                   	leave
c0108a0f:	c3                   	ret

c0108a10 <flush>:
c0108a10:	55                   	push   %ebp
c0108a11:	89 e5                	mov    %esp,%ebp
c0108a13:	e8 21 60 00 00       	call   c010ea39 <__x86.get_pc_thunk.ax>
c0108a18:	05 14 9c 00 00       	add    $0x9c14,%eax
c0108a1d:	90                   	nop
c0108a1e:	5d                   	pop    %ebp
c0108a1f:	c3                   	ret

c0108a20 <ps2_read_status>:
c0108a20:	55                   	push   %ebp
c0108a21:	89 e5                	mov    %esp,%ebp
c0108a23:	53                   	push   %ebx
c0108a24:	83 ec 04             	sub    $0x4,%esp
c0108a27:	e8 0d 60 00 00       	call   c010ea39 <__x86.get_pc_thunk.ax>
c0108a2c:	05 00 9c 00 00       	add    $0x9c00,%eax
c0108a31:	83 ec 0c             	sub    $0xc,%esp
c0108a34:	6a 64                	push   $0x64
c0108a36:	89 c3                	mov    %eax,%ebx
c0108a38:	e8 2f 2f 00 00       	call   c010b96c <inb>
c0108a3d:	83 c4 10             	add    $0x10,%esp
c0108a40:	8b 5d fc             	mov    -0x4(%ebp),%ebx
c0108a43:	c9                   	leave
c0108a44:	c3                   	ret

c0108a45 <ps2_read_data>:
c0108a45:	55                   	push   %ebp
c0108a46:	89 e5                	mov    %esp,%ebp
c0108a48:	53                   	push   %ebx
c0108a49:	83 ec 04             	sub    $0x4,%esp
c0108a4c:	e8 e8 5f 00 00       	call   c010ea39 <__x86.get_pc_thunk.ax>
c0108a51:	05 db 9b 00 00       	add    $0x9bdb,%eax
c0108a56:	83 ec 0c             	sub    $0xc,%esp
c0108a59:	6a 60                	push   $0x60
c0108a5b:	89 c3                	mov    %eax,%ebx
c0108a5d:	e8 0a 2f 00 00       	call   c010b96c <inb>
c0108a62:	83 c4 10             	add    $0x10,%esp
c0108a65:	8b 5d fc             	mov    -0x4(%ebp),%ebx
c0108a68:	c9                   	leave
c0108a69:	c3                   	ret

c0108a6a <ps2_write_cmd>:
c0108a6a:	55                   	push   %ebp
c0108a6b:	89 e5                	mov    %esp,%ebp
c0108a6d:	53                   	push   %ebx
c0108a6e:	83 ec 14             	sub    $0x14,%esp
c0108a71:	e8 c7 5f 00 00       	call   c010ea3d <__x86.get_pc_thunk.bx>
c0108a76:	81 c3 b6 9b 00 00    	add    $0x9bb6,%ebx
c0108a7c:	8b 45 08             	mov    0x8(%ebp),%eax
c0108a7f:	88 45 f4             	mov    %al,-0xc(%ebp)
c0108a82:	0f b6 45 f4          	movzbl -0xc(%ebp),%eax
c0108a86:	83 ec 08             	sub    $0x8,%esp
c0108a89:	50                   	push   %eax
c0108a8a:	6a 64                	push   $0x64
c0108a8c:	e8 b2 2e 00 00       	call   c010b943 <outb>
c0108a91:	83 c4 10             	add    $0x10,%esp
c0108a94:	e8 b8 30 00 00       	call   c010bb51 <io_wait>
c0108a99:	90                   	nop
c0108a9a:	8b 5d fc             	mov    -0x4(%ebp),%ebx
c0108a9d:	c9                   	leave
c0108a9e:	c3                   	ret

c0108a9f <ps2_handler>:
c0108a9f:	55                   	push   %ebp
c0108aa0:	89 e5                	mov    %esp,%ebp
c0108aa2:	53                   	push   %ebx
c0108aa3:	83 ec 14             	sub    $0x14,%esp
c0108aa6:	e8 92 5f 00 00       	call   c010ea3d <__x86.get_pc_thunk.bx>
c0108aab:	81 c3 81 9b 00 00    	add    $0x9b81,%ebx
c0108ab1:	83 ec 0c             	sub    $0xc,%esp
c0108ab4:	8d 83 8d ca ff ff    	lea    -0x3573(%ebx),%eax
c0108aba:	50                   	push   %eax
c0108abb:	e8 60 17 00 00       	call   c010a220 <fb_print_black>
c0108ac0:	83 c4 10             	add    $0x10,%esp
c0108ac3:	83 ec 0c             	sub    $0xc,%esp
c0108ac6:	6a 64                	push   $0x64
c0108ac8:	e8 9f 2e 00 00       	call   c010b96c <inb>
c0108acd:	83 c4 10             	add    $0x10,%esp
c0108ad0:	88 45 f7             	mov    %al,-0x9(%ebp)
c0108ad3:	90                   	nop
c0108ad4:	8b 5d fc             	mov    -0x4(%ebp),%ebx
c0108ad7:	c9                   	leave
c0108ad8:	c3                   	ret

c0108ad9 <ps2_wait_read>:
c0108ad9:	55                   	push   %ebp
c0108ada:	89 e5                	mov    %esp,%ebp
c0108adc:	53                   	push   %ebx
c0108add:	83 ec 04             	sub    $0x4,%esp
c0108ae0:	e8 58 5f 00 00       	call   c010ea3d <__x86.get_pc_thunk.bx>
c0108ae5:	81 c3 47 9b 00 00    	add    $0x9b47,%ebx
c0108aeb:	eb 02                	jmp    c0108aef <ps2_wait_read+0x16>
c0108aed:	f3 90                	pause
c0108aef:	83 ec 0c             	sub    $0xc,%esp
c0108af2:	6a 64                	push   $0x64
c0108af4:	e8 73 2e 00 00       	call   c010b96c <inb>
c0108af9:	83 c4 10             	add    $0x10,%esp
c0108afc:	0f b6 c0             	movzbl %al,%eax
c0108aff:	83 e0 01             	and    $0x1,%eax
c0108b02:	85 c0                	test   %eax,%eax
c0108b04:	74 e7                	je     c0108aed <ps2_wait_read+0x14>
c0108b06:	e8 5e 17 00 00       	call   c010a269 <fb_newline>
c0108b0b:	83 ec 0c             	sub    $0xc,%esp
c0108b0e:	6a 64                	push   $0x64
c0108b10:	e8 57 2e 00 00       	call   c010b96c <inb>
c0108b15:	83 c4 10             	add    $0x10,%esp
c0108b18:	0f b6 c0             	movzbl %al,%eax
c0108b1b:	83 ec 0c             	sub    $0xc,%esp
c0108b1e:	50                   	push   %eax
c0108b1f:	e8 fa 18 00 00       	call   c010a41e <fb_print_num>
c0108b24:	83 c4 10             	add    $0x10,%esp
c0108b27:	e8 3d 17 00 00       	call   c010a269 <fb_newline>
c0108b2c:	83 ec 0c             	sub    $0xc,%esp
c0108b2f:	6a 60                	push   $0x60
c0108b31:	e8 36 2e 00 00       	call   c010b96c <inb>
c0108b36:	83 c4 10             	add    $0x10,%esp
c0108b39:	8b 5d fc             	mov    -0x4(%ebp),%ebx
c0108b3c:	c9                   	leave
c0108b3d:	c3                   	ret

c0108b3e <mouse_wait>:
c0108b3e:	55                   	push   %ebp
c0108b3f:	89 e5                	mov    %esp,%ebp
c0108b41:	53                   	push   %ebx
c0108b42:	83 ec 24             	sub    $0x24,%esp
c0108b45:	e8 f3 5e 00 00       	call   c010ea3d <__x86.get_pc_thunk.bx>
c0108b4a:	81 c3 e2 9a 00 00    	add    $0x9ae2,%ebx
c0108b50:	8b 45 08             	mov    0x8(%ebp),%eax
c0108b53:	88 45 e4             	mov    %al,-0x1c(%ebp)
c0108b56:	c7 45 f4 a0 86 01 00 	movl   $0x186a0,-0xc(%ebp)
c0108b5d:	80 7d e4 00          	cmpb   $0x0,-0x1c(%ebp)
c0108b61:	75 40                	jne    c0108ba3 <mouse_wait+0x65>
c0108b63:	eb 18                	jmp    c0108b7d <mouse_wait+0x3f>
c0108b65:	83 ec 0c             	sub    $0xc,%esp
c0108b68:	6a 64                	push   $0x64
c0108b6a:	e8 fd 2d 00 00       	call   c010b96c <inb>
c0108b6f:	83 c4 10             	add    $0x10,%esp
c0108b72:	0f b6 c0             	movzbl %al,%eax
c0108b75:	83 e0 01             	and    $0x1,%eax
c0108b78:	83 f8 01             	cmp    $0x1,%eax
c0108b7b:	74 35                	je     c0108bb2 <mouse_wait+0x74>
c0108b7d:	8b 45 f4             	mov    -0xc(%ebp),%eax
c0108b80:	8d 50 ff             	lea    -0x1(%eax),%edx
c0108b83:	89 55 f4             	mov    %edx,-0xc(%ebp)
c0108b86:	85 c0                	test   %eax,%eax
c0108b88:	75 db                	jne    c0108b65 <mouse_wait+0x27>
c0108b8a:	eb 2a                	jmp    c0108bb6 <mouse_wait+0x78>
c0108b8c:	83 ec 0c             	sub    $0xc,%esp
c0108b8f:	6a 64                	push   $0x64
c0108b91:	e8 d6 2d 00 00       	call   c010b96c <inb>
c0108b96:	83 c4 10             	add    $0x10,%esp
c0108b99:	0f b6 c0             	movzbl %al,%eax
c0108b9c:	83 e0 02             	and    $0x2,%eax
c0108b9f:	85 c0                	test   %eax,%eax
c0108ba1:	74 12                	je     c0108bb5 <mouse_wait+0x77>
c0108ba3:	8b 45 f4             	mov    -0xc(%ebp),%eax
c0108ba6:	8d 50 ff             	lea    -0x1(%eax),%edx
c0108ba9:	89 55 f4             	mov    %edx,-0xc(%ebp)
c0108bac:	85 c0                	test   %eax,%eax
c0108bae:	75 dc                	jne    c0108b8c <mouse_wait+0x4e>
c0108bb0:	eb 04                	jmp    c0108bb6 <mouse_wait+0x78>
c0108bb2:	90                   	nop
c0108bb3:	eb 01                	jmp    c0108bb6 <mouse_wait+0x78>
c0108bb5:	90                   	nop
c0108bb6:	8b 5d fc             	mov    -0x4(%ebp),%ebx
c0108bb9:	c9                   	leave
c0108bba:	c3                   	ret

c0108bbb <ps2_init>:
c0108bbb:	55                   	push   %ebp
c0108bbc:	89 e5                	mov    %esp,%ebp
c0108bbe:	53                   	push   %ebx
c0108bbf:	83 ec 14             	sub    $0x14,%esp
c0108bc2:	e8 76 5e 00 00       	call   c010ea3d <__x86.get_pc_thunk.bx>
c0108bc7:	81 c3 65 9a 00 00    	add    $0x9a65,%ebx
c0108bcd:	83 ec 0c             	sub    $0xc,%esp
c0108bd0:	6a 01                	push   $0x1
c0108bd2:	e8 67 ff ff ff       	call   c0108b3e <mouse_wait>
c0108bd7:	83 c4 10             	add    $0x10,%esp
c0108bda:	83 ec 08             	sub    $0x8,%esp
c0108bdd:	68 a8 00 00 00       	push   $0xa8
c0108be2:	6a 64                	push   $0x64
c0108be4:	e8 5a 2d 00 00       	call   c010b943 <outb>
c0108be9:	83 c4 10             	add    $0x10,%esp
c0108bec:	83 ec 0c             	sub    $0xc,%esp
c0108bef:	6a 01                	push   $0x1
c0108bf1:	e8 48 ff ff ff       	call   c0108b3e <mouse_wait>
c0108bf6:	83 c4 10             	add    $0x10,%esp
c0108bf9:	83 ec 08             	sub    $0x8,%esp
c0108bfc:	6a 20                	push   $0x20
c0108bfe:	6a 64                	push   $0x64
c0108c00:	e8 3e 2d 00 00       	call   c010b943 <outb>
c0108c05:	83 c4 10             	add    $0x10,%esp
c0108c08:	83 ec 0c             	sub    $0xc,%esp
c0108c0b:	6a 00                	push   $0x0
c0108c0d:	e8 2c ff ff ff       	call   c0108b3e <mouse_wait>
c0108c12:	83 c4 10             	add    $0x10,%esp
c0108c15:	83 ec 0c             	sub    $0xc,%esp
c0108c18:	6a 60                	push   $0x60
c0108c1a:	e8 4d 2d 00 00       	call   c010b96c <inb>
c0108c1f:	83 c4 10             	add    $0x10,%esp
c0108c22:	88 45 f7             	mov    %al,-0x9(%ebp)
c0108c25:	80 4d f7 02          	orb    $0x2,-0x9(%ebp)
c0108c29:	80 65 f7 df          	andb   $0xdf,-0x9(%ebp)
c0108c2d:	83 ec 0c             	sub    $0xc,%esp
c0108c30:	6a 01                	push   $0x1
c0108c32:	e8 07 ff ff ff       	call   c0108b3e <mouse_wait>
c0108c37:	83 c4 10             	add    $0x10,%esp
c0108c3a:	83 ec 08             	sub    $0x8,%esp
c0108c3d:	6a 60                	push   $0x60
c0108c3f:	6a 64                	push   $0x64
c0108c41:	e8 fd 2c 00 00       	call   c010b943 <outb>
c0108c46:	83 c4 10             	add    $0x10,%esp
c0108c49:	83 ec 0c             	sub    $0xc,%esp
c0108c4c:	6a 01                	push   $0x1
c0108c4e:	e8 eb fe ff ff       	call   c0108b3e <mouse_wait>
c0108c53:	83 c4 10             	add    $0x10,%esp
c0108c56:	0f b6 45 f7          	movzbl -0x9(%ebp),%eax
c0108c5a:	83 ec 08             	sub    $0x8,%esp
c0108c5d:	50                   	push   %eax
c0108c5e:	6a 60                	push   $0x60
c0108c60:	e8 de 2c 00 00       	call   c010b943 <outb>
c0108c65:	83 c4 10             	add    $0x10,%esp
c0108c68:	83 ec 0c             	sub    $0xc,%esp
c0108c6b:	6a 01                	push   $0x1
c0108c6d:	e8 cc fe ff ff       	call   c0108b3e <mouse_wait>
c0108c72:	83 c4 10             	add    $0x10,%esp
c0108c75:	83 ec 08             	sub    $0x8,%esp
c0108c78:	68 d4 00 00 00       	push   $0xd4
c0108c7d:	6a 64                	push   $0x64
c0108c7f:	e8 bf 2c 00 00       	call   c010b943 <outb>
c0108c84:	83 c4 10             	add    $0x10,%esp
c0108c87:	83 ec 0c             	sub    $0xc,%esp
c0108c8a:	6a 01                	push   $0x1
c0108c8c:	e8 ad fe ff ff       	call   c0108b3e <mouse_wait>
c0108c91:	83 c4 10             	add    $0x10,%esp
c0108c94:	83 ec 08             	sub    $0x8,%esp
c0108c97:	68 f6 00 00 00       	push   $0xf6
c0108c9c:	6a 60                	push   $0x60
c0108c9e:	e8 a0 2c 00 00       	call   c010b943 <outb>
c0108ca3:	83 c4 10             	add    $0x10,%esp
c0108ca6:	83 ec 0c             	sub    $0xc,%esp
c0108ca9:	6a 00                	push   $0x0
c0108cab:	e8 8e fe ff ff       	call   c0108b3e <mouse_wait>
c0108cb0:	83 c4 10             	add    $0x10,%esp
c0108cb3:	83 ec 0c             	sub    $0xc,%esp
c0108cb6:	6a 60                	push   $0x60
c0108cb8:	e8 af 2c 00 00       	call   c010b96c <inb>
c0108cbd:	83 c4 10             	add    $0x10,%esp
c0108cc0:	83 ec 0c             	sub    $0xc,%esp
c0108cc3:	6a 01                	push   $0x1
c0108cc5:	e8 74 fe ff ff       	call   c0108b3e <mouse_wait>
c0108cca:	83 c4 10             	add    $0x10,%esp
c0108ccd:	83 ec 08             	sub    $0x8,%esp
c0108cd0:	68 d4 00 00 00       	push   $0xd4
c0108cd5:	6a 64                	push   $0x64
c0108cd7:	e8 67 2c 00 00       	call   c010b943 <outb>
c0108cdc:	83 c4 10             	add    $0x10,%esp
c0108cdf:	83 ec 0c             	sub    $0xc,%esp
c0108ce2:	6a 01                	push   $0x1
c0108ce4:	e8 55 fe ff ff       	call   c0108b3e <mouse_wait>
c0108ce9:	83 c4 10             	add    $0x10,%esp
c0108cec:	83 ec 08             	sub    $0x8,%esp
c0108cef:	68 f4 00 00 00       	push   $0xf4
c0108cf4:	6a 60                	push   $0x60
c0108cf6:	e8 48 2c 00 00       	call   c010b943 <outb>
c0108cfb:	83 c4 10             	add    $0x10,%esp
c0108cfe:	83 ec 0c             	sub    $0xc,%esp
c0108d01:	6a 00                	push   $0x0
c0108d03:	e8 36 fe ff ff       	call   c0108b3e <mouse_wait>
c0108d08:	83 c4 10             	add    $0x10,%esp
c0108d0b:	83 ec 0c             	sub    $0xc,%esp
c0108d0e:	6a 60                	push   $0x60
c0108d10:	e8 57 2c 00 00       	call   c010b96c <inb>
c0108d15:	83 c4 10             	add    $0x10,%esp
c0108d18:	83 ec 08             	sub    $0x8,%esp
c0108d1b:	8d 83 73 64 ff ff    	lea    -0x9b8d(%ebx),%eax
c0108d21:	50                   	push   %eax
c0108d22:	6a 0c                	push   $0xc
c0108d24:	e8 59 f4 ff ff       	call   c0108182 <add_irq_handler>
c0108d29:	83 c4 10             	add    $0x10,%esp
c0108d2c:	83 ec 0c             	sub    $0xc,%esp
c0108d2f:	8d 83 93 ca ff ff    	lea    -0x356d(%ebx),%eax
c0108d35:	50                   	push   %eax
c0108d36:	e8 a5 2a 00 00       	call   c010b7e0 <klog>
c0108d3b:	83 c4 10             	add    $0x10,%esp
c0108d3e:	b8 00 00 00 00       	mov    $0x0,%eax
c0108d43:	8b 5d fc             	mov    -0x4(%ebp),%ebx
c0108d46:	c9                   	leave
c0108d47:	c3                   	ret

c0108d48 <read_scan_code>:
c0108d48:	55                   	push   %ebp
c0108d49:	89 e5                	mov    %esp,%ebp
c0108d4b:	53                   	push   %ebx
c0108d4c:	83 ec 14             	sub    $0x14,%esp
c0108d4f:	e8 e9 5c 00 00       	call   c010ea3d <__x86.get_pc_thunk.bx>
c0108d54:	81 c3 d8 98 00 00    	add    $0x98d8,%ebx
c0108d5a:	e8 e6 fc ff ff       	call   c0108a45 <ps2_read_data>
c0108d5f:	0f b6 c0             	movzbl %al,%eax
c0108d62:	89 45 f4             	mov    %eax,-0xc(%ebp)
c0108d65:	8b 45 f4             	mov    -0xc(%ebp),%eax
c0108d68:	8b 84 83 f4 fd ff ff 	mov    -0x20c(%ebx,%eax,4),%eax
c0108d6f:	8b 5d fc             	mov    -0x4(%ebp),%ebx
c0108d72:	c9                   	leave
c0108d73:	c3                   	ret

c0108d74 <kbd_add_receiver>:
c0108d74:	55                   	push   %ebp
c0108d75:	89 e5                	mov    %esp,%ebp
c0108d77:	e8 bd 5c 00 00       	call   c010ea39 <__x86.get_pc_thunk.ax>
c0108d7c:	05 b0 98 00 00       	add    $0x98b0,%eax
c0108d81:	8b 90 54 7e 00 00    	mov    0x7e54(%eax),%edx
c0108d87:	8b 4d 08             	mov    0x8(%ebp),%ecx
c0108d8a:	89 8c 90 54 7a 00 00 	mov    %ecx,0x7a54(%eax,%edx,4)
c0108d91:	8b 90 54 7e 00 00    	mov    0x7e54(%eax),%edx
c0108d97:	83 c2 01             	add    $0x1,%edx
c0108d9a:	89 90 54 7e 00 00    	mov    %edx,0x7e54(%eax)
c0108da0:	90                   	nop
c0108da1:	5d                   	pop    %ebp
c0108da2:	c3                   	ret

c0108da3 <kbd_interrupt>:
c0108da3:	55                   	push   %ebp
c0108da4:	89 e5                	mov    %esp,%ebp
c0108da6:	53                   	push   %ebx
c0108da7:	83 ec 14             	sub    $0x14,%esp
c0108daa:	e8 8e 5c 00 00       	call   c010ea3d <__x86.get_pc_thunk.bx>
c0108daf:	81 c3 7d 98 00 00    	add    $0x987d,%ebx
c0108db5:	e8 66 fc ff ff       	call   c0108a20 <ps2_read_status>
c0108dba:	88 45 f3             	mov    %al,-0xd(%ebp)
c0108dbd:	0f b6 45 f3          	movzbl -0xd(%ebp),%eax
c0108dc1:	83 e0 01             	and    $0x1,%eax
c0108dc4:	85 c0                	test   %eax,%eax
c0108dc6:	74 50                	je     c0108e18 <kbd_interrupt+0x75>
c0108dc8:	e8 7b ff ff ff       	call   c0108d48 <read_scan_code>
c0108dcd:	89 45 ec             	mov    %eax,-0x14(%ebp)
c0108dd0:	83 7d ec 00          	cmpl   $0x0,-0x14(%ebp)
c0108dd4:	74 42                	je     c0108e18 <kbd_interrupt+0x75>
c0108dd6:	81 7d ec ff 01 00 00 	cmpl   $0x1ff,-0x14(%ebp)
c0108ddd:	77 39                	ja     c0108e18 <kbd_interrupt+0x75>
c0108ddf:	8b 45 ec             	mov    -0x14(%ebp),%eax
c0108de2:	89 83 58 7e 00 00    	mov    %eax,0x7e58(%ebx)
c0108de8:	c7 45 f4 00 00 00 00 	movl   $0x0,-0xc(%ebp)
c0108def:	eb 19                	jmp    c0108e0a <kbd_interrupt+0x67>
c0108df1:	8b 45 f4             	mov    -0xc(%ebp),%eax
c0108df4:	8b 84 83 54 7a 00 00 	mov    0x7a54(%ebx,%eax,4),%eax
c0108dfb:	83 ec 0c             	sub    $0xc,%esp
c0108dfe:	ff 75 ec             	push   -0x14(%ebp)
c0108e01:	ff d0                	call   *%eax
c0108e03:	83 c4 10             	add    $0x10,%esp
c0108e06:	83 45 f4 01          	addl   $0x1,-0xc(%ebp)
c0108e0a:	8b 45 f4             	mov    -0xc(%ebp),%eax
c0108e0d:	8b 84 83 54 7a 00 00 	mov    0x7a54(%ebx,%eax,4),%eax
c0108e14:	85 c0                	test   %eax,%eax
c0108e16:	75 d9                	jne    c0108df1 <kbd_interrupt+0x4e>
c0108e18:	90                   	nop
c0108e19:	8b 5d fc             	mov    -0x4(%ebp),%ebx
c0108e1c:	c9                   	leave
c0108e1d:	c3                   	ret

c0108e1e <kbd_read>:
c0108e1e:	55                   	push   %ebp
c0108e1f:	89 e5                	mov    %esp,%ebp
c0108e21:	e8 13 5c 00 00       	call   c010ea39 <__x86.get_pc_thunk.ax>
c0108e26:	05 06 98 00 00       	add    $0x9806,%eax
c0108e2b:	8b 80 58 7e 00 00    	mov    0x7e58(%eax),%eax
c0108e31:	5d                   	pop    %ebp
c0108e32:	c3                   	ret

c0108e33 <kbd_init>:
c0108e33:	55                   	push   %ebp
c0108e34:	89 e5                	mov    %esp,%ebp
c0108e36:	53                   	push   %ebx
c0108e37:	83 ec 04             	sub    $0x4,%esp
c0108e3a:	e8 fe 5b 00 00       	call   c010ea3d <__x86.get_pc_thunk.bx>
c0108e3f:	81 c3 ed 97 00 00    	add    $0x97ed,%ebx
c0108e45:	83 ec 08             	sub    $0x8,%esp
c0108e48:	8d 83 77 67 ff ff    	lea    -0x9889(%ebx),%eax
c0108e4e:	50                   	push   %eax
c0108e4f:	6a 01                	push   $0x1
c0108e51:	e8 2c f3 ff ff       	call   c0108182 <add_irq_handler>
c0108e56:	83 c4 10             	add    $0x10,%esp
c0108e59:	83 ec 0c             	sub    $0xc,%esp
c0108e5c:	8d 83 b0 ca ff ff    	lea    -0x3550(%ebx),%eax
c0108e62:	50                   	push   %eax
c0108e63:	e8 78 29 00 00       	call   c010b7e0 <klog>
c0108e68:	83 c4 10             	add    $0x10,%esp
c0108e6b:	90                   	nop
c0108e6c:	8b 5d fc             	mov    -0x4(%ebp),%ebx
c0108e6f:	c9                   	leave
c0108e70:	c3                   	ret

c0108e71 <rtc_get_val>:
c0108e71:	55                   	push   %ebp
c0108e72:	89 e5                	mov    %esp,%ebp
c0108e74:	53                   	push   %ebx
c0108e75:	83 ec 24             	sub    $0x24,%esp
c0108e78:	e8 c0 5b 00 00       	call   c010ea3d <__x86.get_pc_thunk.bx>
c0108e7d:	81 c3 af 97 00 00    	add    $0x97af,%ebx
c0108e83:	8b 45 08             	mov    0x8(%ebp),%eax
c0108e86:	88 45 e4             	mov    %al,-0x1c(%ebp)
c0108e89:	83 ec 0c             	sub    $0xc,%esp
c0108e8c:	6a 0a                	push   $0xa
c0108e8e:	e8 af fa ff ff       	call   c0108942 <cmos_select_reg>
c0108e93:	83 c4 10             	add    $0x10,%esp
c0108e96:	eb 0d                	jmp    c0108ea5 <rtc_get_val+0x34>
c0108e98:	83 ec 0c             	sub    $0xc,%esp
c0108e9b:	6a 0a                	push   $0xa
c0108e9d:	e8 a0 fa ff ff       	call   c0108942 <cmos_select_reg>
c0108ea2:	83 c4 10             	add    $0x10,%esp
c0108ea5:	e8 d5 fa ff ff       	call   c010897f <cmos_read_data>
c0108eaa:	84 c0                	test   %al,%al
c0108eac:	78 ea                	js     c0108e98 <rtc_get_val+0x27>
c0108eae:	0f b6 45 e4          	movzbl -0x1c(%ebp),%eax
c0108eb2:	83 ec 0c             	sub    $0xc,%esp
c0108eb5:	50                   	push   %eax
c0108eb6:	e8 87 fa ff ff       	call   c0108942 <cmos_select_reg>
c0108ebb:	83 c4 10             	add    $0x10,%esp
c0108ebe:	e8 bc fa ff ff       	call   c010897f <cmos_read_data>
c0108ec3:	88 45 f7             	mov    %al,-0x9(%ebp)
c0108ec6:	8b 83 64 7e 00 00    	mov    0x7e64(%ebx),%eax
c0108ecc:	83 f8 02             	cmp    $0x2,%eax
c0108ecf:	75 23                	jne    c0108ef4 <rtc_get_val+0x83>
c0108ed1:	0f b6 45 f7          	movzbl -0x9(%ebp),%eax
c0108ed5:	d1 f8                	sar    %eax
c0108ed7:	83 e0 78             	and    $0x78,%eax
c0108eda:	89 c2                	mov    %eax,%edx
c0108edc:	0f b6 45 f7          	movzbl -0x9(%ebp),%eax
c0108ee0:	c1 f8 03             	sar    $0x3,%eax
c0108ee3:	83 e0 1e             	and    $0x1e,%eax
c0108ee6:	01 c2                	add    %eax,%edx
c0108ee8:	0f b6 45 f7          	movzbl -0x9(%ebp),%eax
c0108eec:	83 e0 0f             	and    $0xf,%eax
c0108eef:	01 d0                	add    %edx,%eax
c0108ef1:	88 45 f7             	mov    %al,-0x9(%ebp)
c0108ef4:	0f b6 45 f7          	movzbl -0x9(%ebp),%eax
c0108ef8:	8b 5d fc             	mov    -0x4(%ebp),%ebx
c0108efb:	c9                   	leave
c0108efc:	c3                   	ret

c0108efd <rtc_get_seconds>:
c0108efd:	55                   	push   %ebp
c0108efe:	89 e5                	mov    %esp,%ebp
c0108f00:	83 ec 08             	sub    $0x8,%esp
c0108f03:	e8 31 5b 00 00       	call   c010ea39 <__x86.get_pc_thunk.ax>
c0108f08:	05 24 97 00 00       	add    $0x9724,%eax
c0108f0d:	83 ec 0c             	sub    $0xc,%esp
c0108f10:	6a 00                	push   $0x0
c0108f12:	e8 5a ff ff ff       	call   c0108e71 <rtc_get_val>
c0108f17:	83 c4 10             	add    $0x10,%esp
c0108f1a:	c9                   	leave
c0108f1b:	c3                   	ret

c0108f1c <rtc_get_minutes>:
c0108f1c:	55                   	push   %ebp
c0108f1d:	89 e5                	mov    %esp,%ebp
c0108f1f:	83 ec 08             	sub    $0x8,%esp
c0108f22:	e8 12 5b 00 00       	call   c010ea39 <__x86.get_pc_thunk.ax>
c0108f27:	05 05 97 00 00       	add    $0x9705,%eax
c0108f2c:	83 ec 0c             	sub    $0xc,%esp
c0108f2f:	6a 02                	push   $0x2
c0108f31:	e8 3b ff ff ff       	call   c0108e71 <rtc_get_val>
c0108f36:	83 c4 10             	add    $0x10,%esp
c0108f39:	c9                   	leave
c0108f3a:	c3                   	ret

c0108f3b <rtc_get_hour>:
c0108f3b:	55                   	push   %ebp
c0108f3c:	89 e5                	mov    %esp,%ebp
c0108f3e:	83 ec 08             	sub    $0x8,%esp
c0108f41:	e8 f3 5a 00 00       	call   c010ea39 <__x86.get_pc_thunk.ax>
c0108f46:	05 e6 96 00 00       	add    $0x96e6,%eax
c0108f4b:	83 ec 0c             	sub    $0xc,%esp
c0108f4e:	6a 04                	push   $0x4
c0108f50:	e8 1c ff ff ff       	call   c0108e71 <rtc_get_val>
c0108f55:	83 c4 10             	add    $0x10,%esp
c0108f58:	c9                   	leave
c0108f59:	c3                   	ret

c0108f5a <rtc_get_month>:
c0108f5a:	55                   	push   %ebp
c0108f5b:	89 e5                	mov    %esp,%ebp
c0108f5d:	83 ec 08             	sub    $0x8,%esp
c0108f60:	e8 d4 5a 00 00       	call   c010ea39 <__x86.get_pc_thunk.ax>
c0108f65:	05 c7 96 00 00       	add    $0x96c7,%eax
c0108f6a:	83 ec 0c             	sub    $0xc,%esp
c0108f6d:	6a 08                	push   $0x8
c0108f6f:	e8 fd fe ff ff       	call   c0108e71 <rtc_get_val>
c0108f74:	83 c4 10             	add    $0x10,%esp
c0108f77:	c9                   	leave
c0108f78:	c3                   	ret

c0108f79 <rtc_get_day_of_month>:
c0108f79:	55                   	push   %ebp
c0108f7a:	89 e5                	mov    %esp,%ebp
c0108f7c:	53                   	push   %ebx
c0108f7d:	83 ec 04             	sub    $0x4,%esp
c0108f80:	e8 b8 5a 00 00       	call   c010ea3d <__x86.get_pc_thunk.bx>
c0108f85:	81 c3 a7 96 00 00    	add    $0x96a7,%ebx
c0108f8b:	83 ec 0c             	sub    $0xc,%esp
c0108f8e:	6a 07                	push   $0x7
c0108f90:	e8 ad f9 ff ff       	call   c0108942 <cmos_select_reg>
c0108f95:	83 c4 10             	add    $0x10,%esp
c0108f98:	e8 e2 f9 ff ff       	call   c010897f <cmos_read_data>
c0108f9d:	8b 5d fc             	mov    -0x4(%ebp),%ebx
c0108fa0:	c9                   	leave
c0108fa1:	c3                   	ret

c0108fa2 <rtc_get_year>:
c0108fa2:	55                   	push   %ebp
c0108fa3:	89 e5                	mov    %esp,%ebp
c0108fa5:	83 ec 18             	sub    $0x18,%esp
c0108fa8:	e8 8c 5a 00 00       	call   c010ea39 <__x86.get_pc_thunk.ax>
c0108fad:	05 7f 96 00 00       	add    $0x967f,%eax
c0108fb2:	83 ec 0c             	sub    $0xc,%esp
c0108fb5:	6a 09                	push   $0x9
c0108fb7:	e8 b5 fe ff ff       	call   c0108e71 <rtc_get_val>
c0108fbc:	83 c4 10             	add    $0x10,%esp
c0108fbf:	0f b6 c0             	movzbl %al,%eax
c0108fc2:	66 89 45 f6          	mov    %ax,-0xa(%ebp)
c0108fc6:	0f b7 45 f6          	movzwl -0xa(%ebp),%eax
c0108fca:	66 05 d0 07          	add    $0x7d0,%ax
c0108fce:	c9                   	leave
c0108fcf:	c3                   	ret

c0108fd0 <get_time_str>:
c0108fd0:	55                   	push   %ebp
c0108fd1:	89 e5                	mov    %esp,%ebp
c0108fd3:	53                   	push   %ebx
c0108fd4:	83 ec 04             	sub    $0x4,%esp
c0108fd7:	e8 5d 5a 00 00       	call   c010ea39 <__x86.get_pc_thunk.ax>
c0108fdc:	05 50 96 00 00       	add    $0x9650,%eax
c0108fe1:	8b 55 18             	mov    0x18(%ebp),%edx
c0108fe4:	8b 12                	mov    (%edx),%edx
c0108fe6:	83 fa 01             	cmp    $0x1,%edx
c0108fe9:	75 1c                	jne    c0109007 <get_time_str+0x37>
c0108feb:	8b 4d 0c             	mov    0xc(%ebp),%ecx
c0108fee:	8b 55 10             	mov    0x10(%ebp),%edx
c0108ff1:	01 ca                	add    %ecx,%edx
c0108ff3:	c6 02 30             	movb   $0x30,(%edx)
c0108ff6:	83 45 10 01          	addl   $0x1,0x10(%ebp)
c0108ffa:	8b 55 18             	mov    0x18(%ebp),%edx
c0108ffd:	8b 12                	mov    (%edx),%edx
c0108fff:	8d 4a 01             	lea    0x1(%edx),%ecx
c0109002:	8b 55 18             	mov    0x18(%ebp),%edx
c0109005:	89 0a                	mov    %ecx,(%edx)
c0109007:	8b 55 18             	mov    0x18(%ebp),%edx
c010900a:	8b 12                	mov    (%edx),%edx
c010900c:	8b 5d 0c             	mov    0xc(%ebp),%ebx
c010900f:	8b 4d 10             	mov    0x10(%ebp),%ecx
c0109012:	01 d9                	add    %ebx,%ecx
c0109014:	83 ec 04             	sub    $0x4,%esp
c0109017:	52                   	push   %edx
c0109018:	ff 75 08             	push   0x8(%ebp)
c010901b:	51                   	push   %ecx
c010901c:	89 c3                	mov    %eax,%ebx
c010901e:	e8 e7 29 00 00       	call   c010ba0a <strcpy>
c0109023:	83 c4 10             	add    $0x10,%esp
c0109026:	90                   	nop
c0109027:	8b 5d fc             	mov    -0x4(%ebp),%ebx
c010902a:	c9                   	leave
c010902b:	c3                   	ret

c010902c <get_date_time>:
c010902c:	55                   	push   %ebp
c010902d:	89 e5                	mov    %esp,%ebp
c010902f:	53                   	push   %ebx
c0109030:	83 ec 34             	sub    $0x34,%esp
c0109033:	e8 05 5a 00 00       	call   c010ea3d <__x86.get_pc_thunk.bx>
c0109038:	81 c3 f4 95 00 00    	add    $0x95f4,%ebx
c010903e:	83 ec 04             	sub    $0x4,%esp
c0109041:	ff 75 10             	push   0x10(%ebp)
c0109044:	6a 00                	push   $0x0
c0109046:	ff 75 0c             	push   0xc(%ebp)
c0109049:	e8 58 28 00 00       	call   c010b8a6 <memset>
c010904e:	83 c4 10             	add    $0x10,%esp
c0109051:	c7 45 f4 00 00 00 00 	movl   $0x0,-0xc(%ebp)
c0109058:	c7 45 f0 00 00 00 00 	movl   $0x0,-0x10(%ebp)
c010905f:	e9 ff 01 00 00       	jmp    c0109263 <.L22+0x24>
c0109064:	83 ec 04             	sub    $0x4,%esp
c0109067:	6a 10                	push   $0x10
c0109069:	6a 00                	push   $0x0
c010906b:	8d 45 d8             	lea    -0x28(%ebp),%eax
c010906e:	50                   	push   %eax
c010906f:	e8 32 28 00 00       	call   c010b8a6 <memset>
c0109074:	83 c4 10             	add    $0x10,%esp
c0109077:	c7 45 d4 00 00 00 00 	movl   $0x0,-0x2c(%ebp)
c010907e:	c7 45 ec 00 00 00 00 	movl   $0x0,-0x14(%ebp)
c0109085:	8b 55 08             	mov    0x8(%ebp),%edx
c0109088:	8b 45 f0             	mov    -0x10(%ebp),%eax
c010908b:	01 d0                	add    %edx,%eax
c010908d:	0f b6 00             	movzbl (%eax),%eax
c0109090:	0f be c0             	movsbl %al,%eax
c0109093:	83 e8 4d             	sub    $0x4d,%eax
c0109096:	83 f8 2c             	cmp    $0x2c,%eax
c0109099:	0f 87 a0 01 00 00    	ja     c010923f <.L22>
c010909f:	c1 e0 02             	shl    $0x2,%eax
c01090a2:	8b 84 18 d0 ca ff ff 	mov    -0x3530(%eax,%ebx,1),%eax
c01090a9:	01 d8                	add    %ebx,%eax
c01090ab:	ff e0                	jmp    *%eax

c01090ad <.L27>:
c01090ad:	e8 89 fe ff ff       	call   c0108f3b <rtc_get_hour>
c01090b2:	0f b6 c0             	movzbl %al,%eax
c01090b5:	83 ec 0c             	sub    $0xc,%esp
c01090b8:	6a 0a                	push   $0xa
c01090ba:	8d 55 d4             	lea    -0x2c(%ebp),%edx
c01090bd:	52                   	push   %edx
c01090be:	ff 75 10             	push   0x10(%ebp)
c01090c1:	8d 55 d8             	lea    -0x28(%ebp),%edx
c01090c4:	52                   	push   %edx
c01090c5:	50                   	push   %eax
c01090c6:	e8 c0 12 00 00       	call   c010a38b <itoa>
c01090cb:	83 c4 20             	add    $0x20,%esp
c01090ce:	89 45 e8             	mov    %eax,-0x18(%ebp)
c01090d1:	83 ec 0c             	sub    $0xc,%esp
c01090d4:	8d 45 d4             	lea    -0x2c(%ebp),%eax
c01090d7:	50                   	push   %eax
c01090d8:	ff 75 10             	push   0x10(%ebp)
c01090db:	ff 75 f4             	push   -0xc(%ebp)
c01090de:	ff 75 0c             	push   0xc(%ebp)
c01090e1:	ff 75 e8             	push   -0x18(%ebp)
c01090e4:	e8 e7 fe ff ff       	call   c0108fd0 <get_time_str>
c01090e9:	83 c4 20             	add    $0x20,%esp
c01090ec:	e9 68 01 00 00       	jmp    c0109259 <.L22+0x1a>

c01090f1 <.L25>:
c01090f1:	e8 07 fe ff ff       	call   c0108efd <rtc_get_seconds>
c01090f6:	0f b6 c0             	movzbl %al,%eax
c01090f9:	83 ec 0c             	sub    $0xc,%esp
c01090fc:	6a 0a                	push   $0xa
c01090fe:	8d 55 d4             	lea    -0x2c(%ebp),%edx
c0109101:	52                   	push   %edx
c0109102:	ff 75 10             	push   0x10(%ebp)
c0109105:	8d 55 d8             	lea    -0x28(%ebp),%edx
c0109108:	52                   	push   %edx
c0109109:	50                   	push   %eax
c010910a:	e8 7c 12 00 00       	call   c010a38b <itoa>
c010910f:	83 c4 20             	add    $0x20,%esp
c0109112:	89 45 e8             	mov    %eax,-0x18(%ebp)
c0109115:	83 ec 0c             	sub    $0xc,%esp
c0109118:	8d 45 d4             	lea    -0x2c(%ebp),%eax
c010911b:	50                   	push   %eax
c010911c:	ff 75 10             	push   0x10(%ebp)
c010911f:	ff 75 f4             	push   -0xc(%ebp)
c0109122:	ff 75 0c             	push   0xc(%ebp)
c0109125:	ff 75 e8             	push   -0x18(%ebp)
c0109128:	e8 a3 fe ff ff       	call   c0108fd0 <get_time_str>
c010912d:	83 c4 20             	add    $0x20,%esp
c0109130:	e9 24 01 00 00       	jmp    c0109259 <.L22+0x1a>

c0109135 <.L26>:
c0109135:	e8 e2 fd ff ff       	call   c0108f1c <rtc_get_minutes>
c010913a:	0f b6 c0             	movzbl %al,%eax
c010913d:	83 ec 0c             	sub    $0xc,%esp
c0109140:	6a 0a                	push   $0xa
c0109142:	8d 55 d4             	lea    -0x2c(%ebp),%edx
c0109145:	52                   	push   %edx
c0109146:	ff 75 10             	push   0x10(%ebp)
c0109149:	8d 55 d8             	lea    -0x28(%ebp),%edx
c010914c:	52                   	push   %edx
c010914d:	50                   	push   %eax
c010914e:	e8 38 12 00 00       	call   c010a38b <itoa>
c0109153:	83 c4 20             	add    $0x20,%esp
c0109156:	89 45 e8             	mov    %eax,-0x18(%ebp)
c0109159:	83 ec 0c             	sub    $0xc,%esp
c010915c:	8d 45 d4             	lea    -0x2c(%ebp),%eax
c010915f:	50                   	push   %eax
c0109160:	ff 75 10             	push   0x10(%ebp)
c0109163:	ff 75 f4             	push   -0xc(%ebp)
c0109166:	ff 75 0c             	push   0xc(%ebp)
c0109169:	ff 75 e8             	push   -0x18(%ebp)
c010916c:	e8 5f fe ff ff       	call   c0108fd0 <get_time_str>
c0109171:	83 c4 20             	add    $0x20,%esp
c0109174:	e9 e0 00 00 00       	jmp    c0109259 <.L22+0x1a>

c0109179 <.L23>:
c0109179:	e8 24 fe ff ff       	call   c0108fa2 <rtc_get_year>
c010917e:	0f b7 c0             	movzwl %ax,%eax
c0109181:	83 ec 0c             	sub    $0xc,%esp
c0109184:	6a 0a                	push   $0xa
c0109186:	8d 55 d4             	lea    -0x2c(%ebp),%edx
c0109189:	52                   	push   %edx
c010918a:	ff 75 10             	push   0x10(%ebp)
c010918d:	8d 55 d8             	lea    -0x28(%ebp),%edx
c0109190:	52                   	push   %edx
c0109191:	50                   	push   %eax
c0109192:	e8 f4 11 00 00       	call   c010a38b <itoa>
c0109197:	83 c4 20             	add    $0x20,%esp
c010919a:	89 45 e8             	mov    %eax,-0x18(%ebp)
c010919d:	8b 45 d4             	mov    -0x2c(%ebp),%eax
c01091a0:	8b 4d 0c             	mov    0xc(%ebp),%ecx
c01091a3:	8b 55 f4             	mov    -0xc(%ebp),%edx
c01091a6:	01 ca                	add    %ecx,%edx
c01091a8:	83 ec 04             	sub    $0x4,%esp
c01091ab:	50                   	push   %eax
c01091ac:	ff 75 e8             	push   -0x18(%ebp)
c01091af:	52                   	push   %edx
c01091b0:	e8 55 28 00 00       	call   c010ba0a <strcpy>
c01091b5:	83 c4 10             	add    $0x10,%esp
c01091b8:	e9 9c 00 00 00       	jmp    c0109259 <.L22+0x1a>

c01091bd <.L28>:
c01091bd:	e8 b7 fd ff ff       	call   c0108f79 <rtc_get_day_of_month>
c01091c2:	0f b6 c0             	movzbl %al,%eax
c01091c5:	83 ec 0c             	sub    $0xc,%esp
c01091c8:	6a 0a                	push   $0xa
c01091ca:	8d 55 d4             	lea    -0x2c(%ebp),%edx
c01091cd:	52                   	push   %edx
c01091ce:	ff 75 10             	push   0x10(%ebp)
c01091d1:	8d 55 d8             	lea    -0x28(%ebp),%edx
c01091d4:	52                   	push   %edx
c01091d5:	50                   	push   %eax
c01091d6:	e8 b0 11 00 00       	call   c010a38b <itoa>
c01091db:	83 c4 20             	add    $0x20,%esp
c01091de:	89 45 e8             	mov    %eax,-0x18(%ebp)
c01091e1:	8b 45 d4             	mov    -0x2c(%ebp),%eax
c01091e4:	8b 4d 0c             	mov    0xc(%ebp),%ecx
c01091e7:	8b 55 f4             	mov    -0xc(%ebp),%edx
c01091ea:	01 ca                	add    %ecx,%edx
c01091ec:	83 ec 04             	sub    $0x4,%esp
c01091ef:	50                   	push   %eax
c01091f0:	ff 75 e8             	push   -0x18(%ebp)
c01091f3:	52                   	push   %edx
c01091f4:	e8 11 28 00 00       	call   c010ba0a <strcpy>
c01091f9:	83 c4 10             	add    $0x10,%esp
c01091fc:	eb 5b                	jmp    c0109259 <.L22+0x1a>

c01091fe <.L29>:
c01091fe:	e8 57 fd ff ff       	call   c0108f5a <rtc_get_month>
c0109203:	0f b6 c0             	movzbl %al,%eax
c0109206:	83 ec 0c             	sub    $0xc,%esp
c0109209:	6a 0a                	push   $0xa
c010920b:	8d 55 d4             	lea    -0x2c(%ebp),%edx
c010920e:	52                   	push   %edx
c010920f:	ff 75 10             	push   0x10(%ebp)
c0109212:	8d 55 d8             	lea    -0x28(%ebp),%edx
c0109215:	52                   	push   %edx
c0109216:	50                   	push   %eax
c0109217:	e8 6f 11 00 00       	call   c010a38b <itoa>
c010921c:	83 c4 20             	add    $0x20,%esp
c010921f:	89 45 e8             	mov    %eax,-0x18(%ebp)
c0109222:	8b 45 d4             	mov    -0x2c(%ebp),%eax
c0109225:	8b 4d 0c             	mov    0xc(%ebp),%ecx
c0109228:	8b 55 f4             	mov    -0xc(%ebp),%edx
c010922b:	01 ca                	add    %ecx,%edx
c010922d:	83 ec 04             	sub    $0x4,%esp
c0109230:	50                   	push   %eax
c0109231:	ff 75 e8             	push   -0x18(%ebp)
c0109234:	52                   	push   %edx
c0109235:	e8 d0 27 00 00       	call   c010ba0a <strcpy>
c010923a:	83 c4 10             	add    $0x10,%esp
c010923d:	eb 1a                	jmp    c0109259 <.L22+0x1a>

c010923f <.L22>:
c010923f:	8b 55 08             	mov    0x8(%ebp),%edx
c0109242:	8b 45 f0             	mov    -0x10(%ebp),%eax
c0109245:	01 d0                	add    %edx,%eax
c0109247:	8b 4d 0c             	mov    0xc(%ebp),%ecx
c010924a:	8b 55 f4             	mov    -0xc(%ebp),%edx
c010924d:	01 ca                	add    %ecx,%edx
c010924f:	0f b6 00             	movzbl (%eax),%eax
c0109252:	88 02                	mov    %al,(%edx)
c0109254:	83 45 f4 01          	addl   $0x1,-0xc(%ebp)
c0109258:	90                   	nop
c0109259:	8b 45 d4             	mov    -0x2c(%ebp),%eax
c010925c:	01 45 f4             	add    %eax,-0xc(%ebp)
c010925f:	83 45 f0 01          	addl   $0x1,-0x10(%ebp)
c0109263:	8b 55 08             	mov    0x8(%ebp),%edx
c0109266:	8b 45 f0             	mov    -0x10(%ebp),%eax
c0109269:	01 d0                	add    %edx,%eax
c010926b:	0f b6 00             	movzbl (%eax),%eax
c010926e:	84 c0                	test   %al,%al
c0109270:	0f 85 ee fd ff ff    	jne    c0109064 <get_date_time+0x38>
c0109276:	8b 45 0c             	mov    0xc(%ebp),%eax
c0109279:	8b 5d fc             	mov    -0x4(%ebp),%ebx
c010927c:	c9                   	leave
c010927d:	c3                   	ret

c010927e <rtc_init>:
c010927e:	55                   	push   %ebp
c010927f:	89 e5                	mov    %esp,%ebp
c0109281:	53                   	push   %ebx
c0109282:	83 ec 14             	sub    $0x14,%esp
c0109285:	e8 b3 57 00 00       	call   c010ea3d <__x86.get_pc_thunk.bx>
c010928a:	81 c3 a2 93 00 00    	add    $0x93a2,%ebx
c0109290:	83 ec 0c             	sub    $0xc,%esp
c0109293:	6a 0b                	push   $0xb
c0109295:	e8 a8 f6 ff ff       	call   c0108942 <cmos_select_reg>
c010929a:	83 c4 10             	add    $0x10,%esp
c010929d:	e8 dd f6 ff ff       	call   c010897f <cmos_read_data>
c01092a2:	0f b6 c0             	movzbl %al,%eax
c01092a5:	89 83 64 7e 00 00    	mov    %eax,0x7e64(%ebx)
c01092ab:	83 ec 0c             	sub    $0xc,%esp
c01092ae:	8d 83 84 cb ff ff    	lea    -0x347c(%ebx),%eax
c01092b4:	50                   	push   %eax
c01092b5:	e8 26 25 00 00       	call   c010b7e0 <klog>
c01092ba:	83 c4 10             	add    $0x10,%esp
c01092bd:	83 ec 04             	sub    $0x4,%esp
c01092c0:	6a 10                	push   $0x10
c01092c2:	8d 45 e8             	lea    -0x18(%ebp),%eax
c01092c5:	50                   	push   %eax
c01092c6:	8d 83 a0 cb ff ff    	lea    -0x3460(%ebx),%eax
c01092cc:	50                   	push   %eax
c01092cd:	e8 5a fd ff ff       	call   c010902c <get_date_time>
c01092d2:	83 c4 10             	add    $0x10,%esp
c01092d5:	83 ec 08             	sub    $0x8,%esp
c01092d8:	50                   	push   %eax
c01092d9:	8d 83 a6 cb ff ff    	lea    -0x345a(%ebx),%eax
c01092df:	50                   	push   %eax
c01092e0:	e8 fb 24 00 00       	call   c010b7e0 <klog>
c01092e5:	83 c4 10             	add    $0x10,%esp
c01092e8:	90                   	nop
c01092e9:	8b 5d fc             	mov    -0x4(%ebp),%ebx
c01092ec:	c9                   	leave
c01092ed:	c3                   	ret

c01092ee <halt>:
c01092ee:	55                   	push   %ebp
c01092ef:	89 e5                	mov    %esp,%ebp
c01092f1:	e8 43 57 00 00       	call   c010ea39 <__x86.get_pc_thunk.ax>
c01092f6:	05 36 93 00 00       	add    $0x9336,%eax
c01092fb:	f4                   	hlt
c01092fc:	90                   	nop
c01092fd:	5d                   	pop    %ebp
c01092fe:	c3                   	ret

c01092ff <pit_handler>:
c01092ff:	55                   	push   %ebp
c0109300:	89 e5                	mov    %esp,%ebp
c0109302:	e8 32 57 00 00       	call   c010ea39 <__x86.get_pc_thunk.ax>
c0109307:	05 25 93 00 00       	add    $0x9325,%eax
c010930c:	8b 90 68 7e 00 00    	mov    0x7e68(%eax),%edx
c0109312:	83 c2 01             	add    $0x1,%edx
c0109315:	89 90 68 7e 00 00    	mov    %edx,0x7e68(%eax)
c010931b:	90                   	nop
c010931c:	5d                   	pop    %ebp
c010931d:	c3                   	ret

c010931e <get_pit_count>:
c010931e:	55                   	push   %ebp
c010931f:	89 e5                	mov    %esp,%ebp
c0109321:	53                   	push   %ebx
c0109322:	83 ec 14             	sub    $0x14,%esp
c0109325:	e8 13 57 00 00       	call   c010ea3d <__x86.get_pc_thunk.bx>
c010932a:	81 c3 02 93 00 00    	add    $0x9302,%ebx
c0109330:	8b 45 08             	mov    0x8(%ebp),%eax
c0109333:	c1 e0 06             	shl    $0x6,%eax
c0109336:	0f b6 c0             	movzbl %al,%eax
c0109339:	83 ec 08             	sub    $0x8,%esp
c010933c:	50                   	push   %eax
c010933d:	6a 43                	push   $0x43
c010933f:	e8 ff 25 00 00       	call   c010b943 <outb>
c0109344:	83 c4 10             	add    $0x10,%esp
c0109347:	8b 45 08             	mov    0x8(%ebp),%eax
c010934a:	0f b7 c0             	movzwl %ax,%eax
c010934d:	83 ec 0c             	sub    $0xc,%esp
c0109350:	50                   	push   %eax
c0109351:	e8 16 26 00 00       	call   c010b96c <inb>
c0109356:	83 c4 10             	add    $0x10,%esp
c0109359:	0f b6 c0             	movzbl %al,%eax
c010935c:	66 89 45 f6          	mov    %ax,-0xa(%ebp)
c0109360:	8b 45 08             	mov    0x8(%ebp),%eax
c0109363:	0f b7 c0             	movzwl %ax,%eax
c0109366:	83 ec 0c             	sub    $0xc,%esp
c0109369:	50                   	push   %eax
c010936a:	e8 fd 25 00 00       	call   c010b96c <inb>
c010936f:	83 c4 10             	add    $0x10,%esp
c0109372:	0f b6 c0             	movzbl %al,%eax
c0109375:	c1 e0 08             	shl    $0x8,%eax
c0109378:	89 c2                	mov    %eax,%edx
c010937a:	0f b7 45 f6          	movzwl -0xa(%ebp),%eax
c010937e:	09 d0                	or     %edx,%eax
c0109380:	66 89 45 f6          	mov    %ax,-0xa(%ebp)
c0109384:	0f b7 45 f6          	movzwl -0xa(%ebp),%eax
c0109388:	8b 5d fc             	mov    -0x4(%ebp),%ebx
c010938b:	c9                   	leave
c010938c:	c3                   	ret

c010938d <wait_ticks>:
c010938d:	55                   	push   %ebp
c010938e:	89 e5                	mov    %esp,%ebp
c0109390:	53                   	push   %ebx
c0109391:	83 ec 10             	sub    $0x10,%esp
c0109394:	e8 a4 56 00 00       	call   c010ea3d <__x86.get_pc_thunk.bx>
c0109399:	81 c3 93 92 00 00    	add    $0x9293,%ebx
c010939f:	8b 83 68 7e 00 00    	mov    0x7e68(%ebx),%eax
c01093a5:	89 45 f8             	mov    %eax,-0x8(%ebp)
c01093a8:	8b 55 f8             	mov    -0x8(%ebp),%edx
c01093ab:	8b 45 08             	mov    0x8(%ebp),%eax
c01093ae:	01 c2                	add    %eax,%edx
c01093b0:	8b 83 68 7e 00 00    	mov    0x7e68(%ebx),%eax
c01093b6:	39 c2                	cmp    %eax,%edx
c01093b8:	73 30                	jae    c01093ea <wait_ticks+0x5d>
c01093ba:	eb 05                	jmp    c01093c1 <wait_ticks+0x34>
c01093bc:	e8 2d ff ff ff       	call   c01092ee <halt>
c01093c1:	8b 83 68 7e 00 00    	mov    0x7e68(%ebx),%eax
c01093c7:	3b 45 f8             	cmp    -0x8(%ebp),%eax
c01093ca:	73 f0                	jae    c01093bc <wait_ticks+0x2f>
c01093cc:	8b 55 f8             	mov    -0x8(%ebp),%edx
c01093cf:	8b 45 08             	mov    0x8(%ebp),%eax
c01093d2:	01 d0                	add    %edx,%eax
c01093d4:	83 c0 01             	add    $0x1,%eax
c01093d7:	89 45 08             	mov    %eax,0x8(%ebp)
c01093da:	8b 83 68 7e 00 00    	mov    0x7e68(%ebx),%eax
c01093e0:	89 45 f8             	mov    %eax,-0x8(%ebp)
c01093e3:	eb 05                	jmp    c01093ea <wait_ticks+0x5d>
c01093e5:	e8 04 ff ff ff       	call   c01092ee <halt>
c01093ea:	8b 55 f8             	mov    -0x8(%ebp),%edx
c01093ed:	8b 45 08             	mov    0x8(%ebp),%eax
c01093f0:	01 d0                	add    %edx,%eax
c01093f2:	8b 93 68 7e 00 00    	mov    0x7e68(%ebx),%edx
c01093f8:	39 c2                	cmp    %eax,%edx
c01093fa:	72 e9                	jb     c01093e5 <wait_ticks+0x58>
c01093fc:	90                   	nop
c01093fd:	90                   	nop
c01093fe:	8b 5d fc             	mov    -0x4(%ebp),%ebx
c0109401:	c9                   	leave
c0109402:	c3                   	ret

c0109403 <sleep_us>:
c0109403:	55                   	push   %ebp
c0109404:	89 e5                	mov    %esp,%ebp
c0109406:	53                   	push   %ebx
c0109407:	83 ec 10             	sub    $0x10,%esp
c010940a:	e8 32 56 00 00       	call   c010ea41 <__x86.get_pc_thunk.cx>
c010940f:	81 c1 1d 92 00 00    	add    $0x921d,%ecx
c0109415:	83 7d 08 00          	cmpl   $0x0,0x8(%ebp)
c0109419:	0f 84 b7 00 00 00    	je     c01094d6 <sleep_us+0xd3>
c010941f:	8b 99 f4 ff ff ff    	mov    -0xc(%ecx),%ebx
c0109425:	b8 40 42 0f 00       	mov    $0xf4240,%eax
c010942a:	ba 00 00 00 00       	mov    $0x0,%edx
c010942f:	f7 f3                	div    %ebx
c0109431:	89 45 f4             	mov    %eax,-0xc(%ebp)
c0109434:	d1 65 f4             	shll   -0xc(%ebp)
c0109437:	8b 45 08             	mov    0x8(%ebp),%eax
c010943a:	3b 45 f4             	cmp    -0xc(%ebp),%eax
c010943d:	73 06                	jae    c0109445 <sleep_us+0x42>
c010943f:	8b 45 f4             	mov    -0xc(%ebp),%eax
c0109442:	89 45 08             	mov    %eax,0x8(%ebp)
c0109445:	c7 45 f8 00 00 00 00 	movl   $0x0,-0x8(%ebp)
c010944c:	81 7d 08 e7 03 00 00 	cmpl   $0x3e7,0x8(%ebp)
c0109453:	77 23                	ja     c0109478 <sleep_us+0x75>
c0109455:	8b 81 f4 ff ff ff    	mov    -0xc(%ecx),%eax
c010945b:	8b 55 08             	mov    0x8(%ebp),%edx
c010945e:	0f af c2             	imul   %edx,%eax
c0109461:	89 45 f8             	mov    %eax,-0x8(%ebp)
c0109464:	8b 45 f8             	mov    -0x8(%ebp),%eax
c0109467:	ba 83 de 1b 43       	mov    $0x431bde83,%edx
c010946c:	f7 e2                	mul    %edx
c010946e:	89 d0                	mov    %edx,%eax
c0109470:	c1 e8 12             	shr    $0x12,%eax
c0109473:	89 45 f8             	mov    %eax,-0x8(%ebp)
c0109476:	eb 49                	jmp    c01094c1 <sleep_us+0xbe>
c0109478:	81 7d 08 3f 42 0f 00 	cmpl   $0xf423f,0x8(%ebp)
c010947f:	77 27                	ja     c01094a8 <sleep_us+0xa5>
c0109481:	8b 45 08             	mov    0x8(%ebp),%eax
c0109484:	ba d3 4d 62 10       	mov    $0x10624dd3,%edx
c0109489:	f7 e2                	mul    %edx
c010948b:	c1 ea 06             	shr    $0x6,%edx
c010948e:	8b 81 f4 ff ff ff    	mov    -0xc(%ecx),%eax
c0109494:	0f af c2             	imul   %edx,%eax
c0109497:	ba d3 4d 62 10       	mov    $0x10624dd3,%edx
c010949c:	f7 e2                	mul    %edx
c010949e:	89 d0                	mov    %edx,%eax
c01094a0:	c1 e8 06             	shr    $0x6,%eax
c01094a3:	89 45 f8             	mov    %eax,-0x8(%ebp)
c01094a6:	eb 19                	jmp    c01094c1 <sleep_us+0xbe>
c01094a8:	8b 45 08             	mov    0x8(%ebp),%eax
c01094ab:	ba 83 de 1b 43       	mov    $0x431bde83,%edx
c01094b0:	f7 e2                	mul    %edx
c01094b2:	c1 ea 12             	shr    $0x12,%edx
c01094b5:	8b 81 f4 ff ff ff    	mov    -0xc(%ecx),%eax
c01094bb:	0f af c2             	imul   %edx,%eax
c01094be:	89 45 f8             	mov    %eax,-0x8(%ebp)
c01094c1:	8b 45 f8             	mov    -0x8(%ebp),%eax
c01094c4:	d1 e8                	shr    %eax
c01094c6:	89 45 f8             	mov    %eax,-0x8(%ebp)
c01094c9:	ff 75 f8             	push   -0x8(%ebp)
c01094cc:	e8 bc fe ff ff       	call   c010938d <wait_ticks>
c01094d1:	83 c4 04             	add    $0x4,%esp
c01094d4:	eb 01                	jmp    c01094d7 <sleep_us+0xd4>
c01094d6:	90                   	nop
c01094d7:	8b 5d fc             	mov    -0x4(%ebp),%ebx
c01094da:	c9                   	leave
c01094db:	c3                   	ret

c01094dc <sleep_ms>:
c01094dc:	55                   	push   %ebp
c01094dd:	89 e5                	mov    %esp,%ebp
c01094df:	83 ec 10             	sub    $0x10,%esp
c01094e2:	e8 52 55 00 00       	call   c010ea39 <__x86.get_pc_thunk.ax>
c01094e7:	05 45 91 00 00       	add    $0x9145,%eax
c01094ec:	83 7d 08 00          	cmpl   $0x0,0x8(%ebp)
c01094f0:	74 48                	je     c010953a <sleep_ms+0x5e>
c01094f2:	8b 80 f4 ff ff ff    	mov    -0xc(%eax),%eax
c01094f8:	0f af 45 08          	imul   0x8(%ebp),%eax
c01094fc:	ba d3 4d 62 10       	mov    $0x10624dd3,%edx
c0109501:	f7 e2                	mul    %edx
c0109503:	89 d0                	mov    %edx,%eax
c0109505:	c1 e8 06             	shr    $0x6,%eax
c0109508:	89 45 fc             	mov    %eax,-0x4(%ebp)
c010950b:	83 7d fc 01          	cmpl   $0x1,-0x4(%ebp)
c010950f:	75 14                	jne    c0109525 <sleep_ms+0x49>
c0109511:	8b 45 08             	mov    0x8(%ebp),%eax
c0109514:	69 c0 e8 03 00 00    	imul   $0x3e8,%eax,%eax
c010951a:	50                   	push   %eax
c010951b:	e8 e3 fe ff ff       	call   c0109403 <sleep_us>
c0109520:	83 c4 04             	add    $0x4,%esp
c0109523:	eb 16                	jmp    c010953b <sleep_ms+0x5f>
c0109525:	8b 45 fc             	mov    -0x4(%ebp),%eax
c0109528:	d1 e8                	shr    %eax
c010952a:	89 45 fc             	mov    %eax,-0x4(%ebp)
c010952d:	ff 75 fc             	push   -0x4(%ebp)
c0109530:	e8 58 fe ff ff       	call   c010938d <wait_ticks>
c0109535:	83 c4 04             	add    $0x4,%esp
c0109538:	eb 01                	jmp    c010953b <sleep_ms+0x5f>
c010953a:	90                   	nop
c010953b:	c9                   	leave
c010953c:	c3                   	ret

c010953d <sleep_sec>:
c010953d:	55                   	push   %ebp
c010953e:	89 e5                	mov    %esp,%ebp
c0109540:	83 ec 10             	sub    $0x10,%esp
c0109543:	e8 f1 54 00 00       	call   c010ea39 <__x86.get_pc_thunk.ax>
c0109548:	05 e4 90 00 00       	add    $0x90e4,%eax
c010954d:	83 7d 08 00          	cmpl   $0x0,0x8(%ebp)
c0109551:	74 3e                	je     c0109591 <sleep_sec+0x54>
c0109553:	8b 80 f4 ff ff ff    	mov    -0xc(%eax),%eax
c0109559:	8b 55 08             	mov    0x8(%ebp),%edx
c010955c:	0f af c2             	imul   %edx,%eax
c010955f:	89 45 fc             	mov    %eax,-0x4(%ebp)
c0109562:	83 7d fc 01          	cmpl   $0x1,-0x4(%ebp)
c0109566:	75 14                	jne    c010957c <sleep_sec+0x3f>
c0109568:	8b 45 08             	mov    0x8(%ebp),%eax
c010956b:	69 c0 e8 03 00 00    	imul   $0x3e8,%eax,%eax
c0109571:	50                   	push   %eax
c0109572:	e8 65 ff ff ff       	call   c01094dc <sleep_ms>
c0109577:	83 c4 04             	add    $0x4,%esp
c010957a:	eb 16                	jmp    c0109592 <sleep_sec+0x55>
c010957c:	8b 45 fc             	mov    -0x4(%ebp),%eax
c010957f:	d1 e8                	shr    %eax
c0109581:	89 45 fc             	mov    %eax,-0x4(%ebp)
c0109584:	ff 75 fc             	push   -0x4(%ebp)
c0109587:	e8 01 fe ff ff       	call   c010938d <wait_ticks>
c010958c:	83 c4 04             	add    $0x4,%esp
c010958f:	eb 01                	jmp    c0109592 <sleep_sec+0x55>
c0109591:	90                   	nop
c0109592:	c9                   	leave
c0109593:	c3                   	ret

c0109594 <pit_init>:
c0109594:	55                   	push   %ebp
c0109595:	89 e5                	mov    %esp,%ebp
c0109597:	53                   	push   %ebx
c0109598:	83 ec 14             	sub    $0x14,%esp
c010959b:	e8 9d 54 00 00       	call   c010ea3d <__x86.get_pc_thunk.bx>
c01095a0:	81 c3 8c 90 00 00    	add    $0x908c,%ebx
c01095a6:	b8 de 34 12 00       	mov    $0x1234de,%eax
c01095ab:	3b 45 08             	cmp    0x8(%ebp),%eax
c01095ae:	73 0a                	jae    c01095ba <pit_init+0x26>
c01095b0:	b8 01 00 00 00       	mov    $0x1,%eax
c01095b5:	e9 b3 00 00 00       	jmp    c010966d <pit_init+0xd9>
c01095ba:	e8 61 dd ff ff       	call   c0107320 <disable_int>
c01095bf:	89 45 f4             	mov    %eax,-0xc(%ebp)
c01095c2:	83 7d 08 00          	cmpl   $0x0,0x8(%ebp)
c01095c6:	74 0b                	je     c01095d3 <pit_init+0x3f>
c01095c8:	8b 45 08             	mov    0x8(%ebp),%eax
c01095cb:	89 83 f4 ff ff ff    	mov    %eax,-0xc(%ebx)
c01095d1:	eb 09                	jmp    c01095dc <pit_init+0x48>
c01095d3:	8b 83 f4 ff ff ff    	mov    -0xc(%ebx),%eax
c01095d9:	89 45 08             	mov    %eax,0x8(%ebp)
c01095dc:	83 ec 08             	sub    $0x8,%esp
c01095df:	6a 36                	push   $0x36
c01095e1:	6a 43                	push   $0x43
c01095e3:	e8 5b 23 00 00       	call   c010b943 <outb>
c01095e8:	83 c4 10             	add    $0x10,%esp
c01095eb:	e8 61 25 00 00       	call   c010bb51 <io_wait>
c01095f0:	b8 de 34 12 00       	mov    $0x1234de,%eax
c01095f5:	ba 00 00 00 00       	mov    $0x0,%edx
c01095fa:	f7 75 08             	divl   0x8(%ebp)
c01095fd:	66 89 45 f2          	mov    %ax,-0xe(%ebp)
c0109601:	0f b7 45 f2          	movzwl -0xe(%ebp),%eax
c0109605:	0f b6 c0             	movzbl %al,%eax
c0109608:	83 ec 08             	sub    $0x8,%esp
c010960b:	50                   	push   %eax
c010960c:	6a 40                	push   $0x40
c010960e:	e8 30 23 00 00       	call   c010b943 <outb>
c0109613:	83 c4 10             	add    $0x10,%esp
c0109616:	0f b7 45 f2          	movzwl -0xe(%ebp),%eax
c010961a:	66 c1 e8 08          	shr    $0x8,%ax
c010961e:	0f b6 c0             	movzbl %al,%eax
c0109621:	83 ec 08             	sub    $0x8,%esp
c0109624:	50                   	push   %eax
c0109625:	6a 40                	push   $0x40
c0109627:	e8 17 23 00 00       	call   c010b943 <outb>
c010962c:	83 c4 10             	add    $0x10,%esp
c010962f:	e8 1d 25 00 00       	call   c010bb51 <io_wait>
c0109634:	83 ec 08             	sub    $0x8,%esp
c0109637:	8d 83 d3 6c ff ff    	lea    -0x932d(%ebx),%eax
c010963d:	50                   	push   %eax
c010963e:	6a 00                	push   $0x0
c0109640:	e8 3d eb ff ff       	call   c0108182 <add_irq_handler>
c0109645:	83 c4 10             	add    $0x10,%esp
c0109648:	83 ec 0c             	sub    $0xc,%esp
c010964b:	ff 75 f4             	push   -0xc(%ebp)
c010964e:	e8 d1 dc ff ff       	call   c0107324 <recover_int>
c0109653:	83 c4 10             	add    $0x10,%esp
c0109656:	83 ec 0c             	sub    $0xc,%esp
c0109659:	8d 83 bc cb ff ff    	lea    -0x3444(%ebx),%eax
c010965f:	50                   	push   %eax
c0109660:	e8 7b 21 00 00       	call   c010b7e0 <klog>
c0109665:	83 c4 10             	add    $0x10,%esp
c0109668:	b8 00 00 00 00       	mov    $0x0,%eax
c010966d:	8b 5d fc             	mov    -0x4(%ebp),%ebx
c0109670:	c9                   	leave
c0109671:	c3                   	ret
c0109672:	66 90                	xchg   %ax,%ax
c0109674:	66 90                	xchg   %ax,%ax
c0109676:	66 90                	xchg   %ax,%ax
c0109678:	66 90                	xchg   %ax,%ax
c010967a:	66 90                	xchg   %ax,%ax
c010967c:	66 90                	xchg   %ax,%ax
c010967e:	66 90                	xchg   %ax,%ax

c0109680 <apic_check>:
c0109680:	60                   	pusha
c0109681:	b8 01 00 00 00       	mov    $0x1,%eax
c0109686:	9c                   	pushf
c0109687:	8b 0c 24             	mov    (%esp),%ecx
c010968a:	81 34 24 00 00 20 00 	xorl   $0x200000,(%esp)
c0109691:	9d                   	popf
c0109692:	9c                   	pushf
c0109693:	3b 0c 24             	cmp    (%esp),%ecx
c0109696:	74 0f                	je     c01096a7 <no_cpuid>
c0109698:	9d                   	popf
c0109699:	0f a2                	cpuid
c010969b:	c1 ea 09             	shr    $0x9,%edx
c010969e:	83 e2 01             	and    $0x1,%edx
c01096a1:	89 d0                	mov    %edx,%eax
c01096a3:	50                   	push   %eax
c01096a4:	61                   	popa
c01096a5:	58                   	pop    %eax
c01096a6:	c3                   	ret

c01096a7 <no_cpuid>:
c01096a7:	9d                   	popf
c01096a8:	61                   	popa
c01096a9:	b8 00 00 00 00       	mov    $0x0,%eax
c01096ae:	c3                   	ret

c01096af <apic_available>:
c01096af:	e8 cc ff ff ff       	call   c0109680 <apic_check>
c01096b4:	c3                   	ret

c01096b5 <apic_init>:
c01096b5:	55                   	push   %ebp
c01096b6:	89 e5                	mov    %esp,%ebp
c01096b8:	53                   	push   %ebx
c01096b9:	83 ec 14             	sub    $0x14,%esp
c01096bc:	e8 78 53 00 00       	call   c010ea39 <__x86.get_pc_thunk.ax>
c01096c1:	05 6b 8f 00 00       	add    $0x8f6b,%eax
c01096c6:	c7 45 f4 00 00 00 00 	movl   $0x0,-0xc(%ebp)
c01096cd:	b8 01 00 00 00       	mov    $0x1,%eax
c01096d2:	0f a2                	cpuid
c01096d4:	89 d2                	mov    %edx,%edx
c01096d6:	89 55 f4             	mov    %edx,-0xc(%ebp)
c01096d9:	83 ec 08             	sub    $0x8,%esp
c01096dc:	ff 75 f4             	push   -0xc(%ebp)
c01096df:	8d 90 cd cb ff ff    	lea    -0x3433(%eax),%edx
c01096e5:	52                   	push   %edx
c01096e6:	89 c3                	mov    %eax,%ebx
c01096e8:	e8 f3 20 00 00       	call   c010b7e0 <klog>
c01096ed:	83 c4 10             	add    $0x10,%esp
c01096f0:	90                   	nop
c01096f1:	8b 5d fc             	mov    -0x4(%ebp),%ebx
c01096f4:	c9                   	leave
c01096f5:	c3                   	ret

c01096f6 <outb_wait>:
c01096f6:	55                   	push   %ebp
c01096f7:	89 e5                	mov    %esp,%ebp
c01096f9:	53                   	push   %ebx
c01096fa:	83 ec 14             	sub    $0x14,%esp
c01096fd:	e8 3b 53 00 00       	call   c010ea3d <__x86.get_pc_thunk.bx>
c0109702:	81 c3 2a 8f 00 00    	add    $0x8f2a,%ebx
c0109708:	8b 55 08             	mov    0x8(%ebp),%edx
c010970b:	8b 45 0c             	mov    0xc(%ebp),%eax
c010970e:	66 89 55 f4          	mov    %dx,-0xc(%ebp)
c0109712:	88 45 f0             	mov    %al,-0x10(%ebp)
c0109715:	0f b6 55 f0          	movzbl -0x10(%ebp),%edx
c0109719:	0f b7 45 f4          	movzwl -0xc(%ebp),%eax
c010971d:	83 ec 08             	sub    $0x8,%esp
c0109720:	52                   	push   %edx
c0109721:	50                   	push   %eax
c0109722:	e8 1c 22 00 00       	call   c010b943 <outb>
c0109727:	83 c4 10             	add    $0x10,%esp
c010972a:	e8 22 24 00 00       	call   c010bb51 <io_wait>
c010972f:	90                   	nop
c0109730:	8b 5d fc             	mov    -0x4(%ebp),%ebx
c0109733:	c9                   	leave
c0109734:	c3                   	ret

c0109735 <pic_remap>:
c0109735:	55                   	push   %ebp
c0109736:	89 e5                	mov    %esp,%ebp
c0109738:	53                   	push   %ebx
c0109739:	83 ec 24             	sub    $0x24,%esp
c010973c:	e8 fc 52 00 00       	call   c010ea3d <__x86.get_pc_thunk.bx>
c0109741:	81 c3 eb 8e 00 00    	add    $0x8eeb,%ebx
c0109747:	8b 4d 08             	mov    0x8(%ebp),%ecx
c010974a:	8b 55 0c             	mov    0xc(%ebp),%edx
c010974d:	8b 45 10             	mov    0x10(%ebp),%eax
c0109750:	66 89 4d e4          	mov    %cx,-0x1c(%ebp)
c0109754:	66 89 55 e0          	mov    %dx,-0x20(%ebp)
c0109758:	88 45 dc             	mov    %al,-0x24(%ebp)
c010975b:	83 ec 0c             	sub    $0xc,%esp
c010975e:	6a 21                	push   $0x21
c0109760:	e8 07 22 00 00       	call   c010b96c <inb>
c0109765:	83 c4 10             	add    $0x10,%esp
c0109768:	88 45 f6             	mov    %al,-0xa(%ebp)
c010976b:	83 ec 0c             	sub    $0xc,%esp
c010976e:	68 a1 00 00 00       	push   $0xa1
c0109773:	e8 f4 21 00 00       	call   c010b96c <inb>
c0109778:	83 c4 10             	add    $0x10,%esp
c010977b:	88 45 f5             	mov    %al,-0xb(%ebp)
c010977e:	83 ec 08             	sub    $0x8,%esp
c0109781:	6a 11                	push   $0x11
c0109783:	6a 20                	push   $0x20
c0109785:	e8 6c ff ff ff       	call   c01096f6 <outb_wait>
c010978a:	83 c4 10             	add    $0x10,%esp
c010978d:	83 ec 08             	sub    $0x8,%esp
c0109790:	6a 11                	push   $0x11
c0109792:	68 a0 00 00 00       	push   $0xa0
c0109797:	e8 5a ff ff ff       	call   c01096f6 <outb_wait>
c010979c:	83 c4 10             	add    $0x10,%esp
c010979f:	0f b7 45 e4          	movzwl -0x1c(%ebp),%eax
c01097a3:	0f b6 c0             	movzbl %al,%eax
c01097a6:	83 ec 08             	sub    $0x8,%esp
c01097a9:	50                   	push   %eax
c01097aa:	6a 21                	push   $0x21
c01097ac:	e8 45 ff ff ff       	call   c01096f6 <outb_wait>
c01097b1:	83 c4 10             	add    $0x10,%esp
c01097b4:	0f b7 45 e0          	movzwl -0x20(%ebp),%eax
c01097b8:	0f b6 c0             	movzbl %al,%eax
c01097bb:	83 ec 08             	sub    $0x8,%esp
c01097be:	50                   	push   %eax
c01097bf:	68 a1 00 00 00       	push   $0xa1
c01097c4:	e8 2d ff ff ff       	call   c01096f6 <outb_wait>
c01097c9:	83 c4 10             	add    $0x10,%esp
c01097cc:	83 ec 08             	sub    $0x8,%esp
c01097cf:	6a 04                	push   $0x4
c01097d1:	6a 21                	push   $0x21
c01097d3:	e8 1e ff ff ff       	call   c01096f6 <outb_wait>
c01097d8:	83 c4 10             	add    $0x10,%esp
c01097db:	83 ec 08             	sub    $0x8,%esp
c01097de:	6a 02                	push   $0x2
c01097e0:	68 a1 00 00 00       	push   $0xa1
c01097e5:	e8 0c ff ff ff       	call   c01096f6 <outb_wait>
c01097ea:	83 c4 10             	add    $0x10,%esp
c01097ed:	c6 45 f7 01          	movb   $0x1,-0x9(%ebp)
c01097f1:	80 7d dc 00          	cmpb   $0x0,-0x24(%ebp)
c01097f5:	74 04                	je     c01097fb <pic_remap+0xc6>
c01097f7:	80 4d f7 02          	orb    $0x2,-0x9(%ebp)
c01097fb:	0f b6 45 f7          	movzbl -0x9(%ebp),%eax
c01097ff:	83 ec 08             	sub    $0x8,%esp
c0109802:	50                   	push   %eax
c0109803:	6a 21                	push   $0x21
c0109805:	e8 ec fe ff ff       	call   c01096f6 <outb_wait>
c010980a:	83 c4 10             	add    $0x10,%esp
c010980d:	0f b6 45 f7          	movzbl -0x9(%ebp),%eax
c0109811:	83 ec 08             	sub    $0x8,%esp
c0109814:	50                   	push   %eax
c0109815:	68 a1 00 00 00       	push   $0xa1
c010981a:	e8 d7 fe ff ff       	call   c01096f6 <outb_wait>
c010981f:	83 c4 10             	add    $0x10,%esp
c0109822:	0f b6 45 f6          	movzbl -0xa(%ebp),%eax
c0109826:	83 ec 08             	sub    $0x8,%esp
c0109829:	50                   	push   %eax
c010982a:	6a 21                	push   $0x21
c010982c:	e8 12 21 00 00       	call   c010b943 <outb>
c0109831:	83 c4 10             	add    $0x10,%esp
c0109834:	0f b6 45 f5          	movzbl -0xb(%ebp),%eax
c0109838:	83 ec 08             	sub    $0x8,%esp
c010983b:	50                   	push   %eax
c010983c:	68 a1 00 00 00       	push   $0xa1
c0109841:	e8 fd 20 00 00       	call   c010b943 <outb>
c0109846:	83 c4 10             	add    $0x10,%esp
c0109849:	90                   	nop
c010984a:	8b 5d fc             	mov    -0x4(%ebp),%ebx
c010984d:	c9                   	leave
c010984e:	c3                   	ret

c010984f <pic_get_irq_reg>:
c010984f:	55                   	push   %ebp
c0109850:	89 e5                	mov    %esp,%ebp
c0109852:	56                   	push   %esi
c0109853:	53                   	push   %ebx
c0109854:	e8 e4 51 00 00       	call   c010ea3d <__x86.get_pc_thunk.bx>
c0109859:	81 c3 d3 8d 00 00    	add    $0x8dd3,%ebx
c010985f:	8b 45 08             	mov    0x8(%ebp),%eax
c0109862:	83 c8 08             	or     $0x8,%eax
c0109865:	0f b6 c0             	movzbl %al,%eax
c0109868:	83 ec 08             	sub    $0x8,%esp
c010986b:	50                   	push   %eax
c010986c:	6a 20                	push   $0x20
c010986e:	e8 d0 20 00 00       	call   c010b943 <outb>
c0109873:	83 c4 10             	add    $0x10,%esp
c0109876:	8b 45 08             	mov    0x8(%ebp),%eax
c0109879:	83 c8 08             	or     $0x8,%eax
c010987c:	0f b6 c0             	movzbl %al,%eax
c010987f:	83 ec 08             	sub    $0x8,%esp
c0109882:	50                   	push   %eax
c0109883:	68 a0 00 00 00       	push   $0xa0
c0109888:	e8 b6 20 00 00       	call   c010b943 <outb>
c010988d:	83 c4 10             	add    $0x10,%esp
c0109890:	83 ec 0c             	sub    $0xc,%esp
c0109893:	68 a0 00 00 00       	push   $0xa0
c0109898:	e8 cf 20 00 00       	call   c010b96c <inb>
c010989d:	83 c4 10             	add    $0x10,%esp
c01098a0:	0f b6 c0             	movzbl %al,%eax
c01098a3:	c1 e0 08             	shl    $0x8,%eax
c01098a6:	89 c6                	mov    %eax,%esi
c01098a8:	83 ec 0c             	sub    $0xc,%esp
c01098ab:	6a 20                	push   $0x20
c01098ad:	e8 ba 20 00 00       	call   c010b96c <inb>
c01098b2:	83 c4 10             	add    $0x10,%esp
c01098b5:	0f b6 c0             	movzbl %al,%eax
c01098b8:	09 f0                	or     %esi,%eax
c01098ba:	8d 65 f8             	lea    -0x8(%ebp),%esp
c01098bd:	5b                   	pop    %ebx
c01098be:	5e                   	pop    %esi
c01098bf:	5d                   	pop    %ebp
c01098c0:	c3                   	ret

c01098c1 <pic_get_irr>:
c01098c1:	55                   	push   %ebp
c01098c2:	89 e5                	mov    %esp,%ebp
c01098c4:	83 ec 08             	sub    $0x8,%esp
c01098c7:	e8 6d 51 00 00       	call   c010ea39 <__x86.get_pc_thunk.ax>
c01098cc:	05 60 8d 00 00       	add    $0x8d60,%eax
c01098d1:	83 ec 0c             	sub    $0xc,%esp
c01098d4:	6a 02                	push   $0x2
c01098d6:	e8 74 ff ff ff       	call   c010984f <pic_get_irq_reg>
c01098db:	83 c4 10             	add    $0x10,%esp
c01098de:	c9                   	leave
c01098df:	c3                   	ret

c01098e0 <pic_get_isr>:
c01098e0:	55                   	push   %ebp
c01098e1:	89 e5                	mov    %esp,%ebp
c01098e3:	83 ec 08             	sub    $0x8,%esp
c01098e6:	e8 4e 51 00 00       	call   c010ea39 <__x86.get_pc_thunk.ax>
c01098eb:	05 41 8d 00 00       	add    $0x8d41,%eax
c01098f0:	83 ec 0c             	sub    $0xc,%esp
c01098f3:	6a 03                	push   $0x3
c01098f5:	e8 55 ff ff ff       	call   c010984f <pic_get_irq_reg>
c01098fa:	83 c4 10             	add    $0x10,%esp
c01098fd:	c9                   	leave
c01098fe:	c3                   	ret

c01098ff <pic_mask>:
c01098ff:	55                   	push   %ebp
c0109900:	89 e5                	mov    %esp,%ebp
c0109902:	56                   	push   %esi
c0109903:	53                   	push   %ebx
c0109904:	83 ec 20             	sub    $0x20,%esp
c0109907:	e8 2d 51 00 00       	call   c010ea39 <__x86.get_pc_thunk.ax>
c010990c:	05 20 8d 00 00       	add    $0x8d20,%eax
c0109911:	8b 55 08             	mov    0x8(%ebp),%edx
c0109914:	88 55 e4             	mov    %dl,-0x1c(%ebp)
c0109917:	66 c7 45 f6 21 00    	movw   $0x21,-0xa(%ebp)
c010991d:	80 7d e4 07          	cmpb   $0x7,-0x1c(%ebp)
c0109921:	76 0a                	jbe    c010992d <pic_mask+0x2e>
c0109923:	66 c7 45 f6 a1 00    	movw   $0xa1,-0xa(%ebp)
c0109929:	80 6d e4 08          	subb   $0x8,-0x1c(%ebp)
c010992d:	0f b7 90 6c 7e 00 00 	movzwl 0x7e6c(%eax),%edx
c0109934:	89 d6                	mov    %edx,%esi
c0109936:	0f b6 55 e4          	movzbl -0x1c(%ebp),%edx
c010993a:	bb 01 00 00 00       	mov    $0x1,%ebx
c010993f:	89 d1                	mov    %edx,%ecx
c0109941:	d3 e3                	shl    %cl,%ebx
c0109943:	89 da                	mov    %ebx,%edx
c0109945:	09 f2                	or     %esi,%edx
c0109947:	88 55 f5             	mov    %dl,-0xb(%ebp)
c010994a:	0f b6 55 f5          	movzbl -0xb(%ebp),%edx
c010994e:	66 89 90 6c 7e 00 00 	mov    %dx,0x7e6c(%eax)
c0109955:	0f b6 4d f5          	movzbl -0xb(%ebp),%ecx
c0109959:	0f b7 55 f6          	movzwl -0xa(%ebp),%edx
c010995d:	83 ec 08             	sub    $0x8,%esp
c0109960:	51                   	push   %ecx
c0109961:	52                   	push   %edx
c0109962:	89 c3                	mov    %eax,%ebx
c0109964:	e8 da 1f 00 00       	call   c010b943 <outb>
c0109969:	83 c4 10             	add    $0x10,%esp
c010996c:	90                   	nop
c010996d:	8d 65 f8             	lea    -0x8(%ebp),%esp
c0109970:	5b                   	pop    %ebx
c0109971:	5e                   	pop    %esi
c0109972:	5d                   	pop    %ebp
c0109973:	c3                   	ret

c0109974 <pic_mask_set>:
c0109974:	55                   	push   %ebp
c0109975:	89 e5                	mov    %esp,%ebp
c0109977:	53                   	push   %ebx
c0109978:	83 ec 24             	sub    $0x24,%esp
c010997b:	e8 bd 50 00 00       	call   c010ea3d <__x86.get_pc_thunk.bx>
c0109980:	81 c3 ac 8c 00 00    	add    $0x8cac,%ebx
c0109986:	8b 45 08             	mov    0x8(%ebp),%eax
c0109989:	66 89 45 e4          	mov    %ax,-0x1c(%ebp)
c010998d:	0f b7 45 e4          	movzwl -0x1c(%ebp),%eax
c0109991:	88 45 f7             	mov    %al,-0x9(%ebp)
c0109994:	0f b7 45 e4          	movzwl -0x1c(%ebp),%eax
c0109998:	66 c1 e8 08          	shr    $0x8,%ax
c010999c:	88 45 f6             	mov    %al,-0xa(%ebp)
c010999f:	0f b7 45 e4          	movzwl -0x1c(%ebp),%eax
c01099a3:	66 89 83 6c 7e 00 00 	mov    %ax,0x7e6c(%ebx)
c01099aa:	0f b6 45 f7          	movzbl -0x9(%ebp),%eax
c01099ae:	83 ec 08             	sub    $0x8,%esp
c01099b1:	50                   	push   %eax
c01099b2:	6a 21                	push   $0x21
c01099b4:	e8 8a 1f 00 00       	call   c010b943 <outb>
c01099b9:	83 c4 10             	add    $0x10,%esp
c01099bc:	0f b6 45 f6          	movzbl -0xa(%ebp),%eax
c01099c0:	83 ec 08             	sub    $0x8,%esp
c01099c3:	50                   	push   %eax
c01099c4:	68 a1 00 00 00       	push   $0xa1
c01099c9:	e8 75 1f 00 00       	call   c010b943 <outb>
c01099ce:	83 c4 10             	add    $0x10,%esp
c01099d1:	90                   	nop
c01099d2:	8b 5d fc             	mov    -0x4(%ebp),%ebx
c01099d5:	c9                   	leave
c01099d6:	c3                   	ret

c01099d7 <pic_mask_clear>:
c01099d7:	55                   	push   %ebp
c01099d8:	89 e5                	mov    %esp,%ebp
c01099da:	53                   	push   %ebx
c01099db:	83 ec 24             	sub    $0x24,%esp
c01099de:	e8 5a 50 00 00       	call   c010ea3d <__x86.get_pc_thunk.bx>
c01099e3:	81 c3 49 8c 00 00    	add    $0x8c49,%ebx
c01099e9:	8b 45 08             	mov    0x8(%ebp),%eax
c01099ec:	66 89 45 e4          	mov    %ax,-0x1c(%ebp)
c01099f0:	0f b7 45 e4          	movzwl -0x1c(%ebp),%eax
c01099f4:	f7 d0                	not    %eax
c01099f6:	88 45 f7             	mov    %al,-0x9(%ebp)
c01099f9:	0f b7 45 e4          	movzwl -0x1c(%ebp),%eax
c01099fd:	66 c1 e8 08          	shr    $0x8,%ax
c0109a01:	f7 d0                	not    %eax
c0109a03:	88 45 f6             	mov    %al,-0xa(%ebp)
c0109a06:	0f b7 45 e4          	movzwl -0x1c(%ebp),%eax
c0109a0a:	66 89 83 6c 7e 00 00 	mov    %ax,0x7e6c(%ebx)
c0109a11:	0f b6 45 f7          	movzbl -0x9(%ebp),%eax
c0109a15:	83 ec 08             	sub    $0x8,%esp
c0109a18:	50                   	push   %eax
c0109a19:	6a 21                	push   $0x21
c0109a1b:	e8 23 1f 00 00       	call   c010b943 <outb>
c0109a20:	83 c4 10             	add    $0x10,%esp
c0109a23:	0f b6 45 f6          	movzbl -0xa(%ebp),%eax
c0109a27:	83 ec 08             	sub    $0x8,%esp
c0109a2a:	50                   	push   %eax
c0109a2b:	68 a1 00 00 00       	push   $0xa1
c0109a30:	e8 0e 1f 00 00       	call   c010b943 <outb>
c0109a35:	83 c4 10             	add    $0x10,%esp
c0109a38:	90                   	nop
c0109a39:	8b 5d fc             	mov    -0x4(%ebp),%ebx
c0109a3c:	c9                   	leave
c0109a3d:	c3                   	ret

c0109a3e <pic_mask_all>:
c0109a3e:	55                   	push   %ebp
c0109a3f:	89 e5                	mov    %esp,%ebp
c0109a41:	83 ec 08             	sub    $0x8,%esp
c0109a44:	e8 f0 4f 00 00       	call   c010ea39 <__x86.get_pc_thunk.ax>
c0109a49:	05 e3 8b 00 00       	add    $0x8be3,%eax
c0109a4e:	83 ec 0c             	sub    $0xc,%esp
c0109a51:	68 ff ff 00 00       	push   $0xffff
c0109a56:	e8 19 ff ff ff       	call   c0109974 <pic_mask_set>
c0109a5b:	83 c4 10             	add    $0x10,%esp
c0109a5e:	90                   	nop
c0109a5f:	c9                   	leave
c0109a60:	c3                   	ret

c0109a61 <pic_unmask>:
c0109a61:	55                   	push   %ebp
c0109a62:	89 e5                	mov    %esp,%ebp
c0109a64:	56                   	push   %esi
c0109a65:	53                   	push   %ebx
c0109a66:	83 ec 20             	sub    $0x20,%esp
c0109a69:	e8 cb 4f 00 00       	call   c010ea39 <__x86.get_pc_thunk.ax>
c0109a6e:	05 be 8b 00 00       	add    $0x8bbe,%eax
c0109a73:	8b 55 08             	mov    0x8(%ebp),%edx
c0109a76:	88 55 e4             	mov    %dl,-0x1c(%ebp)
c0109a79:	66 c7 45 f6 21 00    	movw   $0x21,-0xa(%ebp)
c0109a7f:	80 7d e4 07          	cmpb   $0x7,-0x1c(%ebp)
c0109a83:	76 0a                	jbe    c0109a8f <pic_unmask+0x2e>
c0109a85:	66 c7 45 f6 a1 00    	movw   $0xa1,-0xa(%ebp)
c0109a8b:	80 6d e4 08          	subb   $0x8,-0x1c(%ebp)
c0109a8f:	0f b7 90 6c 7e 00 00 	movzwl 0x7e6c(%eax),%edx
c0109a96:	89 d6                	mov    %edx,%esi
c0109a98:	0f b6 55 e4          	movzbl -0x1c(%ebp),%edx
c0109a9c:	bb 01 00 00 00       	mov    $0x1,%ebx
c0109aa1:	89 d1                	mov    %edx,%ecx
c0109aa3:	d3 e3                	shl    %cl,%ebx
c0109aa5:	89 da                	mov    %ebx,%edx
c0109aa7:	f7 d2                	not    %edx
c0109aa9:	21 f2                	and    %esi,%edx
c0109aab:	88 55 f5             	mov    %dl,-0xb(%ebp)
c0109aae:	0f b6 55 f5          	movzbl -0xb(%ebp),%edx
c0109ab2:	66 89 90 6c 7e 00 00 	mov    %dx,0x7e6c(%eax)
c0109ab9:	0f b6 4d f5          	movzbl -0xb(%ebp),%ecx
c0109abd:	0f b7 55 f6          	movzwl -0xa(%ebp),%edx
c0109ac1:	83 ec 08             	sub    $0x8,%esp
c0109ac4:	51                   	push   %ecx
c0109ac5:	52                   	push   %edx
c0109ac6:	89 c3                	mov    %eax,%ebx
c0109ac8:	e8 76 1e 00 00       	call   c010b943 <outb>
c0109acd:	83 c4 10             	add    $0x10,%esp
c0109ad0:	90                   	nop
c0109ad1:	8d 65 f8             	lea    -0x8(%ebp),%esp
c0109ad4:	5b                   	pop    %ebx
c0109ad5:	5e                   	pop    %esi
c0109ad6:	5d                   	pop    %ebp
c0109ad7:	c3                   	ret

c0109ad8 <pic_eoi>:
c0109ad8:	55                   	push   %ebp
c0109ad9:	89 e5                	mov    %esp,%ebp
c0109adb:	53                   	push   %ebx
c0109adc:	83 ec 14             	sub    $0x14,%esp
c0109adf:	e8 59 4f 00 00       	call   c010ea3d <__x86.get_pc_thunk.bx>
c0109ae4:	81 c3 48 8b 00 00    	add    $0x8b48,%ebx
c0109aea:	8b 45 08             	mov    0x8(%ebp),%eax
c0109aed:	88 45 f4             	mov    %al,-0xc(%ebp)
c0109af0:	80 7d f4 27          	cmpb   $0x27,-0xc(%ebp)
c0109af4:	76 12                	jbe    c0109b08 <pic_eoi+0x30>
c0109af6:	83 ec 08             	sub    $0x8,%esp
c0109af9:	6a 20                	push   $0x20
c0109afb:	68 a0 00 00 00       	push   $0xa0
c0109b00:	e8 3e 1e 00 00       	call   c010b943 <outb>
c0109b05:	83 c4 10             	add    $0x10,%esp
c0109b08:	83 ec 08             	sub    $0x8,%esp
c0109b0b:	6a 20                	push   $0x20
c0109b0d:	6a 20                	push   $0x20
c0109b0f:	e8 2f 1e 00 00       	call   c010b943 <outb>
c0109b14:	83 c4 10             	add    $0x10,%esp
c0109b17:	90                   	nop
c0109b18:	8b 5d fc             	mov    -0x4(%ebp),%ebx
c0109b1b:	c9                   	leave
c0109b1c:	c3                   	ret

c0109b1d <pic_init>:
c0109b1d:	55                   	push   %ebp
c0109b1e:	89 e5                	mov    %esp,%ebp
c0109b20:	83 ec 18             	sub    $0x18,%esp
c0109b23:	e8 11 4f 00 00       	call   c010ea39 <__x86.get_pc_thunk.ax>
c0109b28:	05 04 8b 00 00       	add    $0x8b04,%eax
c0109b2d:	8b 55 08             	mov    0x8(%ebp),%edx
c0109b30:	8b 45 0c             	mov    0xc(%ebp),%eax
c0109b33:	66 89 55 f4          	mov    %dx,-0xc(%ebp)
c0109b37:	88 45 f0             	mov    %al,-0x10(%ebp)
c0109b3a:	0f b6 45 f0          	movzbl -0x10(%ebp),%eax
c0109b3e:	83 ec 04             	sub    $0x4,%esp
c0109b41:	50                   	push   %eax
c0109b42:	6a 28                	push   $0x28
c0109b44:	6a 20                	push   $0x20
c0109b46:	e8 ea fb ff ff       	call   c0109735 <pic_remap>
c0109b4b:	83 c4 10             	add    $0x10,%esp
c0109b4e:	e8 eb fe ff ff       	call   c0109a3e <pic_mask_all>
c0109b53:	66 83 7d f4 00       	cmpw   $0x0,-0xc(%ebp)
c0109b58:	74 10                	je     c0109b6a <pic_init+0x4d>
c0109b5a:	0f b7 45 f4          	movzwl -0xc(%ebp),%eax
c0109b5e:	83 ec 0c             	sub    $0xc,%esp
c0109b61:	50                   	push   %eax
c0109b62:	e8 70 fe ff ff       	call   c01099d7 <pic_mask_clear>
c0109b67:	83 c4 10             	add    $0x10,%esp
c0109b6a:	90                   	nop
c0109b6b:	c9                   	leave
c0109b6c:	c3                   	ret

c0109b6d <write_fb_sync>:
c0109b6d:	55                   	push   %ebp
c0109b6e:	89 e5                	mov    %esp,%ebp
c0109b70:	83 ec 04             	sub    $0x4,%esp
c0109b73:	e8 c1 4e 00 00       	call   c010ea39 <__x86.get_pc_thunk.ax>
c0109b78:	05 b4 8a 00 00       	add    $0x8ab4,%eax
c0109b7d:	8b 55 08             	mov    0x8(%ebp),%edx
c0109b80:	66 89 55 fc          	mov    %dx,-0x4(%ebp)
c0109b84:	8b 80 f8 ff ff ff    	mov    -0x8(%eax),%eax
c0109b8a:	0f b7 55 fc          	movzwl -0x4(%ebp),%edx
c0109b8e:	01 d2                	add    %edx,%edx
c0109b90:	01 c2                	add    %eax,%edx
c0109b92:	0f b7 45 0c          	movzwl 0xc(%ebp),%eax
c0109b96:	66 89 02             	mov    %ax,(%edx)
c0109b99:	90                   	nop
c0109b9a:	c9                   	leave
c0109b9b:	c3                   	ret

c0109b9c <write_fb_local>:
c0109b9c:	55                   	push   %ebp
c0109b9d:	89 e5                	mov    %esp,%ebp
c0109b9f:	83 ec 04             	sub    $0x4,%esp
c0109ba2:	e8 92 4e 00 00       	call   c010ea39 <__x86.get_pc_thunk.ax>
c0109ba7:	05 85 8a 00 00       	add    $0x8a85,%eax
c0109bac:	8b 55 08             	mov    0x8(%ebp),%edx
c0109baf:	66 89 55 fc          	mov    %dx,-0x4(%ebp)
c0109bb3:	8b 90 f8 ff ff ff    	mov    -0x8(%eax),%edx
c0109bb9:	0f b7 4d fc          	movzwl -0x4(%ebp),%ecx
c0109bbd:	01 c9                	add    %ecx,%ecx
c0109bbf:	01 d1                	add    %edx,%ecx
c0109bc1:	0f b7 55 0c          	movzwl 0xc(%ebp),%edx
c0109bc5:	66 89 11             	mov    %dx,(%ecx)
c0109bc8:	0f b6 4d 0c          	movzbl 0xc(%ebp),%ecx
c0109bcc:	0f b7 55 fc          	movzwl -0x4(%ebp),%edx
c0109bd0:	88 8c 10 74 7e 00 00 	mov    %cl,0x7e74(%eax,%edx,1)
c0109bd7:	90                   	nop
c0109bd8:	c9                   	leave
c0109bd9:	c3                   	ret

c0109bda <set_fb_pos>:
c0109bda:	55                   	push   %ebp
c0109bdb:	89 e5                	mov    %esp,%ebp
c0109bdd:	83 ec 04             	sub    $0x4,%esp
c0109be0:	e8 54 4e 00 00       	call   c010ea39 <__x86.get_pc_thunk.ax>
c0109be5:	05 47 8a 00 00       	add    $0x8a47,%eax
c0109bea:	8b 55 08             	mov    0x8(%ebp),%edx
c0109bed:	66 89 55 fc          	mov    %dx,-0x4(%ebp)
c0109bf1:	0f b7 55 fc          	movzwl -0x4(%ebp),%edx
c0109bf5:	66 89 90 44 86 00 00 	mov    %dx,0x8644(%eax)
c0109bfc:	0f b7 55 fc          	movzwl -0x4(%ebp),%edx
c0109c00:	89 90 1c 00 00 00    	mov    %edx,0x1c(%eax)
c0109c06:	90                   	nop
c0109c07:	c9                   	leave
c0109c08:	c3                   	ret

c0109c09 <scroll>:
c0109c09:	55                   	push   %ebp
c0109c0a:	89 e5                	mov    %esp,%ebp
c0109c0c:	53                   	push   %ebx
c0109c0d:	83 ec 14             	sub    $0x14,%esp
c0109c10:	e8 28 4e 00 00       	call   c010ea3d <__x86.get_pc_thunk.bx>
c0109c15:	81 c3 17 8a 00 00    	add    $0x8a17,%ebx
c0109c1b:	66 c7 45 f6 50 00    	movw   $0x50,-0xa(%ebp)
c0109c21:	eb 50                	jmp    c0109c73 <scroll+0x6a>
c0109c23:	8b 83 24 00 00 00    	mov    0x24(%ebx),%eax
c0109c29:	8b 93 f8 ff ff ff    	mov    -0x8(%ebx),%edx
c0109c2f:	0f b7 4d f6          	movzwl -0xa(%ebp),%ecx
c0109c33:	01 c9                	add    %ecx,%ecx
c0109c35:	01 d1                	add    %edx,%ecx
c0109c37:	0f b7 55 f6          	movzwl -0xa(%ebp),%edx
c0109c3b:	83 ea 50             	sub    $0x50,%edx
c0109c3e:	0f b7 d2             	movzwl %dx,%edx
c0109c41:	83 ec 08             	sub    $0x8,%esp
c0109c44:	0f b7 09             	movzwl (%ecx),%ecx
c0109c47:	51                   	push   %ecx
c0109c48:	52                   	push   %edx
c0109c49:	ff d0                	call   *%eax
c0109c4b:	83 c4 10             	add    $0x10,%esp
c0109c4e:	0f b7 45 f6          	movzwl -0xa(%ebp),%eax
c0109c52:	0f b7 55 f6          	movzwl -0xa(%ebp),%edx
c0109c56:	83 ea 50             	sub    $0x50,%edx
c0109c59:	0f b6 84 03 54 86 00 	movzbl 0x8654(%ebx,%eax,1),%eax
c0109c60:	00 
c0109c61:	88 84 13 54 86 00 00 	mov    %al,0x8654(%ebx,%edx,1)
c0109c68:	0f b7 45 f6          	movzwl -0xa(%ebp),%eax
c0109c6c:	83 c0 01             	add    $0x1,%eax
c0109c6f:	66 89 45 f6          	mov    %ax,-0xa(%ebp)
c0109c73:	66 81 7d f6 cf 07    	cmpw   $0x7cf,-0xa(%ebp)
c0109c79:	76 a8                	jbe    c0109c23 <scroll+0x1a>
c0109c7b:	66 c7 45 f4 80 07    	movw   $0x780,-0xc(%ebp)
c0109c81:	eb 3a                	jmp    c0109cbd <scroll+0xb4>
c0109c83:	8b 83 24 00 00 00    	mov    0x24(%ebx),%eax
c0109c89:	b9 00 00 00 00       	mov    $0x0,%ecx
c0109c8e:	0f b7 55 f4          	movzwl -0xc(%ebp),%edx
c0109c92:	83 ec 08             	sub    $0x8,%esp
c0109c95:	51                   	push   %ecx
c0109c96:	52                   	push   %edx
c0109c97:	ff d0                	call   *%eax
c0109c99:	83 c4 10             	add    $0x10,%esp
c0109c9c:	0f b7 45 f4          	movzwl -0xc(%ebp),%eax
c0109ca0:	0f b6 94 03 54 86 00 	movzbl 0x8654(%ebx,%eax,1),%edx
c0109ca7:	00 
c0109ca8:	83 e2 fe             	and    $0xfffffffe,%edx
c0109cab:	88 94 03 54 86 00 00 	mov    %dl,0x8654(%ebx,%eax,1)
c0109cb2:	0f b7 45 f4          	movzwl -0xc(%ebp),%eax
c0109cb6:	83 c0 01             	add    $0x1,%eax
c0109cb9:	66 89 45 f4          	mov    %ax,-0xc(%ebp)
c0109cbd:	66 81 7d f4 cf 07    	cmpw   $0x7cf,-0xc(%ebp)
c0109cc3:	76 be                	jbe    c0109c83 <scroll+0x7a>
c0109cc5:	0f b7 83 44 86 00 00 	movzwl 0x8644(%ebx),%eax
c0109ccc:	83 e8 50             	sub    $0x50,%eax
c0109ccf:	0f b7 c0             	movzwl %ax,%eax
c0109cd2:	83 ec 0c             	sub    $0xc,%esp
c0109cd5:	50                   	push   %eax
c0109cd6:	e8 ff fe ff ff       	call   c0109bda <set_fb_pos>
c0109cdb:	83 c4 10             	add    $0x10,%esp
c0109cde:	90                   	nop
c0109cdf:	8b 5d fc             	mov    -0x4(%ebp),%ebx
c0109ce2:	c9                   	leave
c0109ce3:	c3                   	ret

c0109ce4 <fb_flush>:
c0109ce4:	55                   	push   %ebp
c0109ce5:	89 e5                	mov    %esp,%ebp
c0109ce7:	53                   	push   %ebx
c0109ce8:	83 ec 14             	sub    $0x14,%esp
c0109ceb:	e8 4d 4d 00 00       	call   c010ea3d <__x86.get_pc_thunk.bx>
c0109cf0:	81 c3 3c 89 00 00    	add    $0x893c,%ebx
c0109cf6:	8d 83 41 75 ff ff    	lea    -0x8abf(%ebx),%eax
c0109cfc:	89 83 24 00 00 00    	mov    %eax,0x24(%ebx)
c0109d02:	0f b7 83 44 86 00 00 	movzwl 0x8644(%ebx),%eax
c0109d09:	0f b7 c0             	movzwl %ax,%eax
c0109d0c:	89 45 f4             	mov    %eax,-0xc(%ebp)
c0109d0f:	eb 21                	jmp    c0109d32 <fb_flush+0x4e>
c0109d11:	8d 93 74 7e 00 00    	lea    0x7e74(%ebx),%edx
c0109d17:	8b 45 f4             	mov    -0xc(%ebp),%eax
c0109d1a:	01 d0                	add    %edx,%eax
c0109d1c:	0f b6 00             	movzbl (%eax),%eax
c0109d1f:	0f b6 c0             	movzbl %al,%eax
c0109d22:	83 ec 0c             	sub    $0xc,%esp
c0109d25:	50                   	push   %eax
c0109d26:	e8 75 03 00 00       	call   c010a0a0 <fb_putc>
c0109d2b:	83 c4 10             	add    $0x10,%esp
c0109d2e:	83 45 f4 01          	addl   $0x1,-0xc(%ebp)
c0109d32:	8b 83 1c 00 00 00    	mov    0x1c(%ebx),%eax
c0109d38:	3b 45 f4             	cmp    -0xc(%ebp),%eax
c0109d3b:	73 d4                	jae    c0109d11 <fb_flush+0x2d>
c0109d3d:	8d 83 70 75 ff ff    	lea    -0x8a90(%ebx),%eax
c0109d43:	89 83 24 00 00 00    	mov    %eax,0x24(%ebx)
c0109d49:	90                   	nop
c0109d4a:	8b 5d fc             	mov    -0x4(%ebp),%ebx
c0109d4d:	c9                   	leave
c0109d4e:	c3                   	ret

c0109d4f <fb_putc_attrs>:
c0109d4f:	55                   	push   %ebp
c0109d50:	89 e5                	mov    %esp,%ebp
c0109d52:	83 ec 18             	sub    $0x18,%esp
c0109d55:	e8 df 4c 00 00       	call   c010ea39 <__x86.get_pc_thunk.ax>
c0109d5a:	05 d2 88 00 00       	add    $0x88d2,%eax
c0109d5f:	8b 55 08             	mov    0x8(%ebp),%edx
c0109d62:	88 55 f4             	mov    %dl,-0xc(%ebp)
c0109d65:	0f b7 90 44 86 00 00 	movzwl 0x8644(%eax),%edx
c0109d6c:	0f b7 d2             	movzwl %dx,%edx
c0109d6f:	0f b6 4d 0c          	movzbl 0xc(%ebp),%ecx
c0109d73:	88 8c 10 54 86 00 00 	mov    %cl,0x8654(%eax,%edx,1)
c0109d7a:	0f b6 45 f4          	movzbl -0xc(%ebp),%eax
c0109d7e:	83 ec 0c             	sub    $0xc,%esp
c0109d81:	50                   	push   %eax
c0109d82:	e8 19 03 00 00       	call   c010a0a0 <fb_putc>
c0109d87:	83 c4 10             	add    $0x10,%esp
c0109d8a:	90                   	nop
c0109d8b:	c9                   	leave
c0109d8c:	c3                   	ret

c0109d8d <fb_print_attrs>:
c0109d8d:	55                   	push   %ebp
c0109d8e:	89 e5                	mov    %esp,%ebp
c0109d90:	83 ec 18             	sub    $0x18,%esp
c0109d93:	e8 a1 4c 00 00       	call   c010ea39 <__x86.get_pc_thunk.ax>
c0109d98:	05 94 88 00 00       	add    $0x8894,%eax
c0109d9d:	66 c7 45 f6 00 00    	movw   $0x0,-0xa(%ebp)
c0109da3:	eb 2b                	jmp    c0109dd0 <fb_print_attrs+0x43>
c0109da5:	0f b7 55 f6          	movzwl -0xa(%ebp),%edx
c0109da9:	8b 45 08             	mov    0x8(%ebp),%eax
c0109dac:	01 d0                	add    %edx,%eax
c0109dae:	0f b6 00             	movzbl (%eax),%eax
c0109db1:	0f b6 c0             	movzbl %al,%eax
c0109db4:	83 ec 08             	sub    $0x8,%esp
c0109db7:	0f b6 55 0c          	movzbl 0xc(%ebp),%edx
c0109dbb:	52                   	push   %edx
c0109dbc:	50                   	push   %eax
c0109dbd:	e8 8d ff ff ff       	call   c0109d4f <fb_putc_attrs>
c0109dc2:	83 c4 10             	add    $0x10,%esp
c0109dc5:	0f b7 45 f6          	movzwl -0xa(%ebp),%eax
c0109dc9:	83 c0 01             	add    $0x1,%eax
c0109dcc:	66 89 45 f6          	mov    %ax,-0xa(%ebp)
c0109dd0:	0f b7 55 f6          	movzwl -0xa(%ebp),%edx
c0109dd4:	8b 45 08             	mov    0x8(%ebp),%eax
c0109dd7:	01 d0                	add    %edx,%eax
c0109dd9:	0f b6 00             	movzbl (%eax),%eax
c0109ddc:	84 c0                	test   %al,%al
c0109dde:	75 c5                	jne    c0109da5 <fb_print_attrs+0x18>
c0109de0:	90                   	nop
c0109de1:	90                   	nop
c0109de2:	c9                   	leave
c0109de3:	c3                   	ret

c0109de4 <fb_print_char>:
c0109de4:	55                   	push   %ebp
c0109de5:	89 e5                	mov    %esp,%ebp
c0109de7:	56                   	push   %esi
c0109de8:	53                   	push   %ebx
c0109de9:	83 ec 20             	sub    $0x20,%esp
c0109dec:	e8 4c 4c 00 00       	call   c010ea3d <__x86.get_pc_thunk.bx>
c0109df1:	81 c3 3b 88 00 00    	add    $0x883b,%ebx
c0109df7:	8b 75 08             	mov    0x8(%ebp),%esi
c0109dfa:	8b 4d 0c             	mov    0xc(%ebp),%ecx
c0109dfd:	8b 55 10             	mov    0x10(%ebp),%edx
c0109e00:	8b 45 14             	mov    0x14(%ebp),%eax
c0109e03:	66 89 75 e4          	mov    %si,-0x1c(%ebp)
c0109e07:	88 4d e0             	mov    %cl,-0x20(%ebp)
c0109e0a:	88 55 dc             	mov    %dl,-0x24(%ebp)
c0109e0d:	88 45 d8             	mov    %al,-0x28(%ebp)
c0109e10:	80 7d e0 00          	cmpb   $0x0,-0x20(%ebp)
c0109e14:	0f 84 3f 01 00 00    	je     c0109f59 <fb_print_char+0x175>
c0109e1a:	80 7d e0 0d          	cmpb   $0xd,-0x20(%ebp)
c0109e1e:	0f 84 38 01 00 00    	je     c0109f5c <fb_print_char+0x178>
c0109e24:	0f b6 45 e0          	movzbl -0x20(%ebp),%eax
c0109e28:	88 45 f4             	mov    %al,-0xc(%ebp)
c0109e2b:	0f b6 45 dc          	movzbl -0x24(%ebp),%eax
c0109e2f:	83 e0 0f             	and    $0xf,%eax
c0109e32:	83 e0 0f             	and    $0xf,%eax
c0109e35:	89 c2                	mov    %eax,%edx
c0109e37:	0f b6 45 f5          	movzbl -0xb(%ebp),%eax
c0109e3b:	83 e0 f0             	and    $0xfffffff0,%eax
c0109e3e:	09 d0                	or     %edx,%eax
c0109e40:	88 45 f5             	mov    %al,-0xb(%ebp)
c0109e43:	0f b6 45 d8          	movzbl -0x28(%ebp),%eax
c0109e47:	83 e0 0f             	and    $0xf,%eax
c0109e4a:	c1 e0 04             	shl    $0x4,%eax
c0109e4d:	89 c2                	mov    %eax,%edx
c0109e4f:	0f b6 45 f5          	movzbl -0xb(%ebp),%eax
c0109e53:	83 e0 0f             	and    $0xf,%eax
c0109e56:	09 d0                	or     %edx,%eax
c0109e58:	88 45 f5             	mov    %al,-0xb(%ebp)
c0109e5b:	0f b7 93 44 86 00 00 	movzwl 0x8644(%ebx),%edx
c0109e62:	0f b7 45 e4          	movzwl -0x1c(%ebp),%eax
c0109e66:	01 d0                	add    %edx,%eax
c0109e68:	66 89 45 f6          	mov    %ax,-0xa(%ebp)
c0109e6c:	80 7d e0 0a          	cmpb   $0xa,-0x20(%ebp)
c0109e70:	75 0a                	jne    c0109e7c <fb_print_char+0x98>
c0109e72:	e8 f2 03 00 00       	call   c010a269 <fb_newline>
c0109e77:	e9 e1 00 00 00       	jmp    c0109f5d <fb_print_char+0x179>
c0109e7c:	80 7d e0 09          	cmpb   $0x9,-0x20(%ebp)
c0109e80:	75 17                	jne    c0109e99 <fb_print_char+0xb5>
c0109e82:	83 ec 0c             	sub    $0xc,%esp
c0109e85:	8d 83 e4 cb ff ff    	lea    -0x341c(%ebx),%eax
c0109e8b:	50                   	push   %eax
c0109e8c:	e8 8f 03 00 00       	call   c010a220 <fb_print_black>
c0109e91:	83 c4 10             	add    $0x10,%esp
c0109e94:	e9 c4 00 00 00       	jmp    c0109f5d <fb_print_char+0x179>
c0109e99:	80 7d e0 7f          	cmpb   $0x7f,-0x20(%ebp)
c0109e9d:	75 0a                	jne    c0109ea9 <fb_print_char+0xc5>
c0109e9f:	e8 c0 00 00 00       	call   c0109f64 <fb_delete_char>
c0109ea4:	e9 b4 00 00 00       	jmp    c0109f5d <fb_print_char+0x179>
c0109ea9:	66 81 7d f6 cf 07    	cmpw   $0x7cf,-0xa(%ebp)
c0109eaf:	76 16                	jbe    c0109ec7 <fb_print_char+0xe3>
c0109eb1:	e8 53 fd ff ff       	call   c0109c09 <scroll>
c0109eb6:	0f b7 93 44 86 00 00 	movzwl 0x8644(%ebx),%edx
c0109ebd:	0f b7 45 e4          	movzwl -0x1c(%ebp),%eax
c0109ec1:	01 d0                	add    %edx,%eax
c0109ec3:	66 89 45 f6          	mov    %ax,-0xa(%ebp)
c0109ec7:	8b 83 24 00 00 00    	mov    0x24(%ebx),%eax
c0109ecd:	0f b7 93 44 86 00 00 	movzwl 0x8644(%ebx),%edx
c0109ed4:	0f b7 d2             	movzwl %dx,%edx
c0109ed7:	83 ec 08             	sub    $0x8,%esp
c0109eda:	0f b7 4d f4          	movzwl -0xc(%ebp),%ecx
c0109ede:	51                   	push   %ecx
c0109edf:	52                   	push   %edx
c0109ee0:	ff d0                	call   *%eax
c0109ee2:	83 c4 10             	add    $0x10,%esp
c0109ee5:	0f b7 93 44 86 00 00 	movzwl 0x8644(%ebx),%edx
c0109eec:	0f b7 45 e4          	movzwl -0x1c(%ebp),%eax
c0109ef0:	01 d0                	add    %edx,%eax
c0109ef2:	83 c0 01             	add    $0x1,%eax
c0109ef5:	0f b7 c0             	movzwl %ax,%eax
c0109ef8:	83 ec 0c             	sub    $0xc,%esp
c0109efb:	50                   	push   %eax
c0109efc:	e8 d9 fc ff ff       	call   c0109bda <set_fb_pos>
c0109f01:	83 c4 10             	add    $0x10,%esp
c0109f04:	8b 83 f8 ff ff ff    	mov    -0x8(%ebx),%eax
c0109f0a:	0f b7 93 44 86 00 00 	movzwl 0x8644(%ebx),%edx
c0109f11:	0f b7 d2             	movzwl %dx,%edx
c0109f14:	01 d2                	add    %edx,%edx
c0109f16:	01 d0                	add    %edx,%eax
c0109f18:	0f b6 00             	movzbl (%eax),%eax
c0109f1b:	84 c0                	test   %al,%al
c0109f1d:	75 22                	jne    c0109f41 <fb_print_char+0x15d>
c0109f1f:	c6 45 f4 00          	movb   $0x0,-0xc(%ebp)
c0109f23:	8b 83 24 00 00 00    	mov    0x24(%ebx),%eax
c0109f29:	0f b7 93 44 86 00 00 	movzwl 0x8644(%ebx),%edx
c0109f30:	0f b7 d2             	movzwl %dx,%edx
c0109f33:	83 ec 08             	sub    $0x8,%esp
c0109f36:	0f b7 4d f4          	movzwl -0xc(%ebp),%ecx
c0109f3a:	51                   	push   %ecx
c0109f3b:	52                   	push   %edx
c0109f3c:	ff d0                	call   *%eax
c0109f3e:	83 c4 10             	add    $0x10,%esp
c0109f41:	0f b7 83 44 86 00 00 	movzwl 0x8644(%ebx),%eax
c0109f48:	0f b7 c0             	movzwl %ax,%eax
c0109f4b:	83 ec 0c             	sub    $0xc,%esp
c0109f4e:	50                   	push   %eax
c0109f4f:	e8 b0 08 00 00       	call   c010a804 <fb_mov_cursor>
c0109f54:	83 c4 10             	add    $0x10,%esp
c0109f57:	eb 04                	jmp    c0109f5d <fb_print_char+0x179>
c0109f59:	90                   	nop
c0109f5a:	eb 01                	jmp    c0109f5d <fb_print_char+0x179>
c0109f5c:	90                   	nop
c0109f5d:	8d 65 f8             	lea    -0x8(%ebp),%esp
c0109f60:	5b                   	pop    %ebx
c0109f61:	5e                   	pop    %esi
c0109f62:	5d                   	pop    %ebp
c0109f63:	c3                   	ret

c0109f64 <fb_delete_char>:
c0109f64:	55                   	push   %ebp
c0109f65:	89 e5                	mov    %esp,%ebp
c0109f67:	53                   	push   %ebx
c0109f68:	83 ec 14             	sub    $0x14,%esp
c0109f6b:	e8 cd 4a 00 00       	call   c010ea3d <__x86.get_pc_thunk.bx>
c0109f70:	81 c3 bc 86 00 00    	add    $0x86bc,%ebx
c0109f76:	0f b7 83 44 86 00 00 	movzwl 0x8644(%ebx),%eax
c0109f7d:	0f b7 c0             	movzwl %ax,%eax
c0109f80:	83 e8 01             	sub    $0x1,%eax
c0109f83:	0f b6 84 03 54 86 00 	movzbl 0x8654(%ebx,%eax,1),%eax
c0109f8a:	00 
c0109f8b:	83 e0 01             	and    $0x1,%eax
c0109f8e:	84 c0                	test   %al,%al
c0109f90:	75 6b                	jne    c0109ffd <fb_delete_char+0x99>
c0109f92:	0f b7 83 44 86 00 00 	movzwl 0x8644(%ebx),%eax
c0109f99:	83 e8 01             	sub    $0x1,%eax
c0109f9c:	0f b7 c0             	movzwl %ax,%eax
c0109f9f:	50                   	push   %eax
c0109fa0:	e8 35 fc ff ff       	call   c0109bda <set_fb_pos>
c0109fa5:	83 c4 04             	add    $0x4,%esp
c0109fa8:	8b 83 f8 ff ff ff    	mov    -0x8(%ebx),%eax
c0109fae:	0f b7 93 44 86 00 00 	movzwl 0x8644(%ebx),%edx
c0109fb5:	0f b7 d2             	movzwl %dx,%edx
c0109fb8:	01 d2                	add    %edx,%edx
c0109fba:	01 d0                	add    %edx,%eax
c0109fbc:	0f b7 00             	movzwl (%eax),%eax
c0109fbf:	66 89 45 f6          	mov    %ax,-0xa(%ebp)
c0109fc3:	c6 45 f6 00          	movb   $0x0,-0xa(%ebp)
c0109fc7:	8b 83 24 00 00 00    	mov    0x24(%ebx),%eax
c0109fcd:	0f b7 93 44 86 00 00 	movzwl 0x8644(%ebx),%edx
c0109fd4:	0f b7 d2             	movzwl %dx,%edx
c0109fd7:	83 ec 08             	sub    $0x8,%esp
c0109fda:	0f b7 4d f6          	movzwl -0xa(%ebp),%ecx
c0109fde:	51                   	push   %ecx
c0109fdf:	52                   	push   %edx
c0109fe0:	ff d0                	call   *%eax
c0109fe2:	83 c4 10             	add    $0x10,%esp
c0109fe5:	0f b7 83 44 86 00 00 	movzwl 0x8644(%ebx),%eax
c0109fec:	0f b7 c0             	movzwl %ax,%eax
c0109fef:	83 ec 0c             	sub    $0xc,%esp
c0109ff2:	50                   	push   %eax
c0109ff3:	e8 0c 08 00 00       	call   c010a804 <fb_mov_cursor>
c0109ff8:	83 c4 10             	add    $0x10,%esp
c0109ffb:	eb 01                	jmp    c0109ffe <fb_delete_char+0x9a>
c0109ffd:	90                   	nop
c0109ffe:	8b 5d fc             	mov    -0x4(%ebp),%ebx
c010a001:	c9                   	leave
c010a002:	c3                   	ret

c010a003 <fb_delete_last>:
c010a003:	55                   	push   %ebp
c010a004:	89 e5                	mov    %esp,%ebp
c010a006:	83 ec 28             	sub    $0x28,%esp
c010a009:	e8 2b 4a 00 00       	call   c010ea39 <__x86.get_pc_thunk.ax>
c010a00e:	05 1e 86 00 00       	add    $0x861e,%eax
c010a013:	8b 45 08             	mov    0x8(%ebp),%eax
c010a016:	66 89 45 e4          	mov    %ax,-0x1c(%ebp)
c010a01a:	c7 45 f4 00 00 00 00 	movl   $0x0,-0xc(%ebp)
c010a021:	eb 05                	jmp    c010a028 <fb_delete_last+0x25>
c010a023:	e8 3c ff ff ff       	call   c0109f64 <fb_delete_char>
c010a028:	8b 45 f4             	mov    -0xc(%ebp),%eax
c010a02b:	8d 50 01             	lea    0x1(%eax),%edx
c010a02e:	89 55 f4             	mov    %edx,-0xc(%ebp)
c010a031:	0f b7 55 e4          	movzwl -0x1c(%ebp),%edx
c010a035:	39 d0                	cmp    %edx,%eax
c010a037:	7c ea                	jl     c010a023 <fb_delete_last+0x20>
c010a039:	90                   	nop
c010a03a:	90                   	nop
c010a03b:	c9                   	leave
c010a03c:	c3                   	ret

c010a03d <fb_last_written_buf>:
c010a03d:	55                   	push   %ebp
c010a03e:	89 e5                	mov    %esp,%ebp
c010a040:	83 ec 10             	sub    $0x10,%esp
c010a043:	e8 f1 49 00 00       	call   c010ea39 <__x86.get_pc_thunk.ax>
c010a048:	05 e4 85 00 00       	add    $0x85e4,%eax
c010a04d:	0f b7 90 44 86 00 00 	movzwl 0x8644(%eax),%edx
c010a054:	0f b7 d2             	movzwl %dx,%edx
c010a057:	89 55 fc             	mov    %edx,-0x4(%ebp)
c010a05a:	eb 04                	jmp    c010a060 <fb_last_written_buf+0x23>
c010a05c:	83 6d fc 01          	subl   $0x1,-0x4(%ebp)
c010a060:	8d 88 54 86 00 00    	lea    0x8654(%eax),%ecx
c010a066:	8b 55 fc             	mov    -0x4(%ebp),%edx
c010a069:	01 ca                	add    %ecx,%edx
c010a06b:	0f b6 12             	movzbl (%edx),%edx
c010a06e:	83 e2 01             	and    $0x1,%edx
c010a071:	84 d2                	test   %dl,%dl
c010a073:	74 e7                	je     c010a05c <fb_last_written_buf+0x1f>
c010a075:	0f b7 90 44 86 00 00 	movzwl 0x8644(%eax),%edx
c010a07c:	0f b7 d2             	movzwl %dx,%edx
c010a07f:	2b 55 fc             	sub    -0x4(%ebp),%edx
c010a082:	8d 4a ff             	lea    -0x1(%edx),%ecx
c010a085:	8b 55 0c             	mov    0xc(%ebp),%edx
c010a088:	89 0a                	mov    %ecx,(%edx)
c010a08a:	8b 55 fc             	mov    -0x4(%ebp),%edx
c010a08d:	83 c2 01             	add    $0x1,%edx
c010a090:	8d 80 74 7e 00 00    	lea    0x7e74(%eax),%eax
c010a096:	01 c2                	add    %eax,%edx
c010a098:	8b 45 08             	mov    0x8(%ebp),%eax
c010a09b:	89 10                	mov    %edx,(%eax)
c010a09d:	90                   	nop
c010a09e:	c9                   	leave
c010a09f:	c3                   	ret

c010a0a0 <fb_putc>:
c010a0a0:	55                   	push   %ebp
c010a0a1:	89 e5                	mov    %esp,%ebp
c010a0a3:	83 ec 18             	sub    $0x18,%esp
c010a0a6:	e8 8e 49 00 00       	call   c010ea39 <__x86.get_pc_thunk.ax>
c010a0ab:	05 81 85 00 00       	add    $0x8581,%eax
c010a0b0:	8b 45 08             	mov    0x8(%ebp),%eax
c010a0b3:	88 45 f4             	mov    %al,-0xc(%ebp)
c010a0b6:	0f b6 45 f4          	movzbl -0xc(%ebp),%eax
c010a0ba:	6a 00                	push   $0x0
c010a0bc:	6a 0f                	push   $0xf
c010a0be:	50                   	push   %eax
c010a0bf:	6a 00                	push   $0x0
c010a0c1:	e8 1e fd ff ff       	call   c0109de4 <fb_print_char>
c010a0c6:	83 c4 10             	add    $0x10,%esp
c010a0c9:	90                   	nop
c010a0ca:	c9                   	leave
c010a0cb:	c3                   	ret

c010a0cc <fb_print>:
c010a0cc:	55                   	push   %ebp
c010a0cd:	89 e5                	mov    %esp,%ebp
c010a0cf:	53                   	push   %ebx
c010a0d0:	83 ec 24             	sub    $0x24,%esp
c010a0d3:	e8 61 49 00 00       	call   c010ea39 <__x86.get_pc_thunk.ax>
c010a0d8:	05 54 85 00 00       	add    $0x8554,%eax
c010a0dd:	8b 55 0c             	mov    0xc(%ebp),%edx
c010a0e0:	8b 45 10             	mov    0x10(%ebp),%eax
c010a0e3:	88 55 e4             	mov    %dl,-0x1c(%ebp)
c010a0e6:	88 45 e0             	mov    %al,-0x20(%ebp)
c010a0e9:	66 c7 45 f6 00 00    	movw   $0x0,-0xa(%ebp)
c010a0ef:	eb 2f                	jmp    c010a120 <fb_print+0x54>
c010a0f1:	0f b6 4d e0          	movzbl -0x20(%ebp),%ecx
c010a0f5:	0f b6 55 e4          	movzbl -0x1c(%ebp),%edx
c010a0f9:	0f b7 5d f6          	movzwl -0xa(%ebp),%ebx
c010a0fd:	8b 45 08             	mov    0x8(%ebp),%eax
c010a100:	01 d8                	add    %ebx,%eax
c010a102:	0f b6 00             	movzbl (%eax),%eax
c010a105:	0f b6 c0             	movzbl %al,%eax
c010a108:	51                   	push   %ecx
c010a109:	52                   	push   %edx
c010a10a:	50                   	push   %eax
c010a10b:	6a 00                	push   $0x0
c010a10d:	e8 d2 fc ff ff       	call   c0109de4 <fb_print_char>
c010a112:	83 c4 10             	add    $0x10,%esp
c010a115:	0f b7 45 f6          	movzwl -0xa(%ebp),%eax
c010a119:	83 c0 01             	add    $0x1,%eax
c010a11c:	66 89 45 f6          	mov    %ax,-0xa(%ebp)
c010a120:	0f b7 55 f6          	movzwl -0xa(%ebp),%edx
c010a124:	8b 45 08             	mov    0x8(%ebp),%eax
c010a127:	01 d0                	add    %edx,%eax
c010a129:	0f b6 00             	movzbl (%eax),%eax
c010a12c:	84 c0                	test   %al,%al
c010a12e:	75 c1                	jne    c010a0f1 <fb_print+0x25>
c010a130:	90                   	nop
c010a131:	90                   	nop
c010a132:	8b 5d fc             	mov    -0x4(%ebp),%ebx
c010a135:	c9                   	leave
c010a136:	c3                   	ret

c010a137 <fb_nprint>:
c010a137:	55                   	push   %ebp
c010a138:	89 e5                	mov    %esp,%ebp
c010a13a:	53                   	push   %ebx
c010a13b:	83 ec 24             	sub    $0x24,%esp
c010a13e:	e8 f6 48 00 00       	call   c010ea39 <__x86.get_pc_thunk.ax>
c010a143:	05 e9 84 00 00       	add    $0x84e9,%eax
c010a148:	8b 55 0c             	mov    0xc(%ebp),%edx
c010a14b:	8b 45 10             	mov    0x10(%ebp),%eax
c010a14e:	88 55 e4             	mov    %dl,-0x1c(%ebp)
c010a151:	88 45 e0             	mov    %al,-0x20(%ebp)
c010a154:	c7 45 f4 00 00 00 00 	movl   $0x0,-0xc(%ebp)
c010a15b:	eb 27                	jmp    c010a184 <fb_nprint+0x4d>
c010a15d:	0f b6 4d e0          	movzbl -0x20(%ebp),%ecx
c010a161:	0f b6 55 e4          	movzbl -0x1c(%ebp),%edx
c010a165:	8b 5d 08             	mov    0x8(%ebp),%ebx
c010a168:	8b 45 f4             	mov    -0xc(%ebp),%eax
c010a16b:	01 d8                	add    %ebx,%eax
c010a16d:	0f b6 00             	movzbl (%eax),%eax
c010a170:	0f b6 c0             	movzbl %al,%eax
c010a173:	51                   	push   %ecx
c010a174:	52                   	push   %edx
c010a175:	50                   	push   %eax
c010a176:	6a 00                	push   $0x0
c010a178:	e8 67 fc ff ff       	call   c0109de4 <fb_print_char>
c010a17d:	83 c4 10             	add    $0x10,%esp
c010a180:	83 45 f4 01          	addl   $0x1,-0xc(%ebp)
c010a184:	8b 45 f4             	mov    -0xc(%ebp),%eax
c010a187:	3b 45 14             	cmp    0x14(%ebp),%eax
c010a18a:	73 0f                	jae    c010a19b <fb_nprint+0x64>
c010a18c:	8b 55 08             	mov    0x8(%ebp),%edx
c010a18f:	8b 45 f4             	mov    -0xc(%ebp),%eax
c010a192:	01 d0                	add    %edx,%eax
c010a194:	0f b6 00             	movzbl (%eax),%eax
c010a197:	84 c0                	test   %al,%al
c010a199:	75 c2                	jne    c010a15d <fb_nprint+0x26>
c010a19b:	8b 45 f4             	mov    -0xc(%ebp),%eax
c010a19e:	8b 5d fc             	mov    -0x4(%ebp),%ebx
c010a1a1:	c9                   	leave
c010a1a2:	c3                   	ret

c010a1a3 <fb_put_pixel>:
c010a1a3:	55                   	push   %ebp
c010a1a4:	89 e5                	mov    %esp,%ebp
c010a1a6:	83 ec 08             	sub    $0x8,%esp
c010a1a9:	e8 8b 48 00 00       	call   c010ea39 <__x86.get_pc_thunk.ax>
c010a1ae:	05 7e 84 00 00       	add    $0x847e,%eax
c010a1b3:	0f b6 45 09          	movzbl 0x9(%ebp),%eax
c010a1b7:	c0 e8 04             	shr    $0x4,%al
c010a1ba:	0f b6 d0             	movzbl %al,%edx
c010a1bd:	0f b6 45 08          	movzbl 0x8(%ebp),%eax
c010a1c1:	0f b6 c0             	movzbl %al,%eax
c010a1c4:	52                   	push   %edx
c010a1c5:	6a 0f                	push   $0xf
c010a1c7:	50                   	push   %eax
c010a1c8:	6a 00                	push   $0x0
c010a1ca:	e8 15 fc ff ff       	call   c0109de4 <fb_print_char>
c010a1cf:	83 c4 10             	add    $0x10,%esp
c010a1d2:	90                   	nop
c010a1d3:	c9                   	leave
c010a1d4:	c3                   	ret

c010a1d5 <fb_print_pixels>:
c010a1d5:	55                   	push   %ebp
c010a1d6:	89 e5                	mov    %esp,%ebp
c010a1d8:	83 ec 18             	sub    $0x18,%esp
c010a1db:	e8 59 48 00 00       	call   c010ea39 <__x86.get_pc_thunk.ax>
c010a1e0:	05 4c 84 00 00       	add    $0x844c,%eax
c010a1e5:	66 c7 45 f6 00 00    	movw   $0x0,-0xa(%ebp)
c010a1eb:	eb 26                	jmp    c010a213 <fb_print_pixels+0x3e>
c010a1ed:	0f b7 45 f6          	movzwl -0xa(%ebp),%eax
c010a1f1:	8d 14 00             	lea    (%eax,%eax,1),%edx
c010a1f4:	8b 45 08             	mov    0x8(%ebp),%eax
c010a1f7:	01 d0                	add    %edx,%eax
c010a1f9:	83 ec 0c             	sub    $0xc,%esp
c010a1fc:	0f b7 00             	movzwl (%eax),%eax
c010a1ff:	50                   	push   %eax
c010a200:	e8 9e ff ff ff       	call   c010a1a3 <fb_put_pixel>
c010a205:	83 c4 10             	add    $0x10,%esp
c010a208:	0f b7 45 f6          	movzwl -0xa(%ebp),%eax
c010a20c:	83 c0 01             	add    $0x1,%eax
c010a20f:	66 89 45 f6          	mov    %ax,-0xa(%ebp)
c010a213:	0f b7 45 f6          	movzwl -0xa(%ebp),%eax
c010a217:	3b 45 0c             	cmp    0xc(%ebp),%eax
c010a21a:	72 d1                	jb     c010a1ed <fb_print_pixels+0x18>
c010a21c:	90                   	nop
c010a21d:	90                   	nop
c010a21e:	c9                   	leave
c010a21f:	c3                   	ret

c010a220 <fb_print_black>:
c010a220:	55                   	push   %ebp
c010a221:	89 e5                	mov    %esp,%ebp
c010a223:	83 ec 08             	sub    $0x8,%esp
c010a226:	e8 0e 48 00 00       	call   c010ea39 <__x86.get_pc_thunk.ax>
c010a22b:	05 01 84 00 00       	add    $0x8401,%eax
c010a230:	83 ec 04             	sub    $0x4,%esp
c010a233:	6a 00                	push   $0x0
c010a235:	6a 0f                	push   $0xf
c010a237:	ff 75 08             	push   0x8(%ebp)
c010a23a:	e8 8d fe ff ff       	call   c010a0cc <fb_print>
c010a23f:	83 c4 10             	add    $0x10,%esp
c010a242:	90                   	nop
c010a243:	c9                   	leave
c010a244:	c3                   	ret

c010a245 <fb_nprint_black>:
c010a245:	55                   	push   %ebp
c010a246:	89 e5                	mov    %esp,%ebp
c010a248:	83 ec 08             	sub    $0x8,%esp
c010a24b:	e8 e9 47 00 00       	call   c010ea39 <__x86.get_pc_thunk.ax>
c010a250:	05 dc 83 00 00       	add    $0x83dc,%eax
c010a255:	ff 75 0c             	push   0xc(%ebp)
c010a258:	6a 00                	push   $0x0
c010a25a:	6a 0f                	push   $0xf
c010a25c:	ff 75 08             	push   0x8(%ebp)
c010a25f:	e8 d3 fe ff ff       	call   c010a137 <fb_nprint>
c010a264:	83 c4 10             	add    $0x10,%esp
c010a267:	c9                   	leave
c010a268:	c3                   	ret

c010a269 <fb_newline>:
c010a269:	55                   	push   %ebp
c010a26a:	89 e5                	mov    %esp,%ebp
c010a26c:	56                   	push   %esi
c010a26d:	53                   	push   %ebx
c010a26e:	e8 ca 47 00 00       	call   c010ea3d <__x86.get_pc_thunk.bx>
c010a273:	81 c3 b9 83 00 00    	add    $0x83b9,%ebx
c010a279:	0f b7 b3 44 86 00 00 	movzwl 0x8644(%ebx),%esi
c010a280:	0f b7 8b 44 86 00 00 	movzwl 0x8644(%ebx),%ecx
c010a287:	0f b7 c1             	movzwl %cx,%eax
c010a28a:	69 c0 cd cc 00 00    	imul   $0xcccd,%eax,%eax
c010a290:	c1 e8 10             	shr    $0x10,%eax
c010a293:	89 c2                	mov    %eax,%edx
c010a295:	66 c1 ea 06          	shr    $0x6,%dx
c010a299:	89 d0                	mov    %edx,%eax
c010a29b:	c1 e0 02             	shl    $0x2,%eax
c010a29e:	01 d0                	add    %edx,%eax
c010a2a0:	c1 e0 04             	shl    $0x4,%eax
c010a2a3:	29 c1                	sub    %eax,%ecx
c010a2a5:	89 ca                	mov    %ecx,%edx
c010a2a7:	89 f0                	mov    %esi,%eax
c010a2a9:	29 d0                	sub    %edx,%eax
c010a2ab:	83 c0 50             	add    $0x50,%eax
c010a2ae:	0f b7 c0             	movzwl %ax,%eax
c010a2b1:	50                   	push   %eax
c010a2b2:	e8 23 f9 ff ff       	call   c0109bda <set_fb_pos>
c010a2b7:	83 c4 04             	add    $0x4,%esp
c010a2ba:	0f b7 83 44 86 00 00 	movzwl 0x8644(%ebx),%eax
c010a2c1:	66 3d cf 07          	cmp    $0x7cf,%ax
c010a2c5:	76 05                	jbe    c010a2cc <fb_newline+0x63>
c010a2c7:	e8 3d f9 ff ff       	call   c0109c09 <scroll>
c010a2cc:	90                   	nop
c010a2cd:	8d 65 f8             	lea    -0x8(%ebp),%esp
c010a2d0:	5b                   	pop    %ebx
c010a2d1:	5e                   	pop    %esi
c010a2d2:	5d                   	pop    %ebp
c010a2d3:	c3                   	ret

c010a2d4 <_print_num_rec>:
c010a2d4:	55                   	push   %ebp
c010a2d5:	89 e5                	mov    %esp,%ebp
c010a2d7:	83 ec 18             	sub    $0x18,%esp
c010a2da:	e8 5a 47 00 00       	call   c010ea39 <__x86.get_pc_thunk.ax>
c010a2df:	05 4d 83 00 00       	add    $0x834d,%eax
c010a2e4:	83 7d 08 09          	cmpl   $0x9,0x8(%ebp)
c010a2e8:	76 6c                	jbe    c010a356 <_print_num_rec+0x82>
c010a2ea:	8b 45 08             	mov    0x8(%ebp),%eax
c010a2ed:	ba cd cc cc cc       	mov    $0xcccccccd,%edx
c010a2f2:	f7 e2                	mul    %edx
c010a2f4:	89 d0                	mov    %edx,%eax
c010a2f6:	c1 e8 03             	shr    $0x3,%eax
c010a2f9:	89 45 f0             	mov    %eax,-0x10(%ebp)
c010a2fc:	8b 45 08             	mov    0x8(%ebp),%eax
c010a2ff:	89 c2                	mov    %eax,%edx
c010a301:	8b 45 f0             	mov    -0x10(%ebp),%eax
c010a304:	89 c1                	mov    %eax,%ecx
c010a306:	89 c8                	mov    %ecx,%eax
c010a308:	c1 e0 02             	shl    $0x2,%eax
c010a30b:	01 c8                	add    %ecx,%eax
c010a30d:	01 c0                	add    %eax,%eax
c010a30f:	89 c1                	mov    %eax,%ecx
c010a311:	89 d0                	mov    %edx,%eax
c010a313:	29 c8                	sub    %ecx,%eax
c010a315:	83 c0 30             	add    $0x30,%eax
c010a318:	88 45 ef             	mov    %al,-0x11(%ebp)
c010a31b:	8b 45 0c             	mov    0xc(%ebp),%eax
c010a31e:	8b 00                	mov    (%eax),%eax
c010a320:	8b 55 14             	mov    0x14(%ebp),%edx
c010a323:	29 c2                	sub    %eax,%edx
c010a325:	83 ea 01             	sub    $0x1,%edx
c010a328:	8b 45 10             	mov    0x10(%ebp),%eax
c010a32b:	01 c2                	add    %eax,%edx
c010a32d:	0f b6 45 ef          	movzbl -0x11(%ebp),%eax
c010a331:	88 02                	mov    %al,(%edx)
c010a333:	8b 45 0c             	mov    0xc(%ebp),%eax
c010a336:	8b 00                	mov    (%eax),%eax
c010a338:	8d 50 01             	lea    0x1(%eax),%edx
c010a33b:	8b 45 0c             	mov    0xc(%ebp),%eax
c010a33e:	89 10                	mov    %edx,(%eax)
c010a340:	ff 75 14             	push   0x14(%ebp)
c010a343:	ff 75 10             	push   0x10(%ebp)
c010a346:	ff 75 0c             	push   0xc(%ebp)
c010a349:	ff 75 f0             	push   -0x10(%ebp)
c010a34c:	e8 83 ff ff ff       	call   c010a2d4 <_print_num_rec>
c010a351:	83 c4 10             	add    $0x10,%esp
c010a354:	eb 33                	jmp    c010a389 <_print_num_rec+0xb5>
c010a356:	8b 45 08             	mov    0x8(%ebp),%eax
c010a359:	83 c0 30             	add    $0x30,%eax
c010a35c:	88 45 f7             	mov    %al,-0x9(%ebp)
c010a35f:	8b 45 0c             	mov    0xc(%ebp),%eax
c010a362:	8b 00                	mov    (%eax),%eax
c010a364:	8b 55 14             	mov    0x14(%ebp),%edx
c010a367:	29 c2                	sub    %eax,%edx
c010a369:	83 ea 01             	sub    $0x1,%edx
c010a36c:	8b 45 10             	mov    0x10(%ebp),%eax
c010a36f:	01 c2                	add    %eax,%edx
c010a371:	0f b6 45 f7          	movzbl -0x9(%ebp),%eax
c010a375:	88 02                	mov    %al,(%edx)
c010a377:	8b 45 0c             	mov    0xc(%ebp),%eax
c010a37a:	8b 00                	mov    (%eax),%eax
c010a37c:	8b 55 14             	mov    0x14(%ebp),%edx
c010a37f:	29 c2                	sub    %eax,%edx
c010a381:	83 ea 01             	sub    $0x1,%edx
c010a384:	8b 45 10             	mov    0x10(%ebp),%eax
c010a387:	01 d0                	add    %edx,%eax
c010a389:	c9                   	leave
c010a38a:	c3                   	ret

c010a38b <itoa>:
c010a38b:	55                   	push   %ebp
c010a38c:	89 e5                	mov    %esp,%ebp
c010a38e:	83 ec 18             	sub    $0x18,%esp
c010a391:	e8 a3 46 00 00       	call   c010ea39 <__x86.get_pc_thunk.ax>
c010a396:	05 96 82 00 00       	add    $0x8296,%eax
c010a39b:	c7 45 f0 01 00 00 00 	movl   $0x1,-0x10(%ebp)
c010a3a2:	ff 75 10             	push   0x10(%ebp)
c010a3a5:	ff 75 0c             	push   0xc(%ebp)
c010a3a8:	8d 45 f0             	lea    -0x10(%ebp),%eax
c010a3ab:	50                   	push   %eax
c010a3ac:	ff 75 08             	push   0x8(%ebp)
c010a3af:	e8 20 ff ff ff       	call   c010a2d4 <_print_num_rec>
c010a3b4:	83 c4 10             	add    $0x10,%esp
c010a3b7:	89 45 f4             	mov    %eax,-0xc(%ebp)
c010a3ba:	8b 55 f0             	mov    -0x10(%ebp),%edx
c010a3bd:	8b 45 14             	mov    0x14(%ebp),%eax
c010a3c0:	89 10                	mov    %edx,(%eax)
c010a3c2:	8b 45 f4             	mov    -0xc(%ebp),%eax
c010a3c5:	c9                   	leave
c010a3c6:	c3                   	ret

c010a3c7 <fb_print_num_color>:
c010a3c7:	55                   	push   %ebp
c010a3c8:	89 e5                	mov    %esp,%ebp
c010a3ca:	83 ec 38             	sub    $0x38,%esp
c010a3cd:	e8 67 46 00 00       	call   c010ea39 <__x86.get_pc_thunk.ax>
c010a3d2:	05 5a 82 00 00       	add    $0x825a,%eax
c010a3d7:	8b 55 0c             	mov    0xc(%ebp),%edx
c010a3da:	8b 45 10             	mov    0x10(%ebp),%eax
c010a3dd:	88 55 d4             	mov    %dl,-0x2c(%ebp)
c010a3e0:	88 45 d0             	mov    %al,-0x30(%ebp)
c010a3e3:	c7 45 e0 01 00 00 00 	movl   $0x1,-0x20(%ebp)
c010a3ea:	6a 10                	push   $0x10
c010a3ec:	8d 45 e4             	lea    -0x1c(%ebp),%eax
c010a3ef:	50                   	push   %eax
c010a3f0:	8d 45 e0             	lea    -0x20(%ebp),%eax
c010a3f3:	50                   	push   %eax
c010a3f4:	ff 75 08             	push   0x8(%ebp)
c010a3f7:	e8 d8 fe ff ff       	call   c010a2d4 <_print_num_rec>
c010a3fc:	83 c4 10             	add    $0x10,%esp
c010a3ff:	89 45 f4             	mov    %eax,-0xc(%ebp)
c010a402:	8b 4d e0             	mov    -0x20(%ebp),%ecx
c010a405:	0f b6 55 d0          	movzbl -0x30(%ebp),%edx
c010a409:	0f b6 45 d4          	movzbl -0x2c(%ebp),%eax
c010a40d:	51                   	push   %ecx
c010a40e:	52                   	push   %edx
c010a40f:	50                   	push   %eax
c010a410:	ff 75 f4             	push   -0xc(%ebp)
c010a413:	e8 1f fd ff ff       	call   c010a137 <fb_nprint>
c010a418:	83 c4 10             	add    $0x10,%esp
c010a41b:	90                   	nop
c010a41c:	c9                   	leave
c010a41d:	c3                   	ret

c010a41e <fb_print_num>:
c010a41e:	55                   	push   %ebp
c010a41f:	89 e5                	mov    %esp,%ebp
c010a421:	83 ec 08             	sub    $0x8,%esp
c010a424:	e8 10 46 00 00       	call   c010ea39 <__x86.get_pc_thunk.ax>
c010a429:	05 03 82 00 00       	add    $0x8203,%eax
c010a42e:	83 ec 04             	sub    $0x4,%esp
c010a431:	6a 00                	push   $0x0
c010a433:	6a 0f                	push   $0xf
c010a435:	ff 75 08             	push   0x8(%ebp)
c010a438:	e8 8a ff ff ff       	call   c010a3c7 <fb_print_num_color>
c010a43d:	83 c4 10             	add    $0x10,%esp
c010a440:	90                   	nop
c010a441:	c9                   	leave
c010a442:	c3                   	ret

c010a443 <dec_to_hex>:
c010a443:	55                   	push   %ebp
c010a444:	89 e5                	mov    %esp,%ebp
c010a446:	e8 ee 45 00 00       	call   c010ea39 <__x86.get_pc_thunk.ax>
c010a44b:	05 e1 81 00 00       	add    $0x81e1,%eax
c010a450:	83 7d 08 09          	cmpl   $0x9,0x8(%ebp)
c010a454:	76 08                	jbe    c010a45e <dec_to_hex+0x1b>
c010a456:	8b 45 08             	mov    0x8(%ebp),%eax
c010a459:	83 c0 37             	add    $0x37,%eax
c010a45c:	eb 06                	jmp    c010a464 <dec_to_hex+0x21>
c010a45e:	8b 45 08             	mov    0x8(%ebp),%eax
c010a461:	83 c0 30             	add    $0x30,%eax
c010a464:	5d                   	pop    %ebp
c010a465:	c3                   	ret

c010a466 <_print_hex_rec>:
c010a466:	55                   	push   %ebp
c010a467:	89 e5                	mov    %esp,%ebp
c010a469:	83 ec 18             	sub    $0x18,%esp
c010a46c:	e8 c8 45 00 00       	call   c010ea39 <__x86.get_pc_thunk.ax>
c010a471:	05 bb 81 00 00       	add    $0x81bb,%eax
c010a476:	83 7d 08 0f          	cmpl   $0xf,0x8(%ebp)
c010a47a:	76 5d                	jbe    c010a4d9 <_print_hex_rec+0x73>
c010a47c:	8b 45 08             	mov    0x8(%ebp),%eax
c010a47f:	c1 e8 04             	shr    $0x4,%eax
c010a482:	89 45 f0             	mov    %eax,-0x10(%ebp)
c010a485:	8b 45 f0             	mov    -0x10(%ebp),%eax
c010a488:	c1 e0 04             	shl    $0x4,%eax
c010a48b:	89 c2                	mov    %eax,%edx
c010a48d:	8b 45 08             	mov    0x8(%ebp),%eax
c010a490:	29 d0                	sub    %edx,%eax
c010a492:	50                   	push   %eax
c010a493:	e8 ab ff ff ff       	call   c010a443 <dec_to_hex>
c010a498:	83 c4 04             	add    $0x4,%esp
c010a49b:	88 45 ef             	mov    %al,-0x11(%ebp)
c010a49e:	8b 45 0c             	mov    0xc(%ebp),%eax
c010a4a1:	8b 00                	mov    (%eax),%eax
c010a4a3:	8b 55 14             	mov    0x14(%ebp),%edx
c010a4a6:	29 c2                	sub    %eax,%edx
c010a4a8:	83 ea 01             	sub    $0x1,%edx
c010a4ab:	8b 45 10             	mov    0x10(%ebp),%eax
c010a4ae:	01 c2                	add    %eax,%edx
c010a4b0:	0f b6 45 ef          	movzbl -0x11(%ebp),%eax
c010a4b4:	88 02                	mov    %al,(%edx)
c010a4b6:	8b 45 0c             	mov    0xc(%ebp),%eax
c010a4b9:	8b 00                	mov    (%eax),%eax
c010a4bb:	8d 50 01             	lea    0x1(%eax),%edx
c010a4be:	8b 45 0c             	mov    0xc(%ebp),%eax
c010a4c1:	89 10                	mov    %edx,(%eax)
c010a4c3:	ff 75 14             	push   0x14(%ebp)
c010a4c6:	ff 75 10             	push   0x10(%ebp)
c010a4c9:	ff 75 0c             	push   0xc(%ebp)
c010a4cc:	ff 75 f0             	push   -0x10(%ebp)
c010a4cf:	e8 92 ff ff ff       	call   c010a466 <_print_hex_rec>
c010a4d4:	83 c4 10             	add    $0x10,%esp
c010a4d7:	eb 72                	jmp    c010a54b <_print_hex_rec+0xe5>
c010a4d9:	83 ec 0c             	sub    $0xc,%esp
c010a4dc:	ff 75 08             	push   0x8(%ebp)
c010a4df:	e8 5f ff ff ff       	call   c010a443 <dec_to_hex>
c010a4e4:	83 c4 10             	add    $0x10,%esp
c010a4e7:	88 45 f7             	mov    %al,-0x9(%ebp)
c010a4ea:	8b 45 0c             	mov    0xc(%ebp),%eax
c010a4ed:	8b 00                	mov    (%eax),%eax
c010a4ef:	8b 55 14             	mov    0x14(%ebp),%edx
c010a4f2:	29 c2                	sub    %eax,%edx
c010a4f4:	83 ea 01             	sub    $0x1,%edx
c010a4f7:	8b 45 10             	mov    0x10(%ebp),%eax
c010a4fa:	01 c2                	add    %eax,%edx
c010a4fc:	0f b6 45 f7          	movzbl -0x9(%ebp),%eax
c010a500:	88 02                	mov    %al,(%edx)
c010a502:	8b 45 0c             	mov    0xc(%ebp),%eax
c010a505:	8b 00                	mov    (%eax),%eax
c010a507:	8b 55 14             	mov    0x14(%ebp),%edx
c010a50a:	29 c2                	sub    %eax,%edx
c010a50c:	83 ea 02             	sub    $0x2,%edx
c010a50f:	8b 45 10             	mov    0x10(%ebp),%eax
c010a512:	01 d0                	add    %edx,%eax
c010a514:	c6 00 78             	movb   $0x78,(%eax)
c010a517:	8b 45 0c             	mov    0xc(%ebp),%eax
c010a51a:	8b 00                	mov    (%eax),%eax
c010a51c:	8b 55 14             	mov    0x14(%ebp),%edx
c010a51f:	29 c2                	sub    %eax,%edx
c010a521:	83 ea 03             	sub    $0x3,%edx
c010a524:	8b 45 10             	mov    0x10(%ebp),%eax
c010a527:	01 d0                	add    %edx,%eax
c010a529:	c6 00 30             	movb   $0x30,(%eax)
c010a52c:	8b 45 0c             	mov    0xc(%ebp),%eax
c010a52f:	8b 00                	mov    (%eax),%eax
c010a531:	8d 50 02             	lea    0x2(%eax),%edx
c010a534:	8b 45 0c             	mov    0xc(%ebp),%eax
c010a537:	89 10                	mov    %edx,(%eax)
c010a539:	8b 45 0c             	mov    0xc(%ebp),%eax
c010a53c:	8b 00                	mov    (%eax),%eax
c010a53e:	8b 55 14             	mov    0x14(%ebp),%edx
c010a541:	29 c2                	sub    %eax,%edx
c010a543:	83 ea 01             	sub    $0x1,%edx
c010a546:	8b 45 10             	mov    0x10(%ebp),%eax
c010a549:	01 d0                	add    %edx,%eax
c010a54b:	c9                   	leave
c010a54c:	c3                   	ret

c010a54d <fb_print_hex_color>:
c010a54d:	55                   	push   %ebp
c010a54e:	89 e5                	mov    %esp,%ebp
c010a550:	83 ec 38             	sub    $0x38,%esp
c010a553:	e8 e1 44 00 00       	call   c010ea39 <__x86.get_pc_thunk.ax>
c010a558:	05 d4 80 00 00       	add    $0x80d4,%eax
c010a55d:	8b 55 0c             	mov    0xc(%ebp),%edx
c010a560:	8b 45 10             	mov    0x10(%ebp),%eax
c010a563:	88 55 d4             	mov    %dl,-0x2c(%ebp)
c010a566:	88 45 d0             	mov    %al,-0x30(%ebp)
c010a569:	c7 45 e0 01 00 00 00 	movl   $0x1,-0x20(%ebp)
c010a570:	6a 10                	push   $0x10
c010a572:	8d 45 e4             	lea    -0x1c(%ebp),%eax
c010a575:	50                   	push   %eax
c010a576:	8d 45 e0             	lea    -0x20(%ebp),%eax
c010a579:	50                   	push   %eax
c010a57a:	ff 75 08             	push   0x8(%ebp)
c010a57d:	e8 e4 fe ff ff       	call   c010a466 <_print_hex_rec>
c010a582:	83 c4 10             	add    $0x10,%esp
c010a585:	89 45 f4             	mov    %eax,-0xc(%ebp)
c010a588:	8b 4d e0             	mov    -0x20(%ebp),%ecx
c010a58b:	0f b6 55 d0          	movzbl -0x30(%ebp),%edx
c010a58f:	0f b6 45 d4          	movzbl -0x2c(%ebp),%eax
c010a593:	51                   	push   %ecx
c010a594:	52                   	push   %edx
c010a595:	50                   	push   %eax
c010a596:	ff 75 f4             	push   -0xc(%ebp)
c010a599:	e8 99 fb ff ff       	call   c010a137 <fb_nprint>
c010a59e:	83 c4 10             	add    $0x10,%esp
c010a5a1:	90                   	nop
c010a5a2:	c9                   	leave
c010a5a3:	c3                   	ret

c010a5a4 <fb_print_hex>:
c010a5a4:	55                   	push   %ebp
c010a5a5:	89 e5                	mov    %esp,%ebp
c010a5a7:	83 ec 08             	sub    $0x8,%esp
c010a5aa:	e8 8a 44 00 00       	call   c010ea39 <__x86.get_pc_thunk.ax>
c010a5af:	05 7d 80 00 00       	add    $0x807d,%eax
c010a5b4:	83 ec 04             	sub    $0x4,%esp
c010a5b7:	6a 00                	push   $0x0
c010a5b9:	6a 0f                	push   $0xf
c010a5bb:	ff 75 08             	push   0x8(%ebp)
c010a5be:	e8 8a ff ff ff       	call   c010a54d <fb_print_hex_color>
c010a5c3:	83 c4 10             	add    $0x10,%esp
c010a5c6:	90                   	nop
c010a5c7:	c9                   	leave
c010a5c8:	c3                   	ret

c010a5c9 <fb_vprintf_color>:
c010a5c9:	55                   	push   %ebp
c010a5ca:	89 e5                	mov    %esp,%ebp
c010a5cc:	56                   	push   %esi
c010a5cd:	53                   	push   %ebx
c010a5ce:	83 ec 40             	sub    $0x40,%esp
c010a5d1:	e8 67 44 00 00       	call   c010ea3d <__x86.get_pc_thunk.bx>
c010a5d6:	81 c3 56 80 00 00    	add    $0x8056,%ebx
c010a5dc:	8b 55 0c             	mov    0xc(%ebp),%edx
c010a5df:	8b 45 10             	mov    0x10(%ebp),%eax
c010a5e2:	88 55 c4             	mov    %dl,-0x3c(%ebp)
c010a5e5:	88 45 c0             	mov    %al,-0x40(%ebp)
c010a5e8:	8b 45 14             	mov    0x14(%ebp),%eax
c010a5eb:	89 45 d4             	mov    %eax,-0x2c(%ebp)
c010a5ee:	c7 45 ec 00 00 00 00 	movl   $0x0,-0x14(%ebp)
c010a5f5:	c6 45 f7 00          	movb   $0x0,-0x9(%ebp)
c010a5f9:	c7 45 f0 00 00 00 00 	movl   $0x0,-0x10(%ebp)
c010a600:	e9 46 01 00 00       	jmp    c010a74b <.L86+0x5>
c010a605:	8b 55 08             	mov    0x8(%ebp),%edx
c010a608:	8b 45 f0             	mov    -0x10(%ebp),%eax
c010a60b:	01 d0                	add    %edx,%eax
c010a60d:	0f b6 00             	movzbl (%eax),%eax
c010a610:	3c 25                	cmp    $0x25,%al
c010a612:	75 09                	jne    c010a61d <fb_vprintf_color+0x54>
c010a614:	c6 45 f7 01          	movb   $0x1,-0x9(%ebp)
c010a618:	e9 2a 01 00 00       	jmp    c010a747 <.L86+0x1>
c010a61d:	80 7d f7 00          	cmpb   $0x0,-0x9(%ebp)
c010a621:	0f 84 fa 00 00 00    	je     c010a721 <.L82+0x2a>
c010a627:	c6 45 f7 00          	movb   $0x0,-0x9(%ebp)
c010a62b:	8b 55 08             	mov    0x8(%ebp),%edx
c010a62e:	8b 45 f0             	mov    -0x10(%ebp),%eax
c010a631:	01 d0                	add    %edx,%eax
c010a633:	0f b6 00             	movzbl (%eax),%eax
c010a636:	0f be c0             	movsbl %al,%eax
c010a639:	83 e8 64             	sub    $0x64,%eax
c010a63c:	83 f8 14             	cmp    $0x14,%eax
c010a63f:	0f 87 01 01 00 00    	ja     c010a746 <.L86>
c010a645:	c1 e0 02             	shl    $0x2,%eax
c010a648:	8b 84 18 ec cb ff ff 	mov    -0x3414(%eax,%ebx,1),%eax
c010a64f:	01 d8                	add    %ebx,%eax
c010a651:	ff e0                	jmp    *%eax

c010a653 <.L81>:
c010a653:	8b 45 d4             	mov    -0x2c(%ebp),%eax
c010a656:	8d 50 04             	lea    0x4(%eax),%edx
c010a659:	89 55 d4             	mov    %edx,-0x2c(%ebp)
c010a65c:	8b 00                	mov    (%eax),%eax
c010a65e:	89 45 e0             	mov    %eax,-0x20(%ebp)
c010a661:	0f b6 55 c0          	movzbl -0x40(%ebp),%edx
c010a665:	0f b6 45 c4          	movzbl -0x3c(%ebp),%eax
c010a669:	83 ec 04             	sub    $0x4,%esp
c010a66c:	52                   	push   %edx
c010a66d:	50                   	push   %eax
c010a66e:	ff 75 e0             	push   -0x20(%ebp)
c010a671:	e8 56 fa ff ff       	call   c010a0cc <fb_print>
c010a676:	83 c4 10             	add    $0x10,%esp
c010a679:	e9 a1 00 00 00       	jmp    c010a71f <.L82+0x28>

c010a67e <.L83>:
c010a67e:	8b 45 d4             	mov    -0x2c(%ebp),%eax
c010a681:	8d 50 04             	lea    0x4(%eax),%edx
c010a684:	89 55 d4             	mov    %edx,-0x2c(%ebp)
c010a687:	8b 00                	mov    (%eax),%eax
c010a689:	89 45 d8             	mov    %eax,-0x28(%ebp)
c010a68c:	0f b6 4d c0          	movzbl -0x40(%ebp),%ecx
c010a690:	0f b6 55 c4          	movzbl -0x3c(%ebp),%edx
c010a694:	8b 45 d8             	mov    -0x28(%ebp),%eax
c010a697:	83 ec 04             	sub    $0x4,%esp
c010a69a:	51                   	push   %ecx
c010a69b:	52                   	push   %edx
c010a69c:	50                   	push   %eax
c010a69d:	e8 25 fd ff ff       	call   c010a3c7 <fb_print_num_color>
c010a6a2:	83 c4 10             	add    $0x10,%esp
c010a6a5:	eb 78                	jmp    c010a71f <.L82+0x28>

c010a6a7 <.L80>:
c010a6a7:	8b 45 d4             	mov    -0x2c(%ebp),%eax
c010a6aa:	8d 50 04             	lea    0x4(%eax),%edx
c010a6ad:	89 55 d4             	mov    %edx,-0x2c(%ebp)
c010a6b0:	8b 00                	mov    (%eax),%eax
c010a6b2:	89 45 e4             	mov    %eax,-0x1c(%ebp)
c010a6b5:	0f b6 55 c0          	movzbl -0x40(%ebp),%edx
c010a6b9:	0f b6 45 c4          	movzbl -0x3c(%ebp),%eax
c010a6bd:	83 ec 04             	sub    $0x4,%esp
c010a6c0:	52                   	push   %edx
c010a6c1:	50                   	push   %eax
c010a6c2:	ff 75 e4             	push   -0x1c(%ebp)
c010a6c5:	e8 fd fc ff ff       	call   c010a3c7 <fb_print_num_color>
c010a6ca:	83 c4 10             	add    $0x10,%esp
c010a6cd:	eb 50                	jmp    c010a71f <.L82+0x28>

c010a6cf <.L78>:
c010a6cf:	8b 45 d4             	mov    -0x2c(%ebp),%eax
c010a6d2:	8d 50 04             	lea    0x4(%eax),%edx
c010a6d5:	89 55 d4             	mov    %edx,-0x2c(%ebp)
c010a6d8:	8b 00                	mov    (%eax),%eax
c010a6da:	89 45 e8             	mov    %eax,-0x18(%ebp)
c010a6dd:	0f b6 55 c0          	movzbl -0x40(%ebp),%edx
c010a6e1:	0f b6 45 c4          	movzbl -0x3c(%ebp),%eax
c010a6e5:	83 ec 04             	sub    $0x4,%esp
c010a6e8:	52                   	push   %edx
c010a6e9:	50                   	push   %eax
c010a6ea:	ff 75 e8             	push   -0x18(%ebp)
c010a6ed:	e8 5b fe ff ff       	call   c010a54d <fb_print_hex_color>
c010a6f2:	83 c4 10             	add    $0x10,%esp
c010a6f5:	eb 28                	jmp    c010a71f <.L82+0x28>

c010a6f7 <.L82>:
c010a6f7:	8b 45 d4             	mov    -0x2c(%ebp),%eax
c010a6fa:	8d 50 04             	lea    0x4(%eax),%edx
c010a6fd:	89 55 d4             	mov    %edx,-0x2c(%ebp)
c010a700:	8b 00                	mov    (%eax),%eax
c010a702:	89 45 dc             	mov    %eax,-0x24(%ebp)
c010a705:	0f b6 4d c0          	movzbl -0x40(%ebp),%ecx
c010a709:	0f b6 55 c4          	movzbl -0x3c(%ebp),%edx
c010a70d:	8b 45 dc             	mov    -0x24(%ebp),%eax
c010a710:	83 ec 04             	sub    $0x4,%esp
c010a713:	51                   	push   %ecx
c010a714:	52                   	push   %edx
c010a715:	50                   	push   %eax
c010a716:	e8 32 fe ff ff       	call   c010a54d <fb_print_hex_color>
c010a71b:	83 c4 10             	add    $0x10,%esp
c010a71e:	90                   	nop
c010a71f:	eb 25                	jmp    c010a746 <.L86>
c010a721:	0f b6 4d c0          	movzbl -0x40(%ebp),%ecx
c010a725:	0f b6 55 c4          	movzbl -0x3c(%ebp),%edx
c010a729:	8b 75 08             	mov    0x8(%ebp),%esi
c010a72c:	8b 45 f0             	mov    -0x10(%ebp),%eax
c010a72f:	01 f0                	add    %esi,%eax
c010a731:	0f b6 00             	movzbl (%eax),%eax
c010a734:	0f b6 c0             	movzbl %al,%eax
c010a737:	51                   	push   %ecx
c010a738:	52                   	push   %edx
c010a739:	50                   	push   %eax
c010a73a:	6a 00                	push   $0x0
c010a73c:	e8 a3 f6 ff ff       	call   c0109de4 <fb_print_char>
c010a741:	83 c4 10             	add    $0x10,%esp
c010a744:	eb 01                	jmp    c010a747 <.L86+0x1>

c010a746 <.L86>:
c010a746:	90                   	nop
c010a747:	83 45 f0 01          	addl   $0x1,-0x10(%ebp)
c010a74b:	8b 55 08             	mov    0x8(%ebp),%edx
c010a74e:	8b 45 f0             	mov    -0x10(%ebp),%eax
c010a751:	01 d0                	add    %edx,%eax
c010a753:	0f b6 00             	movzbl (%eax),%eax
c010a756:	84 c0                	test   %al,%al
c010a758:	0f 85 a7 fe ff ff    	jne    c010a605 <fb_vprintf_color+0x3c>
c010a75e:	8b 45 ec             	mov    -0x14(%ebp),%eax
c010a761:	8d 65 f8             	lea    -0x8(%ebp),%esp
c010a764:	5b                   	pop    %ebx
c010a765:	5e                   	pop    %esi
c010a766:	5d                   	pop    %ebp
c010a767:	c3                   	ret

c010a768 <fb_vprintf>:
c010a768:	55                   	push   %ebp
c010a769:	89 e5                	mov    %esp,%ebp
c010a76b:	83 ec 18             	sub    $0x18,%esp
c010a76e:	e8 c6 42 00 00       	call   c010ea39 <__x86.get_pc_thunk.ax>
c010a773:	05 b9 7e 00 00       	add    $0x7eb9,%eax
c010a778:	8b 45 0c             	mov    0xc(%ebp),%eax
c010a77b:	89 45 f0             	mov    %eax,-0x10(%ebp)
c010a77e:	8b 45 f0             	mov    -0x10(%ebp),%eax
c010a781:	50                   	push   %eax
c010a782:	6a 00                	push   $0x0
c010a784:	6a 0f                	push   $0xf
c010a786:	ff 75 08             	push   0x8(%ebp)
c010a789:	e8 3b fe ff ff       	call   c010a5c9 <fb_vprintf_color>
c010a78e:	83 c4 10             	add    $0x10,%esp
c010a791:	89 45 f4             	mov    %eax,-0xc(%ebp)
c010a794:	8b 45 f4             	mov    -0xc(%ebp),%eax
c010a797:	c9                   	leave
c010a798:	c3                   	ret

c010a799 <fb_printf_color>:
c010a799:	55                   	push   %ebp
c010a79a:	89 e5                	mov    %esp,%ebp
c010a79c:	83 ec 18             	sub    $0x18,%esp
c010a79f:	e8 95 42 00 00       	call   c010ea39 <__x86.get_pc_thunk.ax>
c010a7a4:	05 88 7e 00 00       	add    $0x7e88,%eax
c010a7a9:	8d 45 14             	lea    0x14(%ebp),%eax
c010a7ac:	89 45 f0             	mov    %eax,-0x10(%ebp)
c010a7af:	8b 4d f0             	mov    -0x10(%ebp),%ecx
c010a7b2:	8b 45 10             	mov    0x10(%ebp),%eax
c010a7b5:	0f b6 d0             	movzbl %al,%edx
c010a7b8:	8b 45 0c             	mov    0xc(%ebp),%eax
c010a7bb:	0f b6 c0             	movzbl %al,%eax
c010a7be:	51                   	push   %ecx
c010a7bf:	52                   	push   %edx
c010a7c0:	50                   	push   %eax
c010a7c1:	ff 75 08             	push   0x8(%ebp)
c010a7c4:	e8 00 fe ff ff       	call   c010a5c9 <fb_vprintf_color>
c010a7c9:	83 c4 10             	add    $0x10,%esp
c010a7cc:	89 45 f4             	mov    %eax,-0xc(%ebp)
c010a7cf:	8b 45 f4             	mov    -0xc(%ebp),%eax
c010a7d2:	c9                   	leave
c010a7d3:	c3                   	ret

c010a7d4 <fb_printf>:
c010a7d4:	55                   	push   %ebp
c010a7d5:	89 e5                	mov    %esp,%ebp
c010a7d7:	83 ec 18             	sub    $0x18,%esp
c010a7da:	e8 5a 42 00 00       	call   c010ea39 <__x86.get_pc_thunk.ax>
c010a7df:	05 4d 7e 00 00       	add    $0x7e4d,%eax
c010a7e4:	8d 45 0c             	lea    0xc(%ebp),%eax
c010a7e7:	89 45 f0             	mov    %eax,-0x10(%ebp)
c010a7ea:	8b 45 f0             	mov    -0x10(%ebp),%eax
c010a7ed:	83 ec 08             	sub    $0x8,%esp
c010a7f0:	50                   	push   %eax
c010a7f1:	ff 75 08             	push   0x8(%ebp)
c010a7f4:	e8 6f ff ff ff       	call   c010a768 <fb_vprintf>
c010a7f9:	83 c4 10             	add    $0x10,%esp
c010a7fc:	89 45 f4             	mov    %eax,-0xc(%ebp)
c010a7ff:	8b 45 f4             	mov    -0xc(%ebp),%eax
c010a802:	c9                   	leave
c010a803:	c3                   	ret

c010a804 <fb_mov_cursor>:
c010a804:	55                   	push   %ebp
c010a805:	89 e5                	mov    %esp,%ebp
c010a807:	53                   	push   %ebx
c010a808:	83 ec 14             	sub    $0x14,%esp
c010a80b:	e8 2d 42 00 00       	call   c010ea3d <__x86.get_pc_thunk.bx>
c010a810:	81 c3 1c 7e 00 00    	add    $0x7e1c,%ebx
c010a816:	8b 45 08             	mov    0x8(%ebp),%eax
c010a819:	66 89 45 f4          	mov    %ax,-0xc(%ebp)
c010a81d:	83 ec 08             	sub    $0x8,%esp
c010a820:	6a 0e                	push   $0xe
c010a822:	68 d4 03 00 00       	push   $0x3d4
c010a827:	e8 17 11 00 00       	call   c010b943 <outb>
c010a82c:	83 c4 10             	add    $0x10,%esp
c010a82f:	0f b7 45 f4          	movzwl -0xc(%ebp),%eax
c010a833:	66 c1 e8 08          	shr    $0x8,%ax
c010a837:	0f b6 c0             	movzbl %al,%eax
c010a83a:	83 ec 08             	sub    $0x8,%esp
c010a83d:	50                   	push   %eax
c010a83e:	68 d5 03 00 00       	push   $0x3d5
c010a843:	e8 fb 10 00 00       	call   c010b943 <outb>
c010a848:	83 c4 10             	add    $0x10,%esp
c010a84b:	83 ec 08             	sub    $0x8,%esp
c010a84e:	6a 0f                	push   $0xf
c010a850:	68 d4 03 00 00       	push   $0x3d4
c010a855:	e8 e9 10 00 00       	call   c010b943 <outb>
c010a85a:	83 c4 10             	add    $0x10,%esp
c010a85d:	0f b7 45 f4          	movzwl -0xc(%ebp),%eax
c010a861:	0f b6 c0             	movzbl %al,%eax
c010a864:	83 ec 08             	sub    $0x8,%esp
c010a867:	50                   	push   %eax
c010a868:	68 d5 03 00 00       	push   $0x3d5
c010a86d:	e8 d1 10 00 00       	call   c010b943 <outb>
c010a872:	83 c4 10             	add    $0x10,%esp
c010a875:	90                   	nop
c010a876:	8b 5d fc             	mov    -0x4(%ebp),%ebx
c010a879:	c9                   	leave
c010a87a:	c3                   	ret

c010a87b <fb_clear>:
c010a87b:	55                   	push   %ebp
c010a87c:	89 e5                	mov    %esp,%ebp
c010a87e:	83 ec 10             	sub    $0x10,%esp
c010a881:	e8 b3 41 00 00       	call   c010ea39 <__x86.get_pc_thunk.ax>
c010a886:	05 a6 7d 00 00       	add    $0x7da6,%eax
c010a88b:	c7 45 fc 00 00 00 00 	movl   $0x0,-0x4(%ebp)
c010a892:	eb 37                	jmp    c010a8cb <fb_clear+0x50>
c010a894:	8b 90 f8 ff ff ff    	mov    -0x8(%eax),%edx
c010a89a:	8b 4d fc             	mov    -0x4(%ebp),%ecx
c010a89d:	01 c9                	add    %ecx,%ecx
c010a89f:	01 ca                	add    %ecx,%edx
c010a8a1:	66 c7 02 00 00       	movw   $0x0,(%edx)
c010a8a6:	8d 88 54 86 00 00    	lea    0x8654(%eax),%ecx
c010a8ac:	8b 55 fc             	mov    -0x4(%ebp),%edx
c010a8af:	01 ca                	add    %ecx,%edx
c010a8b1:	0f b6 0a             	movzbl (%edx),%ecx
c010a8b4:	83 e1 fe             	and    $0xfffffffe,%ecx
c010a8b7:	88 0a                	mov    %cl,(%edx)
c010a8b9:	8d 88 74 7e 00 00    	lea    0x7e74(%eax),%ecx
c010a8bf:	8b 55 fc             	mov    -0x4(%ebp),%edx
c010a8c2:	01 ca                	add    %ecx,%edx
c010a8c4:	c6 02 00             	movb   $0x0,(%edx)
c010a8c7:	83 45 fc 01          	addl   $0x1,-0x4(%ebp)
c010a8cb:	81 7d fc cf 07 00 00 	cmpl   $0x7cf,-0x4(%ebp)
c010a8d2:	76 c0                	jbe    c010a894 <fb_clear+0x19>
c010a8d4:	66 c7 80 44 86 00 00 	movw   $0x0,0x8644(%eax)
c010a8db:	00 00 
c010a8dd:	90                   	nop
c010a8de:	c9                   	leave
c010a8df:	c3                   	ret

c010a8e0 <com_init>:
c010a8e0:	55                   	push   %ebp
c010a8e1:	89 e5                	mov    %esp,%ebp
c010a8e3:	53                   	push   %ebx
c010a8e4:	83 ec 04             	sub    $0x4,%esp
c010a8e7:	e8 51 41 00 00       	call   c010ea3d <__x86.get_pc_thunk.bx>
c010a8ec:	81 c3 40 7d 00 00    	add    $0x7d40,%ebx
c010a8f2:	8b 45 08             	mov    0x8(%ebp),%eax
c010a8f5:	83 c0 03             	add    $0x3,%eax
c010a8f8:	0f b7 c0             	movzwl %ax,%eax
c010a8fb:	83 ec 08             	sub    $0x8,%esp
c010a8fe:	68 80 00 00 00       	push   $0x80
c010a903:	50                   	push   %eax
c010a904:	e8 3a 10 00 00       	call   c010b943 <outb>
c010a909:	83 c4 10             	add    $0x10,%esp
c010a90c:	8b 45 08             	mov    0x8(%ebp),%eax
c010a90f:	0f b7 c0             	movzwl %ax,%eax
c010a912:	83 ec 08             	sub    $0x8,%esp
c010a915:	6a 0c                	push   $0xc
c010a917:	50                   	push   %eax
c010a918:	e8 26 10 00 00       	call   c010b943 <outb>
c010a91d:	83 c4 10             	add    $0x10,%esp
c010a920:	8b 45 08             	mov    0x8(%ebp),%eax
c010a923:	0f b7 c0             	movzwl %ax,%eax
c010a926:	83 ec 08             	sub    $0x8,%esp
c010a929:	6a 00                	push   $0x0
c010a92b:	50                   	push   %eax
c010a92c:	e8 12 10 00 00       	call   c010b943 <outb>
c010a931:	83 c4 10             	add    $0x10,%esp
c010a934:	8b 45 08             	mov    0x8(%ebp),%eax
c010a937:	83 c0 02             	add    $0x2,%eax
c010a93a:	0f b7 c0             	movzwl %ax,%eax
c010a93d:	83 ec 08             	sub    $0x8,%esp
c010a940:	68 c7 00 00 00       	push   $0xc7
c010a945:	50                   	push   %eax
c010a946:	e8 f8 0f 00 00       	call   c010b943 <outb>
c010a94b:	83 c4 10             	add    $0x10,%esp
c010a94e:	8b 45 08             	mov    0x8(%ebp),%eax
c010a951:	83 c0 03             	add    $0x3,%eax
c010a954:	0f b7 c0             	movzwl %ax,%eax
c010a957:	83 ec 08             	sub    $0x8,%esp
c010a95a:	6a 03                	push   $0x3
c010a95c:	50                   	push   %eax
c010a95d:	e8 e1 0f 00 00       	call   c010b943 <outb>
c010a962:	83 c4 10             	add    $0x10,%esp
c010a965:	8b 45 08             	mov    0x8(%ebp),%eax
c010a968:	83 c0 04             	add    $0x4,%eax
c010a96b:	0f b7 c0             	movzwl %ax,%eax
c010a96e:	83 ec 08             	sub    $0x8,%esp
c010a971:	6a 0b                	push   $0xb
c010a973:	50                   	push   %eax
c010a974:	e8 ca 0f 00 00       	call   c010b943 <outb>
c010a979:	83 c4 10             	add    $0x10,%esp
c010a97c:	8b 45 08             	mov    0x8(%ebp),%eax
c010a97f:	83 c0 01             	add    $0x1,%eax
c010a982:	0f b7 c0             	movzwl %ax,%eax
c010a985:	83 ec 08             	sub    $0x8,%esp
c010a988:	6a 03                	push   $0x3
c010a98a:	50                   	push   %eax
c010a98b:	e8 b3 0f 00 00       	call   c010b943 <outb>
c010a990:	83 c4 10             	add    $0x10,%esp
c010a993:	90                   	nop
c010a994:	8b 5d fc             	mov    -0x4(%ebp),%ebx
c010a997:	c9                   	leave
c010a998:	c3                   	ret

c010a999 <rx_ready>:
c010a999:	55                   	push   %ebp
c010a99a:	89 e5                	mov    %esp,%ebp
c010a99c:	53                   	push   %ebx
c010a99d:	83 ec 04             	sub    $0x4,%esp
c010a9a0:	e8 94 40 00 00       	call   c010ea39 <__x86.get_pc_thunk.ax>
c010a9a5:	05 87 7c 00 00       	add    $0x7c87,%eax
c010a9aa:	8b 55 08             	mov    0x8(%ebp),%edx
c010a9ad:	83 c2 05             	add    $0x5,%edx
c010a9b0:	0f b7 d2             	movzwl %dx,%edx
c010a9b3:	83 ec 0c             	sub    $0xc,%esp
c010a9b6:	52                   	push   %edx
c010a9b7:	89 c3                	mov    %eax,%ebx
c010a9b9:	e8 ae 0f 00 00       	call   c010b96c <inb>
c010a9be:	83 c4 10             	add    $0x10,%esp
c010a9c1:	0f b6 c0             	movzbl %al,%eax
c010a9c4:	83 e0 01             	and    $0x1,%eax
c010a9c7:	8b 5d fc             	mov    -0x4(%ebp),%ebx
c010a9ca:	c9                   	leave
c010a9cb:	c3                   	ret

c010a9cc <tx_free>:
c010a9cc:	55                   	push   %ebp
c010a9cd:	89 e5                	mov    %esp,%ebp
c010a9cf:	53                   	push   %ebx
c010a9d0:	83 ec 04             	sub    $0x4,%esp
c010a9d3:	e8 61 40 00 00       	call   c010ea39 <__x86.get_pc_thunk.ax>
c010a9d8:	05 54 7c 00 00       	add    $0x7c54,%eax
c010a9dd:	8b 55 08             	mov    0x8(%ebp),%edx
c010a9e0:	83 c2 05             	add    $0x5,%edx
c010a9e3:	0f b7 d2             	movzwl %dx,%edx
c010a9e6:	83 ec 0c             	sub    $0xc,%esp
c010a9e9:	52                   	push   %edx
c010a9ea:	89 c3                	mov    %eax,%ebx
c010a9ec:	e8 7b 0f 00 00       	call   c010b96c <inb>
c010a9f1:	83 c4 10             	add    $0x10,%esp
c010a9f4:	0f b6 c0             	movzbl %al,%eax
c010a9f7:	83 e0 20             	and    $0x20,%eax
c010a9fa:	8b 5d fc             	mov    -0x4(%ebp),%ebx
c010a9fd:	c9                   	leave
c010a9fe:	c3                   	ret

c010a9ff <serial_send>:
c010a9ff:	55                   	push   %ebp
c010aa00:	89 e5                	mov    %esp,%ebp
c010aa02:	53                   	push   %ebx
c010aa03:	83 ec 14             	sub    $0x14,%esp
c010aa06:	e8 2e 40 00 00       	call   c010ea39 <__x86.get_pc_thunk.ax>
c010aa0b:	05 21 7c 00 00       	add    $0x7c21,%eax
c010aa10:	8b 55 0c             	mov    0xc(%ebp),%edx
c010aa13:	88 55 f4             	mov    %dl,-0xc(%ebp)
c010aa16:	0f b6 55 f4          	movzbl -0xc(%ebp),%edx
c010aa1a:	0f b6 ca             	movzbl %dl,%ecx
c010aa1d:	8b 55 08             	mov    0x8(%ebp),%edx
c010aa20:	0f b7 d2             	movzwl %dx,%edx
c010aa23:	83 ec 08             	sub    $0x8,%esp
c010aa26:	51                   	push   %ecx
c010aa27:	52                   	push   %edx
c010aa28:	89 c3                	mov    %eax,%ebx
c010aa2a:	e8 14 0f 00 00       	call   c010b943 <outb>
c010aa2f:	83 c4 10             	add    $0x10,%esp
c010aa32:	90                   	nop
c010aa33:	8b 5d fc             	mov    -0x4(%ebp),%ebx
c010aa36:	c9                   	leave
c010aa37:	c3                   	ret

c010aa38 <serial_read>:
c010aa38:	55                   	push   %ebp
c010aa39:	89 e5                	mov    %esp,%ebp
c010aa3b:	53                   	push   %ebx
c010aa3c:	83 ec 04             	sub    $0x4,%esp
c010aa3f:	e8 f5 3f 00 00       	call   c010ea39 <__x86.get_pc_thunk.ax>
c010aa44:	05 e8 7b 00 00       	add    $0x7be8,%eax
c010aa49:	8b 55 08             	mov    0x8(%ebp),%edx
c010aa4c:	0f b7 d2             	movzwl %dx,%edx
c010aa4f:	83 ec 0c             	sub    $0xc,%esp
c010aa52:	52                   	push   %edx
c010aa53:	89 c3                	mov    %eax,%ebx
c010aa55:	e8 12 0f 00 00       	call   c010b96c <inb>
c010aa5a:	83 c4 10             	add    $0x10,%esp
c010aa5d:	8b 5d fc             	mov    -0x4(%ebp),%ebx
c010aa60:	c9                   	leave
c010aa61:	c3                   	ret

c010aa62 <wait_serial_read>:
c010aa62:	55                   	push   %ebp
c010aa63:	89 e5                	mov    %esp,%ebp
c010aa65:	83 ec 08             	sub    $0x8,%esp
c010aa68:	e8 cc 3f 00 00       	call   c010ea39 <__x86.get_pc_thunk.ax>
c010aa6d:	05 bf 7b 00 00       	add    $0x7bbf,%eax
c010aa72:	90                   	nop
c010aa73:	83 ec 0c             	sub    $0xc,%esp
c010aa76:	ff 75 08             	push   0x8(%ebp)
c010aa79:	e8 1b ff ff ff       	call   c010a999 <rx_ready>
c010aa7e:	83 c4 10             	add    $0x10,%esp
c010aa81:	85 c0                	test   %eax,%eax
c010aa83:	74 ee                	je     c010aa73 <wait_serial_read+0x11>
c010aa85:	83 ec 0c             	sub    $0xc,%esp
c010aa88:	ff 75 08             	push   0x8(%ebp)
c010aa8b:	e8 a8 ff ff ff       	call   c010aa38 <serial_read>
c010aa90:	83 c4 10             	add    $0x10,%esp
c010aa93:	c9                   	leave
c010aa94:	c3                   	ret

c010aa95 <wait_serial_send>:
c010aa95:	55                   	push   %ebp
c010aa96:	89 e5                	mov    %esp,%ebp
c010aa98:	83 ec 18             	sub    $0x18,%esp
c010aa9b:	e8 99 3f 00 00       	call   c010ea39 <__x86.get_pc_thunk.ax>
c010aaa0:	05 8c 7b 00 00       	add    $0x7b8c,%eax
c010aaa5:	8b 45 0c             	mov    0xc(%ebp),%eax
c010aaa8:	88 45 f4             	mov    %al,-0xc(%ebp)
c010aaab:	90                   	nop
c010aaac:	83 ec 0c             	sub    $0xc,%esp
c010aaaf:	ff 75 08             	push   0x8(%ebp)
c010aab2:	e8 15 ff ff ff       	call   c010a9cc <tx_free>
c010aab7:	83 c4 10             	add    $0x10,%esp
c010aaba:	85 c0                	test   %eax,%eax
c010aabc:	74 ee                	je     c010aaac <wait_serial_send+0x17>
c010aabe:	0f be 45 f4          	movsbl -0xc(%ebp),%eax
c010aac2:	83 ec 08             	sub    $0x8,%esp
c010aac5:	50                   	push   %eax
c010aac6:	ff 75 08             	push   0x8(%ebp)
c010aac9:	e8 31 ff ff ff       	call   c010a9ff <serial_send>
c010aace:	83 c4 10             	add    $0x10,%esp
c010aad1:	90                   	nop
c010aad2:	c9                   	leave
c010aad3:	c3                   	ret

c010aad4 <serial_write>:
c010aad4:	55                   	push   %ebp
c010aad5:	89 e5                	mov    %esp,%ebp
c010aad7:	53                   	push   %ebx
c010aad8:	83 ec 04             	sub    $0x4,%esp
c010aadb:	e8 5d 3f 00 00       	call   c010ea3d <__x86.get_pc_thunk.bx>
c010aae0:	81 c3 4c 7b 00 00    	add    $0x7b4c,%ebx
c010aae6:	8b 93 34 96 00 00    	mov    0x9634(%ebx),%edx
c010aaec:	8d 83 34 8e 00 00    	lea    0x8e34(%ebx),%eax
c010aaf2:	01 d0                	add    %edx,%eax
c010aaf4:	83 ec 04             	sub    $0x4,%esp
c010aaf7:	ff 75 10             	push   0x10(%ebp)
c010aafa:	ff 75 0c             	push   0xc(%ebp)
c010aafd:	50                   	push   %eax
c010aafe:	e8 07 0f 00 00       	call   c010ba0a <strcpy>
c010ab03:	83 c4 10             	add    $0x10,%esp
c010ab06:	8b 83 3c 96 00 00    	mov    0x963c(%ebx),%eax
c010ab0c:	83 c0 01             	add    $0x1,%eax
c010ab0f:	89 83 3c 96 00 00    	mov    %eax,0x963c(%ebx)
c010ab15:	8b 93 34 96 00 00    	mov    0x9634(%ebx),%edx
c010ab1b:	8b 45 10             	mov    0x10(%ebp),%eax
c010ab1e:	01 d0                	add    %edx,%eax
c010ab20:	89 83 34 96 00 00    	mov    %eax,0x9634(%ebx)
c010ab26:	8b 45 0c             	mov    0xc(%ebp),%eax
c010ab29:	0f b6 00             	movzbl (%eax),%eax
c010ab2c:	0f be c0             	movsbl %al,%eax
c010ab2f:	83 ec 08             	sub    $0x8,%esp
c010ab32:	50                   	push   %eax
c010ab33:	ff 75 08             	push   0x8(%ebp)
c010ab36:	e8 5a ff ff ff       	call   c010aa95 <wait_serial_send>
c010ab3b:	83 c4 10             	add    $0x10,%esp
c010ab3e:	90                   	nop
c010ab3f:	8b 5d fc             	mov    -0x4(%ebp),%ebx
c010ab42:	c9                   	leave
c010ab43:	c3                   	ret

c010ab44 <serial_interrupt>:
c010ab44:	55                   	push   %ebp
c010ab45:	89 e5                	mov    %esp,%ebp
c010ab47:	56                   	push   %esi
c010ab48:	53                   	push   %ebx
c010ab49:	83 ec 10             	sub    $0x10,%esp
c010ab4c:	e8 ec 3e 00 00       	call   c010ea3d <__x86.get_pc_thunk.bx>
c010ab51:	81 c3 db 7a 00 00    	add    $0x7adb,%ebx
c010ab57:	c7 45 f4 f8 03 00 00 	movl   $0x3f8,-0xc(%ebp)
c010ab5e:	83 ec 0c             	sub    $0xc,%esp
c010ab61:	ff 75 f4             	push   -0xc(%ebp)
c010ab64:	e8 63 fe ff ff       	call   c010a9cc <tx_free>
c010ab69:	83 c4 10             	add    $0x10,%esp
c010ab6c:	85 c0                	test   %eax,%eax
c010ab6e:	74 42                	je     c010abb2 <serial_interrupt+0x6e>
c010ab70:	8b 93 3c 96 00 00    	mov    0x963c(%ebx),%edx
c010ab76:	8b 83 34 96 00 00    	mov    0x9634(%ebx),%eax
c010ab7c:	39 c2                	cmp    %eax,%edx
c010ab7e:	74 32                	je     c010abb2 <serial_interrupt+0x6e>
c010ab80:	8b 83 3c 96 00 00    	mov    0x963c(%ebx),%eax
c010ab86:	83 c0 01             	add    $0x1,%eax
c010ab89:	89 83 3c 96 00 00    	mov    %eax,0x963c(%ebx)
c010ab8f:	8b 83 3c 96 00 00    	mov    0x963c(%ebx),%eax
c010ab95:	83 e8 01             	sub    $0x1,%eax
c010ab98:	0f b6 84 03 34 8e 00 	movzbl 0x8e34(%ebx,%eax,1),%eax
c010ab9f:	00 
c010aba0:	0f be c0             	movsbl %al,%eax
c010aba3:	83 ec 08             	sub    $0x8,%esp
c010aba6:	50                   	push   %eax
c010aba7:	ff 75 f4             	push   -0xc(%ebp)
c010abaa:	e8 50 fe ff ff       	call   c010a9ff <serial_send>
c010abaf:	83 c4 10             	add    $0x10,%esp
c010abb2:	83 ec 0c             	sub    $0xc,%esp
c010abb5:	ff 75 f4             	push   -0xc(%ebp)
c010abb8:	e8 dc fd ff ff       	call   c010a999 <rx_ready>
c010abbd:	83 c4 10             	add    $0x10,%esp
c010abc0:	85 c0                	test   %eax,%eax
c010abc2:	74 2d                	je     c010abf1 <serial_interrupt+0xad>
c010abc4:	8b 83 38 96 00 00    	mov    0x9638(%ebx),%eax
c010abca:	83 c0 01             	add    $0x1,%eax
c010abcd:	89 83 38 96 00 00    	mov    %eax,0x9638(%ebx)
c010abd3:	8b 83 38 96 00 00    	mov    0x9638(%ebx),%eax
c010abd9:	8d 70 ff             	lea    -0x1(%eax),%esi
c010abdc:	83 ec 0c             	sub    $0xc,%esp
c010abdf:	ff 75 f4             	push   -0xc(%ebp)
c010abe2:	e8 51 fe ff ff       	call   c010aa38 <serial_read>
c010abe7:	83 c4 10             	add    $0x10,%esp
c010abea:	88 84 33 34 92 00 00 	mov    %al,0x9234(%ebx,%esi,1)
c010abf1:	90                   	nop
c010abf2:	8d 65 f8             	lea    -0x8(%ebp),%esp
c010abf5:	5b                   	pop    %ebx
c010abf6:	5e                   	pop    %esi
c010abf7:	5d                   	pop    %ebp
c010abf8:	c3                   	ret

c010abf9 <serial_print>:
c010abf9:	55                   	push   %ebp
c010abfa:	89 e5                	mov    %esp,%ebp
c010abfc:	83 ec 18             	sub    $0x18,%esp
c010abff:	e8 35 3e 00 00       	call   c010ea39 <__x86.get_pc_thunk.ax>
c010ac04:	05 28 7a 00 00       	add    $0x7a28,%eax
c010ac09:	c7 45 f4 00 00 00 00 	movl   $0x0,-0xc(%ebp)
c010ac10:	eb 21                	jmp    c010ac33 <serial_print+0x3a>
c010ac12:	8b 55 0c             	mov    0xc(%ebp),%edx
c010ac15:	8b 45 f4             	mov    -0xc(%ebp),%eax
c010ac18:	01 d0                	add    %edx,%eax
c010ac1a:	0f b6 00             	movzbl (%eax),%eax
c010ac1d:	0f be c0             	movsbl %al,%eax
c010ac20:	83 ec 08             	sub    $0x8,%esp
c010ac23:	50                   	push   %eax
c010ac24:	ff 75 08             	push   0x8(%ebp)
c010ac27:	e8 d3 fd ff ff       	call   c010a9ff <serial_send>
c010ac2c:	83 c4 10             	add    $0x10,%esp
c010ac2f:	83 45 f4 01          	addl   $0x1,-0xc(%ebp)
c010ac33:	8b 55 0c             	mov    0xc(%ebp),%edx
c010ac36:	8b 45 f4             	mov    -0xc(%ebp),%eax
c010ac39:	01 d0                	add    %edx,%eax
c010ac3b:	0f b6 00             	movzbl (%eax),%eax
c010ac3e:	84 c0                	test   %al,%al
c010ac40:	75 d0                	jne    c010ac12 <serial_print+0x19>
c010ac42:	90                   	nop
c010ac43:	90                   	nop
c010ac44:	c9                   	leave
c010ac45:	c3                   	ret

c010ac46 <serial_read_buf>:
c010ac46:	55                   	push   %ebp
c010ac47:	89 e5                	mov    %esp,%ebp
c010ac49:	83 ec 18             	sub    $0x18,%esp
c010ac4c:	e8 e8 3d 00 00       	call   c010ea39 <__x86.get_pc_thunk.ax>
c010ac51:	05 db 79 00 00       	add    $0x79db,%eax
c010ac56:	c7 45 f4 00 00 00 00 	movl   $0x0,-0xc(%ebp)
c010ac5d:	eb 53                	jmp    c010acb2 <serial_read_buf+0x6c>
c010ac5f:	83 ec 0c             	sub    $0xc,%esp
c010ac62:	ff 75 08             	push   0x8(%ebp)
c010ac65:	e8 f8 fd ff ff       	call   c010aa62 <wait_serial_read>
c010ac6a:	83 c4 10             	add    $0x10,%esp
c010ac6d:	89 c1                	mov    %eax,%ecx
c010ac6f:	8b 55 0c             	mov    0xc(%ebp),%edx
c010ac72:	8b 45 f4             	mov    -0xc(%ebp),%eax
c010ac75:	01 d0                	add    %edx,%eax
c010ac77:	89 ca                	mov    %ecx,%edx
c010ac79:	88 10                	mov    %dl,(%eax)
c010ac7b:	8b 55 0c             	mov    0xc(%ebp),%edx
c010ac7e:	8b 45 f4             	mov    -0xc(%ebp),%eax
c010ac81:	01 d0                	add    %edx,%eax
c010ac83:	0f b6 00             	movzbl (%eax),%eax
c010ac86:	3c 0a                	cmp    $0xa,%al
c010ac88:	74 0f                	je     c010ac99 <serial_read_buf+0x53>
c010ac8a:	8b 55 0c             	mov    0xc(%ebp),%edx
c010ac8d:	8b 45 f4             	mov    -0xc(%ebp),%eax
c010ac90:	01 d0                	add    %edx,%eax
c010ac92:	0f b6 00             	movzbl (%eax),%eax
c010ac95:	3c 0d                	cmp    $0xd,%al
c010ac97:	75 15                	jne    c010acae <serial_read_buf+0x68>
c010ac99:	8b 45 f4             	mov    -0xc(%ebp),%eax
c010ac9c:	8d 50 01             	lea    0x1(%eax),%edx
c010ac9f:	8b 45 0c             	mov    0xc(%ebp),%eax
c010aca2:	01 d0                	add    %edx,%eax
c010aca4:	c6 00 00             	movb   $0x0,(%eax)
c010aca7:	b8 00 00 00 00       	mov    $0x0,%eax
c010acac:	eb 22                	jmp    c010acd0 <serial_read_buf+0x8a>
c010acae:	83 45 f4 01          	addl   $0x1,-0xc(%ebp)
c010acb2:	8b 45 10             	mov    0x10(%ebp),%eax
c010acb5:	83 e8 01             	sub    $0x1,%eax
c010acb8:	39 45 f4             	cmp    %eax,-0xc(%ebp)
c010acbb:	72 a2                	jb     c010ac5f <serial_read_buf+0x19>
c010acbd:	8b 45 10             	mov    0x10(%ebp),%eax
c010acc0:	8d 50 ff             	lea    -0x1(%eax),%edx
c010acc3:	8b 45 0c             	mov    0xc(%ebp),%eax
c010acc6:	01 d0                	add    %edx,%eax
c010acc8:	c6 00 00             	movb   $0x0,(%eax)
c010accb:	b8 01 00 00 00       	mov    $0x1,%eax
c010acd0:	c9                   	leave
c010acd1:	c3                   	ret

c010acd2 <serial_init>:
c010acd2:	55                   	push   %ebp
c010acd3:	89 e5                	mov    %esp,%ebp
c010acd5:	53                   	push   %ebx
c010acd6:	83 ec 04             	sub    $0x4,%esp
c010acd9:	e8 5f 3d 00 00       	call   c010ea3d <__x86.get_pc_thunk.bx>
c010acde:	81 c3 4e 79 00 00    	add    $0x794e,%ebx
c010ace4:	83 ec 0c             	sub    $0xc,%esp
c010ace7:	68 f8 03 00 00       	push   $0x3f8
c010acec:	e8 ef fb ff ff       	call   c010a8e0 <com_init>
c010acf1:	83 c4 10             	add    $0x10,%esp
c010acf4:	83 ec 08             	sub    $0x8,%esp
c010acf7:	8d 83 18 85 ff ff    	lea    -0x7ae8(%ebx),%eax
c010acfd:	50                   	push   %eax
c010acfe:	6a 04                	push   $0x4
c010ad00:	e8 7d d4 ff ff       	call   c0108182 <add_irq_handler>
c010ad05:	83 c4 10             	add    $0x10,%esp
c010ad08:	83 ec 0c             	sub    $0xc,%esp
c010ad0b:	8d 83 40 cc ff ff    	lea    -0x33c0(%ebx),%eax
c010ad11:	50                   	push   %eax
c010ad12:	e8 c9 0a 00 00       	call   c010b7e0 <klog>
c010ad17:	83 c4 10             	add    $0x10,%esp
c010ad1a:	90                   	nop
c010ad1b:	8b 5d fc             	mov    -0x4(%ebp),%ebx
c010ad1e:	c9                   	leave
c010ad1f:	c3                   	ret

c010ad20 <ata_detect>:
c010ad20:	55                   	push   %ebp
c010ad21:	89 e5                	mov    %esp,%ebp
c010ad23:	53                   	push   %ebx
c010ad24:	83 ec 24             	sub    $0x24,%esp
c010ad27:	e8 11 3d 00 00       	call   c010ea3d <__x86.get_pc_thunk.bx>
c010ad2c:	81 c3 00 79 00 00    	add    $0x7900,%ebx
c010ad32:	8b 45 0c             	mov    0xc(%ebp),%eax
c010ad35:	88 45 e4             	mov    %al,-0x1c(%ebp)
c010ad38:	0f b6 45 e4          	movzbl -0x1c(%ebp),%eax
c010ad3c:	c1 e0 04             	shl    $0x4,%eax
c010ad3f:	83 c8 0a             	or     $0xa,%eax
c010ad42:	0f b6 d0             	movzbl %al,%edx
c010ad45:	8b 45 08             	mov    0x8(%ebp),%eax
c010ad48:	0f b7 00             	movzwl (%eax),%eax
c010ad4b:	83 c0 06             	add    $0x6,%eax
c010ad4e:	0f b7 c0             	movzwl %ax,%eax
c010ad51:	83 ec 08             	sub    $0x8,%esp
c010ad54:	52                   	push   %edx
c010ad55:	50                   	push   %eax
c010ad56:	e8 e8 0b 00 00       	call   c010b943 <outb>
c010ad5b:	83 c4 10             	add    $0x10,%esp
c010ad5e:	c7 45 f4 00 00 00 00 	movl   $0x0,-0xc(%ebp)
c010ad65:	eb 1a                	jmp    c010ad81 <ata_detect+0x61>
c010ad67:	8b 45 08             	mov    0x8(%ebp),%eax
c010ad6a:	0f b7 40 02          	movzwl 0x2(%eax),%eax
c010ad6e:	0f b7 c0             	movzwl %ax,%eax
c010ad71:	83 ec 0c             	sub    $0xc,%esp
c010ad74:	50                   	push   %eax
c010ad75:	e8 f2 0b 00 00       	call   c010b96c <inb>
c010ad7a:	83 c4 10             	add    $0x10,%esp
c010ad7d:	83 45 f4 01          	addl   $0x1,-0xc(%ebp)
c010ad81:	83 7d f4 0d          	cmpl   $0xd,-0xc(%ebp)
c010ad85:	76 e0                	jbe    c010ad67 <ata_detect+0x47>
c010ad87:	c7 45 f0 ff ff ff ff 	movl   $0xffffffff,-0x10(%ebp)
c010ad8e:	8b 45 08             	mov    0x8(%ebp),%eax
c010ad91:	0f b7 00             	movzwl (%eax),%eax
c010ad94:	83 c0 04             	add    $0x4,%eax
c010ad97:	0f b7 c0             	movzwl %ax,%eax
c010ad9a:	83 ec 0c             	sub    $0xc,%esp
c010ad9d:	50                   	push   %eax
c010ad9e:	e8 c9 0b 00 00       	call   c010b96c <inb>
c010ada3:	83 c4 10             	add    $0x10,%esp
c010ada6:	0f b6 c0             	movzbl %al,%eax
c010ada9:	66 89 45 ee          	mov    %ax,-0x12(%ebp)
c010adad:	8b 45 08             	mov    0x8(%ebp),%eax
c010adb0:	0f b7 00             	movzwl (%eax),%eax
c010adb3:	83 c0 05             	add    $0x5,%eax
c010adb6:	0f b7 c0             	movzwl %ax,%eax
c010adb9:	83 ec 0c             	sub    $0xc,%esp
c010adbc:	50                   	push   %eax
c010adbd:	e8 aa 0b 00 00       	call   c010b96c <inb>
c010adc2:	83 c4 10             	add    $0x10,%esp
c010adc5:	0f b6 c0             	movzbl %al,%eax
c010adc8:	c1 e0 08             	shl    $0x8,%eax
c010adcb:	89 c2                	mov    %eax,%edx
c010adcd:	0f b7 45 ee          	movzwl -0x12(%ebp),%eax
c010add1:	09 d0                	or     %edx,%eax
c010add3:	66 89 45 ee          	mov    %ax,-0x12(%ebp)
c010add7:	0f b7 45 ee          	movzwl -0x12(%ebp),%eax
c010addb:	3d 14 eb 00 00       	cmp    $0xeb14,%eax
c010ade0:	74 22                	je     c010ae04 <ata_detect+0xe4>
c010ade2:	3d 14 eb 00 00       	cmp    $0xeb14,%eax
c010ade7:	7f 6b                	jg     c010ae54 <ata_detect+0x134>
c010ade9:	3d 3c c3 00 00       	cmp    $0xc33c,%eax
c010adee:	74 50                	je     c010ae40 <ata_detect+0x120>
c010adf0:	3d 3c c3 00 00       	cmp    $0xc33c,%eax
c010adf5:	7f 5d                	jg     c010ae54 <ata_detect+0x134>
c010adf7:	85 c0                	test   %eax,%eax
c010adf9:	74 31                	je     c010ae2c <ata_detect+0x10c>
c010adfb:	3d 69 96 00 00       	cmp    $0x9669,%eax
c010ae00:	74 16                	je     c010ae18 <ata_detect+0xf8>
c010ae02:	eb 50                	jmp    c010ae54 <ata_detect+0x134>
c010ae04:	83 ec 0c             	sub    $0xc,%esp
c010ae07:	8d 83 60 cc ff ff    	lea    -0x33a0(%ebx),%eax
c010ae0d:	50                   	push   %eax
c010ae0e:	e8 cd 09 00 00       	call   c010b7e0 <klog>
c010ae13:	83 c4 10             	add    $0x10,%esp
c010ae16:	eb 54                	jmp    c010ae6c <ata_detect+0x14c>
c010ae18:	83 ec 0c             	sub    $0xc,%esp
c010ae1b:	8d 83 77 cc ff ff    	lea    -0x3389(%ebx),%eax
c010ae21:	50                   	push   %eax
c010ae22:	e8 b9 09 00 00       	call   c010b7e0 <klog>
c010ae27:	83 c4 10             	add    $0x10,%esp
c010ae2a:	eb 40                	jmp    c010ae6c <ata_detect+0x14c>
c010ae2c:	83 ec 0c             	sub    $0xc,%esp
c010ae2f:	8d 83 8e cc ff ff    	lea    -0x3372(%ebx),%eax
c010ae35:	50                   	push   %eax
c010ae36:	e8 a5 09 00 00       	call   c010b7e0 <klog>
c010ae3b:	83 c4 10             	add    $0x10,%esp
c010ae3e:	eb 2c                	jmp    c010ae6c <ata_detect+0x14c>
c010ae40:	83 ec 0c             	sub    $0xc,%esp
c010ae43:	8d 83 a3 cc ff ff    	lea    -0x335d(%ebx),%eax
c010ae49:	50                   	push   %eax
c010ae4a:	e8 91 09 00 00       	call   c010b7e0 <klog>
c010ae4f:	83 c4 10             	add    $0x10,%esp
c010ae52:	eb 18                	jmp    c010ae6c <ata_detect+0x14c>
c010ae54:	0f b7 45 ee          	movzwl -0x12(%ebp),%eax
c010ae58:	83 ec 08             	sub    $0x8,%esp
c010ae5b:	50                   	push   %eax
c010ae5c:	8d 83 b8 cc ff ff    	lea    -0x3348(%ebx),%eax
c010ae62:	50                   	push   %eax
c010ae63:	e8 78 09 00 00       	call   c010b7e0 <klog>
c010ae68:	83 c4 10             	add    $0x10,%esp
c010ae6b:	90                   	nop
c010ae6c:	90                   	nop
c010ae6d:	8b 5d fc             	mov    -0x4(%ebp),%ebx
c010ae70:	c9                   	leave
c010ae71:	c3                   	ret

c010ae72 <ata_init>:
c010ae72:	55                   	push   %ebp
c010ae73:	89 e5                	mov    %esp,%ebp
c010ae75:	53                   	push   %ebx
c010ae76:	83 ec 14             	sub    $0x14,%esp
c010ae79:	e8 bf 3b 00 00       	call   c010ea3d <__x86.get_pc_thunk.bx>
c010ae7e:	81 c3 ae 77 00 00    	add    $0x77ae,%ebx
c010ae84:	66 c7 45 f4 f0 01    	movw   $0x1f0,-0xc(%ebp)
c010ae8a:	66 c7 45 f6 f6 03    	movw   $0x3f6,-0xa(%ebp)
c010ae90:	83 ec 08             	sub    $0x8,%esp
c010ae93:	6a 01                	push   $0x1
c010ae95:	8d 45 f4             	lea    -0xc(%ebp),%eax
c010ae98:	50                   	push   %eax
c010ae99:	e8 82 fe ff ff       	call   c010ad20 <ata_detect>
c010ae9e:	83 c4 10             	add    $0x10,%esp
c010aea1:	83 ec 0c             	sub    $0xc,%esp
c010aea4:	8d 83 d8 cc ff ff    	lea    -0x3328(%ebx),%eax
c010aeaa:	50                   	push   %eax
c010aeab:	e8 30 09 00 00       	call   c010b7e0 <klog>
c010aeb0:	83 c4 10             	add    $0x10,%esp
c010aeb3:	90                   	nop
c010aeb4:	8b 5d fc             	mov    -0x4(%ebp),%ebx
c010aeb7:	c9                   	leave
c010aeb8:	c3                   	ret

c010aeb9 <floppy_wait>:
c010aeb9:	55                   	push   %ebp
c010aeba:	89 e5                	mov    %esp,%ebp
c010aebc:	53                   	push   %ebx
c010aebd:	83 ec 24             	sub    $0x24,%esp
c010aec0:	e8 78 3b 00 00       	call   c010ea3d <__x86.get_pc_thunk.bx>
c010aec5:	81 c3 67 77 00 00    	add    $0x7767,%ebx
c010aecb:	8b 45 08             	mov    0x8(%ebp),%eax
c010aece:	66 89 45 e4          	mov    %ax,-0x1c(%ebp)
c010aed2:	c7 45 f4 00 00 00 00 	movl   $0x0,-0xc(%ebp)
c010aed9:	c7 45 ec 0a 00 00 00 	movl   $0xa,-0x14(%ebp)
c010aee0:	0f b7 45 e4          	movzwl -0x1c(%ebp),%eax
c010aee4:	83 c0 04             	add    $0x4,%eax
c010aee7:	0f b7 c0             	movzwl %ax,%eax
c010aeea:	83 ec 0c             	sub    $0xc,%esp
c010aeed:	50                   	push   %eax
c010aeee:	e8 79 0a 00 00       	call   c010b96c <inb>
c010aef3:	83 c4 10             	add    $0x10,%esp
c010aef6:	88 45 f3             	mov    %al,-0xd(%ebp)
c010aef9:	eb 3d                	jmp    c010af38 <floppy_wait+0x7f>
c010aefb:	0f b7 45 e4          	movzwl -0x1c(%ebp),%eax
c010aeff:	83 c0 04             	add    $0x4,%eax
c010af02:	0f b7 c0             	movzwl %ax,%eax
c010af05:	83 ec 0c             	sub    $0xc,%esp
c010af08:	50                   	push   %eax
c010af09:	e8 5e 0a 00 00       	call   c010b96c <inb>
c010af0e:	83 c4 10             	add    $0x10,%esp
c010af11:	88 45 f3             	mov    %al,-0xd(%ebp)
c010af14:	8b 45 ec             	mov    -0x14(%ebp),%eax
c010af17:	01 45 f4             	add    %eax,-0xc(%ebp)
c010af1a:	81 7d f4 2f 75 00 00 	cmpl   $0x752f,-0xc(%ebp)
c010af21:	76 07                	jbe    c010af2a <floppy_wait+0x71>
c010af23:	b8 01 00 00 00       	mov    $0x1,%eax
c010af28:	eb 26                	jmp    c010af50 <floppy_wait+0x97>
c010af2a:	83 ec 0c             	sub    $0xc,%esp
c010af2d:	ff 75 ec             	push   -0x14(%ebp)
c010af30:	e8 a7 e5 ff ff       	call   c01094dc <sleep_ms>
c010af35:	83 c4 10             	add    $0x10,%esp
c010af38:	0f b6 45 f3          	movzbl -0xd(%ebp),%eax
c010af3c:	84 c0                	test   %al,%al
c010af3e:	79 bb                	jns    c010aefb <floppy_wait+0x42>
c010af40:	0f b6 45 f3          	movzbl -0xd(%ebp),%eax
c010af44:	83 e0 40             	and    $0x40,%eax
c010af47:	85 c0                	test   %eax,%eax
c010af49:	75 b0                	jne    c010aefb <floppy_wait+0x42>
c010af4b:	b8 00 00 00 00       	mov    $0x0,%eax
c010af50:	8b 5d fc             	mov    -0x4(%ebp),%ebx
c010af53:	c9                   	leave
c010af54:	c3                   	ret

c010af55 <floppy_read>:
c010af55:	55                   	push   %ebp
c010af56:	89 e5                	mov    %esp,%ebp
c010af58:	53                   	push   %ebx
c010af59:	83 ec 14             	sub    $0x14,%esp
c010af5c:	e8 dc 3a 00 00       	call   c010ea3d <__x86.get_pc_thunk.bx>
c010af61:	81 c3 cb 76 00 00    	add    $0x76cb,%ebx
c010af67:	8b 45 08             	mov    0x8(%ebp),%eax
c010af6a:	66 89 45 f4          	mov    %ax,-0xc(%ebp)
c010af6e:	0f b7 45 f4          	movzwl -0xc(%ebp),%eax
c010af72:	83 ec 0c             	sub    $0xc,%esp
c010af75:	50                   	push   %eax
c010af76:	e8 3e ff ff ff       	call   c010aeb9 <floppy_wait>
c010af7b:	83 c4 10             	add    $0x10,%esp
c010af7e:	66 85 c0             	test   %ax,%ax
c010af81:	74 07                	je     c010af8a <floppy_read+0x35>
c010af83:	b8 ff ff ff ff       	mov    $0xffffffff,%eax
c010af88:	eb 19                	jmp    c010afa3 <floppy_read+0x4e>
c010af8a:	0f b7 45 f4          	movzwl -0xc(%ebp),%eax
c010af8e:	83 c0 05             	add    $0x5,%eax
c010af91:	0f b7 c0             	movzwl %ax,%eax
c010af94:	83 ec 0c             	sub    $0xc,%esp
c010af97:	50                   	push   %eax
c010af98:	e8 cf 09 00 00       	call   c010b96c <inb>
c010af9d:	83 c4 10             	add    $0x10,%esp
c010afa0:	0f b6 c0             	movzbl %al,%eax
c010afa3:	8b 5d fc             	mov    -0x4(%ebp),%ebx
c010afa6:	c9                   	leave
c010afa7:	c3                   	ret

c010afa8 <floppy_write_cmd>:
c010afa8:	55                   	push   %ebp
c010afa9:	89 e5                	mov    %esp,%ebp
c010afab:	53                   	push   %ebx
c010afac:	83 ec 24             	sub    $0x24,%esp
c010afaf:	e8 89 3a 00 00       	call   c010ea3d <__x86.get_pc_thunk.bx>
c010afb4:	81 c3 78 76 00 00    	add    $0x7678,%ebx
c010afba:	8b 55 08             	mov    0x8(%ebp),%edx
c010afbd:	8b 45 0c             	mov    0xc(%ebp),%eax
c010afc0:	66 89 55 e4          	mov    %dx,-0x1c(%ebp)
c010afc4:	88 45 e0             	mov    %al,-0x20(%ebp)
c010afc7:	0f b7 45 e4          	movzwl -0x1c(%ebp),%eax
c010afcb:	83 c0 04             	add    $0x4,%eax
c010afce:	0f b7 c0             	movzwl %ax,%eax
c010afd1:	83 ec 0c             	sub    $0xc,%esp
c010afd4:	50                   	push   %eax
c010afd5:	e8 92 09 00 00       	call   c010b96c <inb>
c010afda:	83 c4 10             	add    $0x10,%esp
c010afdd:	88 45 f3             	mov    %al,-0xd(%ebp)
c010afe0:	0f b6 45 f3          	movzbl -0xd(%ebp),%eax
c010afe4:	84 c0                	test   %al,%al
c010afe6:	79 0b                	jns    c010aff3 <floppy_write_cmd+0x4b>
c010afe8:	0f b6 45 f3          	movzbl -0xd(%ebp),%eax
c010afec:	83 e0 40             	and    $0x40,%eax
c010afef:	85 c0                	test   %eax,%eax
c010aff1:	74 07                	je     c010affa <floppy_write_cmd+0x52>
c010aff3:	b8 fe ff ff ff       	mov    $0xfffffffe,%eax
c010aff8:	eb 7c                	jmp    c010b076 <floppy_write_cmd+0xce>
c010affa:	0f b6 55 e0          	movzbl -0x20(%ebp),%edx
c010affe:	0f b7 45 e4          	movzwl -0x1c(%ebp),%eax
c010b002:	83 c0 05             	add    $0x5,%eax
c010b005:	0f b7 c0             	movzwl %ax,%eax
c010b008:	83 ec 08             	sub    $0x8,%esp
c010b00b:	52                   	push   %edx
c010b00c:	50                   	push   %eax
c010b00d:	e8 31 09 00 00       	call   c010b943 <outb>
c010b012:	83 c4 10             	add    $0x10,%esp
c010b015:	8d 45 14             	lea    0x14(%ebp),%eax
c010b018:	89 45 ec             	mov    %eax,-0x14(%ebp)
c010b01b:	c7 45 f4 00 00 00 00 	movl   $0x0,-0xc(%ebp)
c010b022:	eb 45                	jmp    c010b069 <floppy_write_cmd+0xc1>
c010b024:	0f b7 45 e4          	movzwl -0x1c(%ebp),%eax
c010b028:	83 ec 0c             	sub    $0xc,%esp
c010b02b:	50                   	push   %eax
c010b02c:	e8 88 fe ff ff       	call   c010aeb9 <floppy_wait>
c010b031:	83 c4 10             	add    $0x10,%esp
c010b034:	66 85 c0             	test   %ax,%ax
c010b037:	74 07                	je     c010b040 <floppy_write_cmd+0x98>
c010b039:	b8 ff ff ff ff       	mov    $0xffffffff,%eax
c010b03e:	eb 36                	jmp    c010b076 <floppy_write_cmd+0xce>
c010b040:	8b 45 ec             	mov    -0x14(%ebp),%eax
c010b043:	8d 50 04             	lea    0x4(%eax),%edx
c010b046:	89 55 ec             	mov    %edx,-0x14(%ebp)
c010b049:	8b 00                	mov    (%eax),%eax
c010b04b:	0f b6 d0             	movzbl %al,%edx
c010b04e:	0f b7 45 e4          	movzwl -0x1c(%ebp),%eax
c010b052:	83 c0 05             	add    $0x5,%eax
c010b055:	0f b7 c0             	movzwl %ax,%eax
c010b058:	83 ec 08             	sub    $0x8,%esp
c010b05b:	52                   	push   %edx
c010b05c:	50                   	push   %eax
c010b05d:	e8 e1 08 00 00       	call   c010b943 <outb>
c010b062:	83 c4 10             	add    $0x10,%esp
c010b065:	83 45 f4 01          	addl   $0x1,-0xc(%ebp)
c010b069:	8b 45 f4             	mov    -0xc(%ebp),%eax
c010b06c:	3b 45 10             	cmp    0x10(%ebp),%eax
c010b06f:	72 b3                	jb     c010b024 <floppy_write_cmd+0x7c>
c010b071:	b8 00 00 00 00       	mov    $0x0,%eax
c010b076:	8b 5d fc             	mov    -0x4(%ebp),%ebx
c010b079:	c9                   	leave
c010b07a:	c3                   	ret

c010b07b <floppy_irq_wait>:
c010b07b:	55                   	push   %ebp
c010b07c:	89 e5                	mov    %esp,%ebp
c010b07e:	53                   	push   %ebx
c010b07f:	83 ec 14             	sub    $0x14,%esp
c010b082:	e8 b6 39 00 00       	call   c010ea3d <__x86.get_pc_thunk.bx>
c010b087:	81 c3 a5 75 00 00    	add    $0x75a5,%ebx
c010b08d:	c7 45 f4 00 00 00 00 	movl   $0x0,-0xc(%ebp)
c010b094:	eb 21                	jmp    c010b0b7 <floppy_irq_wait+0x3c>
c010b096:	83 ec 0c             	sub    $0xc,%esp
c010b099:	6a 0a                	push   $0xa
c010b09b:	e8 3c e4 ff ff       	call   c01094dc <sleep_ms>
c010b0a0:	83 c4 10             	add    $0x10,%esp
c010b0a3:	83 45 f4 0a          	addl   $0xa,-0xc(%ebp)
c010b0a7:	81 7d f4 30 75 00 00 	cmpl   $0x7530,-0xc(%ebp)
c010b0ae:	76 07                	jbe    c010b0b7 <floppy_irq_wait+0x3c>
c010b0b0:	b8 ff ff ff ff       	mov    $0xffffffff,%eax
c010b0b5:	eb 10                	jmp    c010b0c7 <floppy_irq_wait+0x4c>
c010b0b7:	8b 83 54 96 00 00    	mov    0x9654(%ebx),%eax
c010b0bd:	39 45 08             	cmp    %eax,0x8(%ebp)
c010b0c0:	74 d4                	je     c010b096 <floppy_irq_wait+0x1b>
c010b0c2:	b8 00 00 00 00       	mov    $0x0,%eax
c010b0c7:	8b 5d fc             	mov    -0x4(%ebp),%ebx
c010b0ca:	c9                   	leave
c010b0cb:	c3                   	ret

c010b0cc <floppy_sense_interrupt>:
c010b0cc:	55                   	push   %ebp
c010b0cd:	89 e5                	mov    %esp,%ebp
c010b0cf:	53                   	push   %ebx
c010b0d0:	83 ec 24             	sub    $0x24,%esp
c010b0d3:	e8 65 39 00 00       	call   c010ea3d <__x86.get_pc_thunk.bx>
c010b0d8:	81 c3 54 75 00 00    	add    $0x7554,%ebx
c010b0de:	8b 45 08             	mov    0x8(%ebp),%eax
c010b0e1:	66 89 45 e4          	mov    %ax,-0x1c(%ebp)
c010b0e5:	0f b7 45 e4          	movzwl -0x1c(%ebp),%eax
c010b0e9:	83 ec 04             	sub    $0x4,%esp
c010b0ec:	6a 00                	push   $0x0
c010b0ee:	6a 08                	push   $0x8
c010b0f0:	50                   	push   %eax
c010b0f1:	e8 b2 fe ff ff       	call   c010afa8 <floppy_write_cmd>
c010b0f6:	83 c4 10             	add    $0x10,%esp
c010b0f9:	89 45 f4             	mov    %eax,-0xc(%ebp)
c010b0fc:	83 7d f4 00          	cmpl   $0x0,-0xc(%ebp)
c010b100:	74 05                	je     c010b107 <floppy_sense_interrupt+0x3b>
c010b102:	8b 45 f4             	mov    -0xc(%ebp),%eax
c010b105:	eb 5c                	jmp    c010b163 <floppy_sense_interrupt+0x97>
c010b107:	0f b7 45 e4          	movzwl -0x1c(%ebp),%eax
c010b10b:	83 ec 0c             	sub    $0xc,%esp
c010b10e:	50                   	push   %eax
c010b10f:	e8 41 fe ff ff       	call   c010af55 <floppy_read>
c010b114:	83 c4 10             	add    $0x10,%esp
c010b117:	98                   	cwtl
c010b118:	89 45 f0             	mov    %eax,-0x10(%ebp)
c010b11b:	83 7d f0 00          	cmpl   $0x0,-0x10(%ebp)
c010b11f:	79 05                	jns    c010b126 <floppy_sense_interrupt+0x5a>
c010b121:	8b 45 f0             	mov    -0x10(%ebp),%eax
c010b124:	eb 3d                	jmp    c010b163 <floppy_sense_interrupt+0x97>
c010b126:	0f b7 45 e4          	movzwl -0x1c(%ebp),%eax
c010b12a:	83 ec 0c             	sub    $0xc,%esp
c010b12d:	50                   	push   %eax
c010b12e:	e8 22 fe ff ff       	call   c010af55 <floppy_read>
c010b133:	83 c4 10             	add    $0x10,%esp
c010b136:	98                   	cwtl
c010b137:	89 45 ec             	mov    %eax,-0x14(%ebp)
c010b13a:	83 7d ec 00          	cmpl   $0x0,-0x14(%ebp)
c010b13e:	79 05                	jns    c010b145 <floppy_sense_interrupt+0x79>
c010b140:	8b 45 ec             	mov    -0x14(%ebp),%eax
c010b143:	eb 1e                	jmp    c010b163 <floppy_sense_interrupt+0x97>
c010b145:	8b 45 ec             	mov    -0x14(%ebp),%eax
c010b148:	c1 e0 08             	shl    $0x8,%eax
c010b14b:	09 45 f0             	or     %eax,-0x10(%ebp)
c010b14e:	83 ec 0c             	sub    $0xc,%esp
c010b151:	8d 83 3d cd ff ff    	lea    -0x32c3(%ebx),%eax
c010b157:	50                   	push   %eax
c010b158:	e8 83 06 00 00       	call   c010b7e0 <klog>
c010b15d:	83 c4 10             	add    $0x10,%esp
c010b160:	8b 45 f0             	mov    -0x10(%ebp),%eax
c010b163:	8b 5d fc             	mov    -0x4(%ebp),%ebx
c010b166:	c9                   	leave
c010b167:	c3                   	ret

c010b168 <floppy_motor>:
c010b168:	55                   	push   %ebp
c010b169:	89 e5                	mov    %esp,%ebp
c010b16b:	56                   	push   %esi
c010b16c:	53                   	push   %ebx
c010b16d:	83 ec 20             	sub    $0x20,%esp
c010b170:	e8 c8 38 00 00       	call   c010ea3d <__x86.get_pc_thunk.bx>
c010b175:	81 c3 b7 74 00 00    	add    $0x74b7,%ebx
c010b17b:	8b 4d 08             	mov    0x8(%ebp),%ecx
c010b17e:	8b 55 0c             	mov    0xc(%ebp),%edx
c010b181:	8b 45 10             	mov    0x10(%ebp),%eax
c010b184:	66 89 4d e4          	mov    %cx,-0x1c(%ebp)
c010b188:	88 55 e0             	mov    %dl,-0x20(%ebp)
c010b18b:	88 45 dc             	mov    %al,-0x24(%ebp)
c010b18e:	0f b6 45 e0          	movzbl -0x20(%ebp),%eax
c010b192:	ba 01 00 00 00       	mov    $0x1,%edx
c010b197:	89 c1                	mov    %eax,%ecx
c010b199:	d3 e2                	shl    %cl,%edx
c010b19b:	89 d0                	mov    %edx,%eax
c010b19d:	89 c6                	mov    %eax,%esi
c010b19f:	0f b6 55 dc          	movzbl -0x24(%ebp),%edx
c010b1a3:	0f b6 45 e0          	movzbl -0x20(%ebp),%eax
c010b1a7:	89 c1                	mov    %eax,%ecx
c010b1a9:	d3 e2                	shl    %cl,%edx
c010b1ab:	89 d0                	mov    %edx,%eax
c010b1ad:	21 f0                	and    %esi,%eax
c010b1af:	c1 e0 04             	shl    $0x4,%eax
c010b1b2:	88 45 f7             	mov    %al,-0x9(%ebp)
c010b1b5:	0f b6 45 e0          	movzbl -0x20(%ebp),%eax
c010b1b9:	83 e0 03             	and    $0x3,%eax
c010b1bc:	0a 45 f7             	or     -0x9(%ebp),%al
c010b1bf:	83 c8 0c             	or     $0xc,%eax
c010b1c2:	0f b6 d0             	movzbl %al,%edx
c010b1c5:	0f b7 45 e4          	movzwl -0x1c(%ebp),%eax
c010b1c9:	83 c0 02             	add    $0x2,%eax
c010b1cc:	0f b7 c0             	movzwl %ax,%eax
c010b1cf:	83 ec 08             	sub    $0x8,%esp
c010b1d2:	52                   	push   %edx
c010b1d3:	50                   	push   %eax
c010b1d4:	e8 6a 07 00 00       	call   c010b943 <outb>
c010b1d9:	83 c4 10             	add    $0x10,%esp
c010b1dc:	83 ec 0c             	sub    $0xc,%esp
c010b1df:	68 e8 03 00 00       	push   $0x3e8
c010b1e4:	e8 f3 e2 ff ff       	call   c01094dc <sleep_ms>
c010b1e9:	83 c4 10             	add    $0x10,%esp
c010b1ec:	90                   	nop
c010b1ed:	8d 65 f8             	lea    -0x8(%ebp),%esp
c010b1f0:	5b                   	pop    %ebx
c010b1f1:	5e                   	pop    %esi
c010b1f2:	5d                   	pop    %ebp
c010b1f3:	c3                   	ret

c010b1f4 <floppy_calibrate>:
c010b1f4:	55                   	push   %ebp
c010b1f5:	89 e5                	mov    %esp,%ebp
c010b1f7:	53                   	push   %ebx
c010b1f8:	83 ec 24             	sub    $0x24,%esp
c010b1fb:	e8 3d 38 00 00       	call   c010ea3d <__x86.get_pc_thunk.bx>
c010b200:	81 c3 2c 74 00 00    	add    $0x742c,%ebx
c010b206:	8b 45 08             	mov    0x8(%ebp),%eax
c010b209:	66 89 45 e4          	mov    %ax,-0x1c(%ebp)
c010b20d:	0f b6 83 50 96 00 00 	movzbl 0x9650(%ebx),%eax
c010b214:	0f b6 d0             	movzbl %al,%edx
c010b217:	0f b7 45 e4          	movzwl -0x1c(%ebp),%eax
c010b21b:	83 ec 04             	sub    $0x4,%esp
c010b21e:	6a 01                	push   $0x1
c010b220:	52                   	push   %edx
c010b221:	50                   	push   %eax
c010b222:	e8 41 ff ff ff       	call   c010b168 <floppy_motor>
c010b227:	83 c4 10             	add    $0x10,%esp
c010b22a:	c7 45 f4 00 00 00 00 	movl   $0x0,-0xc(%ebp)
c010b231:	e9 d4 00 00 00       	jmp    c010b30a <floppy_calibrate+0x116>
c010b236:	83 ec 0c             	sub    $0xc,%esp
c010b239:	8d 83 4e cd ff ff    	lea    -0x32b2(%ebx),%eax
c010b23f:	50                   	push   %eax
c010b240:	e8 9b 05 00 00       	call   c010b7e0 <klog>
c010b245:	83 c4 10             	add    $0x10,%esp
c010b248:	8b 83 54 96 00 00    	mov    0x9654(%ebx),%eax
c010b24e:	89 45 f0             	mov    %eax,-0x10(%ebp)
c010b251:	0f b6 83 50 96 00 00 	movzbl 0x9650(%ebx),%eax
c010b258:	0f b6 d0             	movzbl %al,%edx
c010b25b:	0f b7 45 e4          	movzwl -0x1c(%ebp),%eax
c010b25f:	52                   	push   %edx
c010b260:	6a 01                	push   $0x1
c010b262:	6a 07                	push   $0x7
c010b264:	50                   	push   %eax
c010b265:	e8 3e fd ff ff       	call   c010afa8 <floppy_write_cmd>
c010b26a:	83 c4 10             	add    $0x10,%esp
c010b26d:	85 c0                	test   %eax,%eax
c010b26f:	74 0a                	je     c010b27b <floppy_calibrate+0x87>
c010b271:	b8 ff ff ff ff       	mov    $0xffffffff,%eax
c010b276:	e9 cd 00 00 00       	jmp    c010b348 <floppy_calibrate+0x154>
c010b27b:	83 ec 0c             	sub    $0xc,%esp
c010b27e:	ff 75 f0             	push   -0x10(%ebp)
c010b281:	e8 f5 fd ff ff       	call   c010b07b <floppy_irq_wait>
c010b286:	83 c4 10             	add    $0x10,%esp
c010b289:	85 c0                	test   %eax,%eax
c010b28b:	75 72                	jne    c010b2ff <floppy_calibrate+0x10b>
c010b28d:	0f b7 45 e4          	movzwl -0x1c(%ebp),%eax
c010b291:	83 ec 0c             	sub    $0xc,%esp
c010b294:	50                   	push   %eax
c010b295:	e8 32 fe ff ff       	call   c010b0cc <floppy_sense_interrupt>
c010b29a:	83 c4 10             	add    $0x10,%esp
c010b29d:	89 45 ec             	mov    %eax,-0x14(%ebp)
c010b2a0:	83 7d ec ff          	cmpl   $0xffffffff,-0x14(%ebp)
c010b2a4:	74 5c                	je     c010b302 <floppy_calibrate+0x10e>
c010b2a6:	8b 45 ec             	mov    -0x14(%ebp),%eax
c010b2a9:	66 89 45 ea          	mov    %ax,-0x16(%ebp)
c010b2ad:	0f b7 45 ea          	movzwl -0x16(%ebp),%eax
c010b2b1:	66 c1 e8 08          	shr    $0x8,%ax
c010b2b5:	88 45 e9             	mov    %al,-0x17(%ebp)
c010b2b8:	0f b7 45 ea          	movzwl -0x16(%ebp),%eax
c010b2bc:	88 45 e8             	mov    %al,-0x18(%ebp)
c010b2bf:	0f b6 83 50 96 00 00 	movzbl 0x9650(%ebx),%eax
c010b2c6:	83 c8 c0             	or     $0xffffffc0,%eax
c010b2c9:	22 45 e9             	and    -0x17(%ebp),%al
c010b2cc:	0f b6 93 50 96 00 00 	movzbl 0x9650(%ebx),%edx
c010b2d3:	83 ca c0             	or     $0xffffffc0,%edx
c010b2d6:	38 d0                	cmp    %dl,%al
c010b2d8:	75 2b                	jne    c010b305 <floppy_calibrate+0x111>
c010b2da:	80 7d e8 00          	cmpb   $0x0,-0x18(%ebp)
c010b2de:	75 26                	jne    c010b306 <floppy_calibrate+0x112>
c010b2e0:	0f b6 83 50 96 00 00 	movzbl 0x9650(%ebx),%eax
c010b2e7:	0f b6 d0             	movzbl %al,%edx
c010b2ea:	0f b7 45 e4          	movzwl -0x1c(%ebp),%eax
c010b2ee:	83 ec 04             	sub    $0x4,%esp
c010b2f1:	6a 00                	push   $0x0
c010b2f3:	52                   	push   %edx
c010b2f4:	50                   	push   %eax
c010b2f5:	e8 6e fe ff ff       	call   c010b168 <floppy_motor>
c010b2fa:	83 c4 10             	add    $0x10,%esp
c010b2fd:	eb 07                	jmp    c010b306 <floppy_calibrate+0x112>
c010b2ff:	90                   	nop
c010b300:	eb 04                	jmp    c010b306 <floppy_calibrate+0x112>
c010b302:	90                   	nop
c010b303:	eb 01                	jmp    c010b306 <floppy_calibrate+0x112>
c010b305:	90                   	nop
c010b306:	83 45 f4 01          	addl   $0x1,-0xc(%ebp)
c010b30a:	83 7d f4 02          	cmpl   $0x2,-0xc(%ebp)
c010b30e:	0f 86 22 ff ff ff    	jbe    c010b236 <floppy_calibrate+0x42>
c010b314:	83 ec 0c             	sub    $0xc,%esp
c010b317:	8d 83 62 cd ff ff    	lea    -0x329e(%ebx),%eax
c010b31d:	50                   	push   %eax
c010b31e:	e8 51 05 00 00       	call   c010b874 <klog_error>
c010b323:	83 c4 10             	add    $0x10,%esp
c010b326:	0f b6 83 50 96 00 00 	movzbl 0x9650(%ebx),%eax
c010b32d:	0f b6 d0             	movzbl %al,%edx
c010b330:	0f b7 45 e4          	movzwl -0x1c(%ebp),%eax
c010b334:	83 ec 04             	sub    $0x4,%esp
c010b337:	6a 00                	push   $0x0
c010b339:	52                   	push   %edx
c010b33a:	50                   	push   %eax
c010b33b:	e8 28 fe ff ff       	call   c010b168 <floppy_motor>
c010b340:	83 c4 10             	add    $0x10,%esp
c010b343:	b8 01 00 00 00       	mov    $0x1,%eax
c010b348:	8b 5d fc             	mov    -0x4(%ebp),%ebx
c010b34b:	c9                   	leave
c010b34c:	c3                   	ret

c010b34d <floppy_reset>:
c010b34d:	55                   	push   %ebp
c010b34e:	89 e5                	mov    %esp,%ebp
c010b350:	53                   	push   %ebx
c010b351:	83 ec 24             	sub    $0x24,%esp
c010b354:	e8 e4 36 00 00       	call   c010ea3d <__x86.get_pc_thunk.bx>
c010b359:	81 c3 d3 72 00 00    	add    $0x72d3,%ebx
c010b35f:	8b 45 08             	mov    0x8(%ebp),%eax
c010b362:	66 89 45 e4          	mov    %ax,-0x1c(%ebp)
c010b366:	0f b7 45 e4          	movzwl -0x1c(%ebp),%eax
c010b36a:	83 c0 02             	add    $0x2,%eax
c010b36d:	0f b7 c0             	movzwl %ax,%eax
c010b370:	83 ec 0c             	sub    $0xc,%esp
c010b373:	50                   	push   %eax
c010b374:	e8 f3 05 00 00       	call   c010b96c <inb>
c010b379:	83 c4 10             	add    $0x10,%esp
c010b37c:	88 45 f6             	mov    %al,-0xa(%ebp)
c010b37f:	83 ec 0c             	sub    $0xc,%esp
c010b382:	6a 64                	push   $0x64
c010b384:	e8 7a e0 ff ff       	call   c0109403 <sleep_us>
c010b389:	83 c4 10             	add    $0x10,%esp
c010b38c:	0f b7 45 e4          	movzwl -0x1c(%ebp),%eax
c010b390:	83 c0 02             	add    $0x2,%eax
c010b393:	0f b7 c0             	movzwl %ax,%eax
c010b396:	83 ec 08             	sub    $0x8,%esp
c010b399:	6a 00                	push   $0x0
c010b39b:	50                   	push   %eax
c010b39c:	e8 a2 05 00 00       	call   c010b943 <outb>
c010b3a1:	83 c4 10             	add    $0x10,%esp
c010b3a4:	83 ec 0c             	sub    $0xc,%esp
c010b3a7:	6a 05                	push   $0x5
c010b3a9:	e8 2e e1 ff ff       	call   c01094dc <sleep_ms>
c010b3ae:	83 c4 10             	add    $0x10,%esp
c010b3b1:	0f b7 45 e4          	movzwl -0x1c(%ebp),%eax
c010b3b5:	83 c0 02             	add    $0x2,%eax
c010b3b8:	0f b7 c0             	movzwl %ax,%eax
c010b3bb:	83 ec 08             	sub    $0x8,%esp
c010b3be:	6a 0c                	push   $0xc
c010b3c0:	50                   	push   %eax
c010b3c1:	e8 7d 05 00 00       	call   c010b943 <outb>
c010b3c6:	83 c4 10             	add    $0x10,%esp
c010b3c9:	0f b7 45 e4          	movzwl -0x1c(%ebp),%eax
c010b3cd:	83 ec 0c             	sub    $0xc,%esp
c010b3d0:	50                   	push   %eax
c010b3d1:	e8 f6 fc ff ff       	call   c010b0cc <floppy_sense_interrupt>
c010b3d6:	83 c4 10             	add    $0x10,%esp
c010b3d9:	83 f8 ff             	cmp    $0xffffffff,%eax
c010b3dc:	75 0a                	jne    c010b3e8 <floppy_reset+0x9b>
c010b3de:	b8 ff ff ff ff       	mov    $0xffffffff,%eax
c010b3e3:	e9 8f 00 00 00       	jmp    c010b477 <floppy_reset+0x12a>
c010b3e8:	c6 45 f7 00          	movb   $0x0,-0x9(%ebp)
c010b3ec:	0f b6 83 50 96 00 00 	movzbl 0x9650(%ebx),%eax
c010b3f3:	0f b6 c0             	movzbl %al,%eax
c010b3f6:	8b 84 83 40 96 00 00 	mov    0x9640(%ebx,%eax,4),%eax
c010b3fd:	83 f8 05             	cmp    $0x5,%eax
c010b400:	75 04                	jne    c010b406 <floppy_reset+0xb9>
c010b402:	c6 45 f7 03          	movb   $0x3,-0x9(%ebp)
c010b406:	0f b6 55 f7          	movzbl -0x9(%ebp),%edx
c010b40a:	0f b7 45 e4          	movzwl -0x1c(%ebp),%eax
c010b40e:	83 c0 07             	add    $0x7,%eax
c010b411:	0f b7 c0             	movzwl %ax,%eax
c010b414:	83 ec 04             	sub    $0x4,%esp
c010b417:	6a 00                	push   $0x0
c010b419:	52                   	push   %edx
c010b41a:	50                   	push   %eax
c010b41b:	e8 88 fb ff ff       	call   c010afa8 <floppy_write_cmd>
c010b420:	83 c4 10             	add    $0x10,%esp
c010b423:	83 f8 ff             	cmp    $0xffffffff,%eax
c010b426:	75 07                	jne    c010b42f <floppy_reset+0xe2>
c010b428:	b8 ff ff ff ff       	mov    $0xffffffff,%eax
c010b42d:	eb 48                	jmp    c010b477 <floppy_reset+0x12a>
c010b42f:	0f b7 45 e4          	movzwl -0x1c(%ebp),%eax
c010b433:	83 c0 03             	add    $0x3,%eax
c010b436:	0f b7 c0             	movzwl %ax,%eax
c010b439:	6a 02                	push   $0x2
c010b43b:	68 df 00 00 00       	push   $0xdf
c010b440:	6a 02                	push   $0x2
c010b442:	50                   	push   %eax
c010b443:	e8 60 fb ff ff       	call   c010afa8 <floppy_write_cmd>
c010b448:	83 c4 10             	add    $0x10,%esp
c010b44b:	83 f8 ff             	cmp    $0xffffffff,%eax
c010b44e:	75 07                	jne    c010b457 <floppy_reset+0x10a>
c010b450:	b8 ff ff ff ff       	mov    $0xffffffff,%eax
c010b455:	eb 20                	jmp    c010b477 <floppy_reset+0x12a>
c010b457:	0f b7 45 e4          	movzwl -0x1c(%ebp),%eax
c010b45b:	83 ec 0c             	sub    $0xc,%esp
c010b45e:	50                   	push   %eax
c010b45f:	e8 90 fd ff ff       	call   c010b1f4 <floppy_calibrate>
c010b464:	83 c4 10             	add    $0x10,%esp
c010b467:	85 c0                	test   %eax,%eax
c010b469:	74 07                	je     c010b472 <floppy_reset+0x125>
c010b46b:	b8 ff ff ff ff       	mov    $0xffffffff,%eax
c010b470:	eb 05                	jmp    c010b477 <floppy_reset+0x12a>
c010b472:	b8 00 00 00 00       	mov    $0x0,%eax
c010b477:	8b 5d fc             	mov    -0x4(%ebp),%ebx
c010b47a:	c9                   	leave
c010b47b:	c3                   	ret

c010b47c <floppy_detect>:
c010b47c:	55                   	push   %ebp
c010b47d:	89 e5                	mov    %esp,%ebp
c010b47f:	53                   	push   %ebx
c010b480:	83 ec 14             	sub    $0x14,%esp
c010b483:	e8 b5 35 00 00       	call   c010ea3d <__x86.get_pc_thunk.bx>
c010b488:	81 c3 a4 71 00 00    	add    $0x71a4,%ebx
c010b48e:	83 ec 0c             	sub    $0xc,%esp
c010b491:	6a 10                	push   $0x10
c010b493:	e8 aa d4 ff ff       	call   c0108942 <cmos_select_reg>
c010b498:	83 c4 10             	add    $0x10,%esp
c010b49b:	e8 df d4 ff ff       	call   c010897f <cmos_read_data>
c010b4a0:	88 45 f7             	mov    %al,-0x9(%ebp)
c010b4a3:	0f b6 45 f7          	movzbl -0x9(%ebp),%eax
c010b4a7:	c0 e8 04             	shr    $0x4,%al
c010b4aa:	84 c0                	test   %al,%al
c010b4ac:	74 41                	je     c010b4ef <floppy_detect+0x73>
c010b4ae:	0f b6 45 f7          	movzbl -0x9(%ebp),%eax
c010b4b2:	c0 e8 04             	shr    $0x4,%al
c010b4b5:	0f b6 c0             	movzbl %al,%eax
c010b4b8:	8b 84 83 34 00 00 00 	mov    0x34(%ebx,%eax,4),%eax
c010b4bf:	83 ec 08             	sub    $0x8,%esp
c010b4c2:	50                   	push   %eax
c010b4c3:	8d 83 80 cd ff ff    	lea    -0x3280(%ebx),%eax
c010b4c9:	50                   	push   %eax
c010b4ca:	e8 11 03 00 00       	call   c010b7e0 <klog>
c010b4cf:	83 c4 10             	add    $0x10,%esp
c010b4d2:	0f b6 45 f7          	movzbl -0x9(%ebp),%eax
c010b4d6:	c0 e8 04             	shr    $0x4,%al
c010b4d9:	89 c2                	mov    %eax,%edx
c010b4db:	0f b6 83 50 96 00 00 	movzbl 0x9650(%ebx),%eax
c010b4e2:	0f b6 c0             	movzbl %al,%eax
c010b4e5:	0f b6 d2             	movzbl %dl,%edx
c010b4e8:	89 94 83 40 96 00 00 	mov    %edx,0x9640(%ebx,%eax,4)
c010b4ef:	0f b6 45 f7          	movzbl -0x9(%ebp),%eax
c010b4f3:	83 e0 0f             	and    $0xf,%eax
c010b4f6:	85 c0                	test   %eax,%eax
c010b4f8:	74 3b                	je     c010b535 <floppy_detect+0xb9>
c010b4fa:	0f b6 45 f7          	movzbl -0x9(%ebp),%eax
c010b4fe:	83 e0 0f             	and    $0xf,%eax
c010b501:	8b 84 83 34 00 00 00 	mov    0x34(%ebx,%eax,4),%eax
c010b508:	83 ec 08             	sub    $0x8,%esp
c010b50b:	50                   	push   %eax
c010b50c:	8d 83 a4 cd ff ff    	lea    -0x325c(%ebx),%eax
c010b512:	50                   	push   %eax
c010b513:	e8 c8 02 00 00       	call   c010b7e0 <klog>
c010b518:	83 c4 10             	add    $0x10,%esp
c010b51b:	0f b6 45 f7          	movzbl -0x9(%ebp),%eax
c010b51f:	83 e0 0f             	and    $0xf,%eax
c010b522:	89 c2                	mov    %eax,%edx
c010b524:	0f b6 83 50 96 00 00 	movzbl 0x9650(%ebx),%eax
c010b52b:	0f b6 c0             	movzbl %al,%eax
c010b52e:	89 94 83 40 96 00 00 	mov    %edx,0x9640(%ebx,%eax,4)
c010b535:	66 c7 83 fc ff ff ff 	movw   $0x3f0,-0x4(%ebx)
c010b53c:	f0 03 
c010b53e:	90                   	nop
c010b53f:	8b 5d fc             	mov    -0x4(%ebp),%ebx
c010b542:	c9                   	leave
c010b543:	c3                   	ret

c010b544 <floppy_handler>:
c010b544:	55                   	push   %ebp
c010b545:	89 e5                	mov    %esp,%ebp
c010b547:	53                   	push   %ebx
c010b548:	83 ec 04             	sub    $0x4,%esp
c010b54b:	e8 ed 34 00 00       	call   c010ea3d <__x86.get_pc_thunk.bx>
c010b550:	81 c3 dc 70 00 00    	add    $0x70dc,%ebx
c010b556:	83 ec 0c             	sub    $0xc,%esp
c010b559:	8d 83 c5 cd ff ff    	lea    -0x323b(%ebx),%eax
c010b55f:	50                   	push   %eax
c010b560:	e8 7b 02 00 00       	call   c010b7e0 <klog>
c010b565:	83 c4 10             	add    $0x10,%esp
c010b568:	8b 83 54 96 00 00    	mov    0x9654(%ebx),%eax
c010b56e:	83 c0 01             	add    $0x1,%eax
c010b571:	89 83 54 96 00 00    	mov    %eax,0x9654(%ebx)
c010b577:	90                   	nop
c010b578:	8b 5d fc             	mov    -0x4(%ebp),%ebx
c010b57b:	c9                   	leave
c010b57c:	c3                   	ret

c010b57d <floppy_init>:
c010b57d:	55                   	push   %ebp
c010b57e:	89 e5                	mov    %esp,%ebp
c010b580:	53                   	push   %ebx
c010b581:	83 ec 04             	sub    $0x4,%esp
c010b584:	e8 b4 34 00 00       	call   c010ea3d <__x86.get_pc_thunk.bx>
c010b589:	81 c3 a3 70 00 00    	add    $0x70a3,%ebx
c010b58f:	e8 e8 fe ff ff       	call   c010b47c <floppy_detect>
c010b594:	83 ec 08             	sub    $0x8,%esp
c010b597:	8d 83 18 8f ff ff    	lea    -0x70e8(%ebx),%eax
c010b59d:	50                   	push   %eax
c010b59e:	6a 06                	push   $0x6
c010b5a0:	e8 dd cb ff ff       	call   c0108182 <add_irq_handler>
c010b5a5:	83 c4 10             	add    $0x10,%esp
c010b5a8:	0f b7 83 fc ff ff ff 	movzwl -0x4(%ebx),%eax
c010b5af:	0f b7 c0             	movzwl %ax,%eax
c010b5b2:	83 ec 0c             	sub    $0xc,%esp
c010b5b5:	50                   	push   %eax
c010b5b6:	e8 92 fd ff ff       	call   c010b34d <floppy_reset>
c010b5bb:	83 c4 10             	add    $0x10,%esp
c010b5be:	83 f8 ff             	cmp    $0xffffffff,%eax
c010b5c1:	75 12                	jne    c010b5d5 <floppy_init+0x58>
c010b5c3:	83 ec 0c             	sub    $0xc,%esp
c010b5c6:	8d 83 d0 cd ff ff    	lea    -0x3230(%ebx),%eax
c010b5cc:	50                   	push   %eax
c010b5cd:	e8 a2 02 00 00       	call   c010b874 <klog_error>
c010b5d2:	83 c4 10             	add    $0x10,%esp
c010b5d5:	83 ec 0c             	sub    $0xc,%esp
c010b5d8:	8d 83 f8 cd ff ff    	lea    -0x3208(%ebx),%eax
c010b5de:	50                   	push   %eax
c010b5df:	e8 fc 01 00 00       	call   c010b7e0 <klog>
c010b5e4:	83 c4 10             	add    $0x10,%esp
c010b5e7:	90                   	nop
c010b5e8:	8b 5d fc             	mov    -0x4(%ebp),%ebx
c010b5eb:	c9                   	leave
c010b5ec:	c3                   	ret

c010b5ed <get_ident_phys_page_addr>:
c010b5ed:	55                   	push   %ebp
c010b5ee:	89 e5                	mov    %esp,%ebp
c010b5f0:	83 ec 08             	sub    $0x8,%esp
c010b5f3:	e8 41 34 00 00       	call   c010ea39 <__x86.get_pc_thunk.ax>
c010b5f8:	05 34 70 00 00       	add    $0x7034,%eax
c010b5fd:	8b 55 08             	mov    0x8(%ebp),%edx
c010b600:	8b 45 0c             	mov    0xc(%ebp),%eax
c010b603:	66 89 55 fc          	mov    %dx,-0x4(%ebp)
c010b607:	66 89 45 f8          	mov    %ax,-0x8(%ebp)
c010b60b:	0f b7 45 fc          	movzwl -0x4(%ebp),%eax
c010b60f:	c1 e0 0a             	shl    $0xa,%eax
c010b612:	89 c2                	mov    %eax,%edx
c010b614:	0f b7 45 f8          	movzwl -0x8(%ebp),%eax
c010b618:	01 d0                	add    %edx,%eax
c010b61a:	c1 e0 0c             	shl    $0xc,%eax
c010b61d:	c9                   	leave
c010b61e:	c3                   	ret

c010b61f <exec_init>:
c010b61f:	55                   	push   %ebp
c010b620:	89 e5                	mov    %esp,%ebp
c010b622:	56                   	push   %esi
c010b623:	53                   	push   %ebx
c010b624:	83 ec 30             	sub    $0x30,%esp
c010b627:	e8 11 34 00 00       	call   c010ea3d <__x86.get_pc_thunk.bx>
c010b62c:	81 c3 00 70 00 00    	add    $0x7000,%ebx
c010b632:	c7 45 f0 00 00 00 00 	movl   $0x0,-0x10(%ebp)
c010b639:	83 ec 0c             	sub    $0xc,%esp
c010b63c:	8d 45 dc             	lea    -0x24(%ebp),%eax
c010b63f:	50                   	push   %eax
c010b640:	e8 52 12 00 00       	call   c010c897 <clone_cur_page_dir>
c010b645:	83 c4 10             	add    $0x10,%esp
c010b648:	85 c0                	test   %eax,%eax
c010b64a:	74 1c                	je     c010b668 <exec_init+0x49>
c010b64c:	83 ec 0c             	sub    $0xc,%esp
c010b64f:	8d 83 17 ce ff ff    	lea    -0x31e9(%ebx),%eax
c010b655:	50                   	push   %eax
c010b656:	e8 85 01 00 00       	call   c010b7e0 <klog>
c010b65b:	83 c4 10             	add    $0x10,%esp
c010b65e:	b8 01 00 00 00       	mov    $0x1,%eax
c010b663:	e9 71 01 00 00       	jmp    c010b7d9 <exec_init+0x1ba>
c010b668:	83 ec 0c             	sub    $0xc,%esp
c010b66b:	8d 45 dc             	lea    -0x24(%ebp),%eax
c010b66e:	50                   	push   %eax
c010b66f:	e8 4a 12 00 00       	call   c010c8be <switch_page_dir>
c010b674:	83 c4 10             	add    $0x10,%esp
c010b677:	89 45 f0             	mov    %eax,-0x10(%ebp)
c010b67a:	b8 00 50 10 04       	mov    $0x4105000,%eax
c010b67f:	89 83 5c 96 00 00    	mov    %eax,0x965c(%ebx)
c010b685:	b8 07 60 10 04       	mov    $0x4106007,%eax
c010b68a:	89 83 60 96 00 00    	mov    %eax,0x9660(%ebx)
c010b690:	8b 83 5c 96 00 00    	mov    0x965c(%ebx),%eax
c010b696:	83 ec 04             	sub    $0x4,%esp
c010b699:	8d 55 d8             	lea    -0x28(%ebp),%edx
c010b69c:	52                   	push   %edx
c010b69d:	8d 55 da             	lea    -0x26(%ebp),%edx
c010b6a0:	52                   	push   %edx
c010b6a1:	50                   	push   %eax
c010b6a2:	e8 10 13 00 00       	call   c010c9b7 <get_pde_pte>
c010b6a7:	83 c4 10             	add    $0x10,%esp
c010b6aa:	8b 83 60 96 00 00    	mov    0x9660(%ebx),%eax
c010b6b0:	83 ec 04             	sub    $0x4,%esp
c010b6b3:	8d 55 d4             	lea    -0x2c(%ebp),%edx
c010b6b6:	52                   	push   %edx
c010b6b7:	8d 55 d6             	lea    -0x2a(%ebp),%edx
c010b6ba:	52                   	push   %edx
c010b6bb:	50                   	push   %eax
c010b6bc:	e8 f6 12 00 00       	call   c010c9b7 <get_pde_pte>
c010b6c1:	83 c4 10             	add    $0x10,%esp
c010b6c4:	0f b7 45 da          	movzwl -0x26(%ebp),%eax
c010b6c8:	0f b7 c0             	movzwl %ax,%eax
c010b6cb:	83 ec 0c             	sub    $0xc,%esp
c010b6ce:	50                   	push   %eax
c010b6cf:	e8 d0 ee ff ff       	call   c010a5a4 <fb_print_hex>
c010b6d4:	83 c4 10             	add    $0x10,%esp
c010b6d7:	0f b7 45 d8          	movzwl -0x28(%ebp),%eax
c010b6db:	0f b7 c0             	movzwl %ax,%eax
c010b6de:	83 ec 0c             	sub    $0xc,%esp
c010b6e1:	50                   	push   %eax
c010b6e2:	e8 bd ee ff ff       	call   c010a5a4 <fb_print_hex>
c010b6e7:	83 c4 10             	add    $0x10,%esp
c010b6ea:	8b 45 dc             	mov    -0x24(%ebp),%eax
c010b6ed:	0f b7 55 da          	movzwl -0x26(%ebp),%edx
c010b6f1:	0f b7 d2             	movzwl %dx,%edx
c010b6f4:	c1 e2 02             	shl    $0x2,%edx
c010b6f7:	8d 34 10             	lea    (%eax,%edx,1),%esi
c010b6fa:	83 ec 08             	sub    $0x8,%esp
c010b6fd:	6a 07                	push   $0x7
c010b6ff:	8d 45 d0             	lea    -0x30(%ebp),%eax
c010b702:	50                   	push   %eax
c010b703:	e8 4e 0d 00 00       	call   c010c456 <alloc_pt>
c010b708:	83 c4 10             	add    $0x10,%esp
c010b70b:	89 06                	mov    %eax,(%esi)
c010b70d:	0f b7 45 d8          	movzwl -0x28(%ebp),%eax
c010b711:	0f b7 d0             	movzwl %ax,%edx
c010b714:	0f b7 45 da          	movzwl -0x26(%ebp),%eax
c010b718:	0f b7 c0             	movzwl %ax,%eax
c010b71b:	83 ec 08             	sub    $0x8,%esp
c010b71e:	52                   	push   %edx
c010b71f:	50                   	push   %eax
c010b720:	e8 c8 fe ff ff       	call   c010b5ed <get_ident_phys_page_addr>
c010b725:	83 c4 10             	add    $0x10,%esp
c010b728:	89 45 ec             	mov    %eax,-0x14(%ebp)
c010b72b:	0f b7 45 d4          	movzwl -0x2c(%ebp),%eax
c010b72f:	0f b7 d0             	movzwl %ax,%edx
c010b732:	0f b7 45 d8          	movzwl -0x28(%ebp),%eax
c010b736:	0f b7 c0             	movzwl %ax,%eax
c010b739:	29 c2                	sub    %eax,%edx
c010b73b:	8d 42 02             	lea    0x2(%edx),%eax
c010b73e:	89 45 e8             	mov    %eax,-0x18(%ebp)
c010b741:	8b 45 d0             	mov    -0x30(%ebp),%eax
c010b744:	0f b7 55 d8          	movzwl -0x28(%ebp),%edx
c010b748:	0f b7 d2             	movzwl %dx,%edx
c010b74b:	c1 e2 02             	shl    $0x2,%edx
c010b74e:	01 d0                	add    %edx,%eax
c010b750:	6a 07                	push   $0x7
c010b752:	50                   	push   %eax
c010b753:	ff 75 ec             	push   -0x14(%ebp)
c010b756:	ff 75 e8             	push   -0x18(%ebp)
c010b759:	e8 fb 16 00 00       	call   c010ce59 <alloc_nframes>
c010b75e:	83 c4 10             	add    $0x10,%esp
c010b761:	85 c0                	test   %eax,%eax
c010b763:	74 07                	je     c010b76c <exec_init+0x14d>
c010b765:	b8 01 00 00 00       	mov    $0x1,%eax
c010b76a:	eb 6d                	jmp    c010b7d9 <exec_init+0x1ba>
c010b76c:	83 ec 0c             	sub    $0xc,%esp
c010b76f:	ff 75 e8             	push   -0x18(%ebp)
c010b772:	e8 a7 ec ff ff       	call   c010a41e <fb_print_num>
c010b777:	83 c4 10             	add    $0x10,%esp
c010b77a:	0f b7 45 d8          	movzwl -0x28(%ebp),%eax
c010b77e:	0f b7 c0             	movzwl %ax,%eax
c010b781:	89 45 f4             	mov    %eax,-0xc(%ebp)
c010b784:	eb 1d                	jmp    c010b7a3 <exec_init+0x184>
c010b786:	8b 45 d0             	mov    -0x30(%ebp),%eax
c010b789:	8b 55 f4             	mov    -0xc(%ebp),%edx
c010b78c:	c1 e2 02             	shl    $0x2,%edx
c010b78f:	01 d0                	add    %edx,%eax
c010b791:	8b 00                	mov    (%eax),%eax
c010b793:	83 ec 0c             	sub    $0xc,%esp
c010b796:	50                   	push   %eax
c010b797:	e8 08 ee ff ff       	call   c010a5a4 <fb_print_hex>
c010b79c:	83 c4 10             	add    $0x10,%esp
c010b79f:	83 45 f4 01          	addl   $0x1,-0xc(%ebp)
c010b7a3:	0f b7 45 d4          	movzwl -0x2c(%ebp),%eax
c010b7a7:	0f b7 c0             	movzwl %ax,%eax
c010b7aa:	83 c0 01             	add    $0x1,%eax
c010b7ad:	3b 45 f4             	cmp    -0xc(%ebp),%eax
c010b7b0:	73 d4                	jae    c010b786 <exec_init+0x167>
c010b7b2:	0f b7 45 d4          	movzwl -0x2c(%ebp),%eax
c010b7b6:	83 c0 01             	add    $0x1,%eax
c010b7b9:	0f b7 d0             	movzwl %ax,%edx
c010b7bc:	0f b7 45 da          	movzwl -0x26(%ebp),%eax
c010b7c0:	0f b7 c0             	movzwl %ax,%eax
c010b7c3:	83 ec 08             	sub    $0x8,%esp
c010b7c6:	52                   	push   %edx
c010b7c7:	50                   	push   %eax
c010b7c8:	e8 20 fe ff ff       	call   c010b5ed <get_ident_phys_page_addr>
c010b7cd:	83 c4 10             	add    $0x10,%esp
c010b7d0:	89 83 58 96 00 00    	mov    %eax,0x9658(%ebx)
c010b7d6:	8b 45 f0             	mov    -0x10(%ebp),%eax
c010b7d9:	8d 65 f8             	lea    -0x8(%ebp),%esp
c010b7dc:	5b                   	pop    %ebx
c010b7dd:	5e                   	pop    %esi
c010b7de:	5d                   	pop    %ebp
c010b7df:	c3                   	ret

c010b7e0 <klog>:
c010b7e0:	55                   	push   %ebp
c010b7e1:	89 e5                	mov    %esp,%ebp
c010b7e3:	53                   	push   %ebx
c010b7e4:	83 ec 14             	sub    $0x14,%esp
c010b7e7:	e8 4d 32 00 00       	call   c010ea39 <__x86.get_pc_thunk.ax>
c010b7ec:	05 40 6e 00 00       	add    $0x6e40,%eax
c010b7f1:	8d 55 0c             	lea    0xc(%ebp),%edx
c010b7f4:	89 55 f4             	mov    %edx,-0xc(%ebp)
c010b7f7:	8b 55 f4             	mov    -0xc(%ebp),%edx
c010b7fa:	83 ec 08             	sub    $0x8,%esp
c010b7fd:	52                   	push   %edx
c010b7fe:	ff 75 08             	push   0x8(%ebp)
c010b801:	89 c3                	mov    %eax,%ebx
c010b803:	e8 60 ef ff ff       	call   c010a768 <fb_vprintf>
c010b808:	83 c4 10             	add    $0x10,%esp
c010b80b:	90                   	nop
c010b80c:	8b 5d fc             	mov    -0x4(%ebp),%ebx
c010b80f:	c9                   	leave
c010b810:	c3                   	ret

c010b811 <debug_log>:
c010b811:	55                   	push   %ebp
c010b812:	89 e5                	mov    %esp,%ebp
c010b814:	53                   	push   %ebx
c010b815:	83 ec 14             	sub    $0x14,%esp
c010b818:	e8 1c 32 00 00       	call   c010ea39 <__x86.get_pc_thunk.ax>
c010b81d:	05 0f 6e 00 00       	add    $0x6e0f,%eax
c010b822:	8d 55 0c             	lea    0xc(%ebp),%edx
c010b825:	89 55 f4             	mov    %edx,-0xc(%ebp)
c010b828:	8b 55 f4             	mov    -0xc(%ebp),%edx
c010b82b:	83 ec 08             	sub    $0x8,%esp
c010b82e:	52                   	push   %edx
c010b82f:	ff 75 08             	push   0x8(%ebp)
c010b832:	89 c3                	mov    %eax,%ebx
c010b834:	e8 2f ef ff ff       	call   c010a768 <fb_vprintf>
c010b839:	83 c4 10             	add    $0x10,%esp
c010b83c:	90                   	nop
c010b83d:	8b 5d fc             	mov    -0x4(%ebp),%ebx
c010b840:	c9                   	leave
c010b841:	c3                   	ret

c010b842 <klog_warn>:
c010b842:	55                   	push   %ebp
c010b843:	89 e5                	mov    %esp,%ebp
c010b845:	53                   	push   %ebx
c010b846:	83 ec 14             	sub    $0x14,%esp
c010b849:	e8 eb 31 00 00       	call   c010ea39 <__x86.get_pc_thunk.ax>
c010b84e:	05 de 6d 00 00       	add    $0x6dde,%eax
c010b853:	8d 55 0c             	lea    0xc(%ebp),%edx
c010b856:	89 55 f4             	mov    %edx,-0xc(%ebp)
c010b859:	8b 55 f4             	mov    -0xc(%ebp),%edx
c010b85c:	52                   	push   %edx
c010b85d:	6a 00                	push   $0x0
c010b85f:	6a 0b                	push   $0xb
c010b861:	ff 75 08             	push   0x8(%ebp)
c010b864:	89 c3                	mov    %eax,%ebx
c010b866:	e8 5e ed ff ff       	call   c010a5c9 <fb_vprintf_color>
c010b86b:	83 c4 10             	add    $0x10,%esp
c010b86e:	90                   	nop
c010b86f:	8b 5d fc             	mov    -0x4(%ebp),%ebx
c010b872:	c9                   	leave
c010b873:	c3                   	ret

c010b874 <klog_error>:
c010b874:	55                   	push   %ebp
c010b875:	89 e5                	mov    %esp,%ebp
c010b877:	53                   	push   %ebx
c010b878:	83 ec 14             	sub    $0x14,%esp
c010b87b:	e8 b9 31 00 00       	call   c010ea39 <__x86.get_pc_thunk.ax>
c010b880:	05 ac 6d 00 00       	add    $0x6dac,%eax
c010b885:	8d 55 0c             	lea    0xc(%ebp),%edx
c010b888:	89 55 f4             	mov    %edx,-0xc(%ebp)
c010b88b:	8b 55 f4             	mov    -0xc(%ebp),%edx
c010b88e:	52                   	push   %edx
c010b88f:	6a 00                	push   $0x0
c010b891:	6a 0c                	push   $0xc
c010b893:	ff 75 08             	push   0x8(%ebp)
c010b896:	89 c3                	mov    %eax,%ebx
c010b898:	e8 2c ed ff ff       	call   c010a5c9 <fb_vprintf_color>
c010b89d:	83 c4 10             	add    $0x10,%esp
c010b8a0:	90                   	nop
c010b8a1:	8b 5d fc             	mov    -0x4(%ebp),%ebx
c010b8a4:	c9                   	leave
c010b8a5:	c3                   	ret

c010b8a6 <memset>:
c010b8a6:	55                   	push   %ebp
c010b8a7:	89 e5                	mov    %esp,%ebp
c010b8a9:	83 ec 10             	sub    $0x10,%esp
c010b8ac:	e8 88 31 00 00       	call   c010ea39 <__x86.get_pc_thunk.ax>
c010b8b1:	05 7b 6d 00 00       	add    $0x6d7b,%eax
c010b8b6:	8b 45 08             	mov    0x8(%ebp),%eax
c010b8b9:	89 45 f8             	mov    %eax,-0x8(%ebp)
c010b8bc:	c7 45 fc 00 00 00 00 	movl   $0x0,-0x4(%ebp)
c010b8c3:	eb 13                	jmp    c010b8d8 <memset+0x32>
c010b8c5:	8b 45 fc             	mov    -0x4(%ebp),%eax
c010b8c8:	8d 50 01             	lea    0x1(%eax),%edx
c010b8cb:	89 55 fc             	mov    %edx,-0x4(%ebp)
c010b8ce:	8b 55 f8             	mov    -0x8(%ebp),%edx
c010b8d1:	01 d0                	add    %edx,%eax
c010b8d3:	8b 55 0c             	mov    0xc(%ebp),%edx
c010b8d6:	88 10                	mov    %dl,(%eax)
c010b8d8:	8b 45 fc             	mov    -0x4(%ebp),%eax
c010b8db:	3b 45 10             	cmp    0x10(%ebp),%eax
c010b8de:	72 e5                	jb     c010b8c5 <memset+0x1f>
c010b8e0:	8b 45 08             	mov    0x8(%ebp),%eax
c010b8e3:	c9                   	leave
c010b8e4:	c3                   	ret

c010b8e5 <memcpy>:
c010b8e5:	55                   	push   %ebp
c010b8e6:	89 e5                	mov    %esp,%ebp
c010b8e8:	83 ec 10             	sub    $0x10,%esp
c010b8eb:	e8 49 31 00 00       	call   c010ea39 <__x86.get_pc_thunk.ax>
c010b8f0:	05 3c 6d 00 00       	add    $0x6d3c,%eax
c010b8f5:	83 7d 08 00          	cmpl   $0x0,0x8(%ebp)
c010b8f9:	74 06                	je     c010b901 <memcpy+0x1c>
c010b8fb:	83 7d 0c 00          	cmpl   $0x0,0xc(%ebp)
c010b8ff:	75 07                	jne    c010b908 <memcpy+0x23>
c010b901:	b8 00 00 00 00       	mov    $0x0,%eax
c010b906:	eb 39                	jmp    c010b941 <memcpy+0x5c>
c010b908:	8b 45 08             	mov    0x8(%ebp),%eax
c010b90b:	89 45 f8             	mov    %eax,-0x8(%ebp)
c010b90e:	8b 45 0c             	mov    0xc(%ebp),%eax
c010b911:	89 45 f4             	mov    %eax,-0xc(%ebp)
c010b914:	c7 45 fc 00 00 00 00 	movl   $0x0,-0x4(%ebp)
c010b91b:	eb 19                	jmp    c010b936 <memcpy+0x51>
c010b91d:	8b 55 f4             	mov    -0xc(%ebp),%edx
c010b920:	8b 45 fc             	mov    -0x4(%ebp),%eax
c010b923:	01 d0                	add    %edx,%eax
c010b925:	8b 4d f8             	mov    -0x8(%ebp),%ecx
c010b928:	8b 55 fc             	mov    -0x4(%ebp),%edx
c010b92b:	01 ca                	add    %ecx,%edx
c010b92d:	0f b6 00             	movzbl (%eax),%eax
c010b930:	88 02                	mov    %al,(%edx)
c010b932:	83 45 fc 01          	addl   $0x1,-0x4(%ebp)
c010b936:	8b 45 fc             	mov    -0x4(%ebp),%eax
c010b939:	3b 45 10             	cmp    0x10(%ebp),%eax
c010b93c:	72 df                	jb     c010b91d <memcpy+0x38>
c010b93e:	8b 45 f8             	mov    -0x8(%ebp),%eax
c010b941:	c9                   	leave
c010b942:	c3                   	ret

c010b943 <outb>:
c010b943:	55                   	push   %ebp
c010b944:	89 e5                	mov    %esp,%ebp
c010b946:	83 ec 08             	sub    $0x8,%esp
c010b949:	e8 eb 30 00 00       	call   c010ea39 <__x86.get_pc_thunk.ax>
c010b94e:	05 de 6c 00 00       	add    $0x6cde,%eax
c010b953:	8b 55 08             	mov    0x8(%ebp),%edx
c010b956:	8b 45 0c             	mov    0xc(%ebp),%eax
c010b959:	66 89 55 fc          	mov    %dx,-0x4(%ebp)
c010b95d:	88 45 f8             	mov    %al,-0x8(%ebp)
c010b960:	0f b7 55 fc          	movzwl -0x4(%ebp),%edx
c010b964:	0f b6 45 f8          	movzbl -0x8(%ebp),%eax
c010b968:	ee                   	out    %al,(%dx)
c010b969:	90                   	nop
c010b96a:	c9                   	leave
c010b96b:	c3                   	ret

c010b96c <inb>:
c010b96c:	55                   	push   %ebp
c010b96d:	89 e5                	mov    %esp,%ebp
c010b96f:	83 ec 14             	sub    $0x14,%esp
c010b972:	e8 c2 30 00 00       	call   c010ea39 <__x86.get_pc_thunk.ax>
c010b977:	05 b5 6c 00 00       	add    $0x6cb5,%eax
c010b97c:	8b 45 08             	mov    0x8(%ebp),%eax
c010b97f:	66 89 45 ec          	mov    %ax,-0x14(%ebp)
c010b983:	0f b7 45 ec          	movzwl -0x14(%ebp),%eax
c010b987:	89 c2                	mov    %eax,%edx
c010b989:	ec                   	in     (%dx),%al
c010b98a:	88 45 ff             	mov    %al,-0x1(%ebp)
c010b98d:	0f b6 45 ff          	movzbl -0x1(%ebp),%eax
c010b991:	c9                   	leave
c010b992:	c3                   	ret

c010b993 <strcmp>:
c010b993:	55                   	push   %ebp
c010b994:	89 e5                	mov    %esp,%ebp
c010b996:	83 ec 10             	sub    $0x10,%esp
c010b999:	e8 9b 30 00 00       	call   c010ea39 <__x86.get_pc_thunk.ax>
c010b99e:	05 8e 6c 00 00       	add    $0x6c8e,%eax
c010b9a3:	83 7d 08 00          	cmpl   $0x0,0x8(%ebp)
c010b9a7:	74 06                	je     c010b9af <strcmp+0x1c>
c010b9a9:	83 7d 0c 00          	cmpl   $0x0,0xc(%ebp)
c010b9ad:	75 07                	jne    c010b9b6 <strcmp+0x23>
c010b9af:	b8 ff ff ff ff       	mov    $0xffffffff,%eax
c010b9b4:	eb 52                	jmp    c010ba08 <strcmp+0x75>
c010b9b6:	c7 45 fc 00 00 00 00 	movl   $0x0,-0x4(%ebp)
c010b9bd:	c7 45 f8 00 00 00 00 	movl   $0x0,-0x8(%ebp)
c010b9c4:	8b 55 08             	mov    0x8(%ebp),%edx
c010b9c7:	8b 45 f8             	mov    -0x8(%ebp),%eax
c010b9ca:	01 d0                	add    %edx,%eax
c010b9cc:	0f b6 00             	movzbl (%eax),%eax
c010b9cf:	0f be d0             	movsbl %al,%edx
c010b9d2:	8b 4d 0c             	mov    0xc(%ebp),%ecx
c010b9d5:	8b 45 f8             	mov    -0x8(%ebp),%eax
c010b9d8:	01 c8                	add    %ecx,%eax
c010b9da:	0f b6 00             	movzbl (%eax),%eax
c010b9dd:	0f be c0             	movsbl %al,%eax
c010b9e0:	29 c2                	sub    %eax,%edx
c010b9e2:	01 55 fc             	add    %edx,-0x4(%ebp)
c010b9e5:	8b 55 08             	mov    0x8(%ebp),%edx
c010b9e8:	8b 45 f8             	mov    -0x8(%ebp),%eax
c010b9eb:	01 d0                	add    %edx,%eax
c010b9ed:	0f b6 00             	movzbl (%eax),%eax
c010b9f0:	84 c0                	test   %al,%al
c010b9f2:	7e 11                	jle    c010ba05 <strcmp+0x72>
c010b9f4:	8b 55 0c             	mov    0xc(%ebp),%edx
c010b9f7:	8b 45 f8             	mov    -0x8(%ebp),%eax
c010b9fa:	01 d0                	add    %edx,%eax
c010b9fc:	0f b6 00             	movzbl (%eax),%eax
c010b9ff:	84 c0                	test   %al,%al
c010ba01:	7e 02                	jle    c010ba05 <strcmp+0x72>
c010ba03:	eb bf                	jmp    c010b9c4 <strcmp+0x31>
c010ba05:	8b 45 fc             	mov    -0x4(%ebp),%eax
c010ba08:	c9                   	leave
c010ba09:	c3                   	ret

c010ba0a <strcpy>:
c010ba0a:	55                   	push   %ebp
c010ba0b:	89 e5                	mov    %esp,%ebp
c010ba0d:	83 ec 10             	sub    $0x10,%esp
c010ba10:	e8 24 30 00 00       	call   c010ea39 <__x86.get_pc_thunk.ax>
c010ba15:	05 17 6c 00 00       	add    $0x6c17,%eax
c010ba1a:	83 7d 08 00          	cmpl   $0x0,0x8(%ebp)
c010ba1e:	74 06                	je     c010ba26 <strcpy+0x1c>
c010ba20:	83 7d 0c 00          	cmpl   $0x0,0xc(%ebp)
c010ba24:	75 07                	jne    c010ba2d <strcpy+0x23>
c010ba26:	b8 00 00 00 00       	mov    $0x0,%eax
c010ba2b:	eb 2d                	jmp    c010ba5a <strcpy+0x50>
c010ba2d:	c7 45 fc 00 00 00 00 	movl   $0x0,-0x4(%ebp)
c010ba34:	eb 19                	jmp    c010ba4f <strcpy+0x45>
c010ba36:	8b 55 0c             	mov    0xc(%ebp),%edx
c010ba39:	8b 45 fc             	mov    -0x4(%ebp),%eax
c010ba3c:	01 d0                	add    %edx,%eax
c010ba3e:	8b 4d 08             	mov    0x8(%ebp),%ecx
c010ba41:	8b 55 fc             	mov    -0x4(%ebp),%edx
c010ba44:	01 ca                	add    %ecx,%edx
c010ba46:	0f b6 00             	movzbl (%eax),%eax
c010ba49:	88 02                	mov    %al,(%edx)
c010ba4b:	83 45 fc 01          	addl   $0x1,-0x4(%ebp)
c010ba4f:	8b 45 fc             	mov    -0x4(%ebp),%eax
c010ba52:	3b 45 10             	cmp    0x10(%ebp),%eax
c010ba55:	72 df                	jb     c010ba36 <strcpy+0x2c>
c010ba57:	8b 45 08             	mov    0x8(%ebp),%eax
c010ba5a:	c9                   	leave
c010ba5b:	c3                   	ret

c010ba5c <strlen>:
c010ba5c:	55                   	push   %ebp
c010ba5d:	89 e5                	mov    %esp,%ebp
c010ba5f:	83 ec 10             	sub    $0x10,%esp
c010ba62:	e8 d2 2f 00 00       	call   c010ea39 <__x86.get_pc_thunk.ax>
c010ba67:	05 c5 6b 00 00       	add    $0x6bc5,%eax
c010ba6c:	c7 45 fc 00 00 00 00 	movl   $0x0,-0x4(%ebp)
c010ba73:	eb 04                	jmp    c010ba79 <strlen+0x1d>
c010ba75:	83 45 fc 01          	addl   $0x1,-0x4(%ebp)
c010ba79:	8b 55 08             	mov    0x8(%ebp),%edx
c010ba7c:	8b 45 fc             	mov    -0x4(%ebp),%eax
c010ba7f:	01 d0                	add    %edx,%eax
c010ba81:	0f b6 00             	movzbl (%eax),%eax
c010ba84:	84 c0                	test   %al,%al
c010ba86:	75 ed                	jne    c010ba75 <strlen+0x19>
c010ba88:	8b 45 fc             	mov    -0x4(%ebp),%eax
c010ba8b:	c9                   	leave
c010ba8c:	c3                   	ret

c010ba8d <strneq>:
c010ba8d:	55                   	push   %ebp
c010ba8e:	89 e5                	mov    %esp,%ebp
c010ba90:	83 ec 10             	sub    $0x10,%esp
c010ba93:	e8 a1 2f 00 00       	call   c010ea39 <__x86.get_pc_thunk.ax>
c010ba98:	05 94 6b 00 00       	add    $0x6b94,%eax
c010ba9d:	83 7d 08 00          	cmpl   $0x0,0x8(%ebp)
c010baa1:	74 06                	je     c010baa9 <strneq+0x1c>
c010baa3:	83 7d 0c 00          	cmpl   $0x0,0xc(%ebp)
c010baa7:	75 07                	jne    c010bab0 <strneq+0x23>
c010baa9:	b8 ff ff ff ff       	mov    $0xffffffff,%eax
c010baae:	eb 66                	jmp    c010bb16 <strneq+0x89>
c010bab0:	83 7d 10 00          	cmpl   $0x0,0x10(%ebp)
c010bab4:	75 07                	jne    c010babd <strneq+0x30>
c010bab6:	b8 00 00 00 00       	mov    $0x0,%eax
c010babb:	eb 59                	jmp    c010bb16 <strneq+0x89>
c010babd:	c7 45 fc 00 00 00 00 	movl   $0x0,-0x4(%ebp)
c010bac4:	eb 25                	jmp    c010baeb <strneq+0x5e>
c010bac6:	8b 55 08             	mov    0x8(%ebp),%edx
c010bac9:	8b 45 fc             	mov    -0x4(%ebp),%eax
c010bacc:	01 d0                	add    %edx,%eax
c010bace:	0f b6 10             	movzbl (%eax),%edx
c010bad1:	8b 4d 0c             	mov    0xc(%ebp),%ecx
c010bad4:	8b 45 fc             	mov    -0x4(%ebp),%eax
c010bad7:	01 c8                	add    %ecx,%eax
c010bad9:	0f b6 00             	movzbl (%eax),%eax
c010badc:	38 c2                	cmp    %al,%dl
c010bade:	74 07                	je     c010bae7 <strneq+0x5a>
c010bae0:	b8 01 00 00 00       	mov    $0x1,%eax
c010bae5:	eb 2f                	jmp    c010bb16 <strneq+0x89>
c010bae7:	83 45 fc 01          	addl   $0x1,-0x4(%ebp)
c010baeb:	8b 45 fc             	mov    -0x4(%ebp),%eax
c010baee:	3b 45 10             	cmp    0x10(%ebp),%eax
c010baf1:	73 1e                	jae    c010bb11 <strneq+0x84>
c010baf3:	8b 55 08             	mov    0x8(%ebp),%edx
c010baf6:	8b 45 fc             	mov    -0x4(%ebp),%eax
c010baf9:	01 d0                	add    %edx,%eax
c010bafb:	0f b6 00             	movzbl (%eax),%eax
c010bafe:	84 c0                	test   %al,%al
c010bb00:	75 c4                	jne    c010bac6 <strneq+0x39>
c010bb02:	8b 55 0c             	mov    0xc(%ebp),%edx
c010bb05:	8b 45 fc             	mov    -0x4(%ebp),%eax
c010bb08:	01 d0                	add    %edx,%eax
c010bb0a:	0f b6 00             	movzbl (%eax),%eax
c010bb0d:	84 c0                	test   %al,%al
c010bb0f:	75 b5                	jne    c010bac6 <strneq+0x39>
c010bb11:	b8 00 00 00 00       	mov    $0x0,%eax
c010bb16:	c9                   	leave
c010bb17:	c3                   	ret

c010bb18 <strnlen>:
c010bb18:	55                   	push   %ebp
c010bb19:	89 e5                	mov    %esp,%ebp
c010bb1b:	83 ec 10             	sub    $0x10,%esp
c010bb1e:	e8 16 2f 00 00       	call   c010ea39 <__x86.get_pc_thunk.ax>
c010bb23:	05 09 6b 00 00       	add    $0x6b09,%eax
c010bb28:	c7 45 fc 00 00 00 00 	movl   $0x0,-0x4(%ebp)
c010bb2f:	eb 04                	jmp    c010bb35 <strnlen+0x1d>
c010bb31:	83 45 fc 01          	addl   $0x1,-0x4(%ebp)
c010bb35:	8b 45 fc             	mov    -0x4(%ebp),%eax
c010bb38:	3b 45 0c             	cmp    0xc(%ebp),%eax
c010bb3b:	73 0f                	jae    c010bb4c <strnlen+0x34>
c010bb3d:	8b 55 08             	mov    0x8(%ebp),%edx
c010bb40:	8b 45 fc             	mov    -0x4(%ebp),%eax
c010bb43:	01 d0                	add    %edx,%eax
c010bb45:	0f b6 00             	movzbl (%eax),%eax
c010bb48:	84 c0                	test   %al,%al
c010bb4a:	75 e5                	jne    c010bb31 <strnlen+0x19>
c010bb4c:	8b 45 fc             	mov    -0x4(%ebp),%eax
c010bb4f:	c9                   	leave
c010bb50:	c3                   	ret

c010bb51 <io_wait>:
c010bb51:	55                   	push   %ebp
c010bb52:	89 e5                	mov    %esp,%ebp
c010bb54:	e8 e0 2e 00 00       	call   c010ea39 <__x86.get_pc_thunk.ax>
c010bb59:	05 d3 6a 00 00       	add    $0x6ad3,%eax
c010bb5e:	6a 00                	push   $0x0
c010bb60:	68 80 00 00 00       	push   $0x80
c010bb65:	e8 d9 fd ff ff       	call   c010b943 <outb>
c010bb6a:	83 c4 08             	add    $0x8,%esp
c010bb6d:	90                   	nop
c010bb6e:	c9                   	leave
c010bb6f:	c3                   	ret

c010bb70 <usermode>:
c010bb70:	55                   	push   %ebp
c010bb71:	89 e5                	mov    %esp,%ebp
c010bb73:	53                   	push   %ebx
c010bb74:	83 ec 14             	sub    $0x14,%esp
c010bb77:	e8 c1 2e 00 00       	call   c010ea3d <__x86.get_pc_thunk.bx>
c010bb7c:	81 c3 b0 6a 00 00    	add    $0x6ab0,%ebx
c010bb82:	83 ec 04             	sub    $0x4,%esp
c010bb85:	6a 06                	push   $0x6
c010bb87:	8d 83 1d ce ff ff    	lea    -0x31e3(%ebx),%eax
c010bb8d:	50                   	push   %eax
c010bb8e:	6a 01                	push   $0x1
c010bb90:	e8 8d c3 ff ff       	call   c0107f22 <syscall>
c010bb95:	83 c4 10             	add    $0x10,%esp
c010bb98:	89 45 f4             	mov    %eax,-0xc(%ebp)
c010bb9b:	83 ec 04             	sub    $0x4,%esp
c010bb9e:	6a 06                	push   $0x6
c010bba0:	8d 83 1d ce ff ff    	lea    -0x31e3(%ebx),%eax
c010bba6:	50                   	push   %eax
c010bba7:	6a 01                	push   $0x1
c010bba9:	e8 74 c3 ff ff       	call   c0107f22 <syscall>
c010bbae:	83 c4 10             	add    $0x10,%esp
c010bbb1:	89 45 f4             	mov    %eax,-0xc(%ebp)
c010bbb4:	90                   	nop
c010bbb5:	eb fd                	jmp    c010bbb4 <usermode+0x44>

c010bbb7 <slab_alloc_slab>:
c010bbb7:	55                   	push   %ebp
c010bbb8:	89 e5                	mov    %esp,%ebp
c010bbba:	53                   	push   %ebx
c010bbbb:	83 ec 24             	sub    $0x24,%esp
c010bbbe:	e8 7a 2e 00 00       	call   c010ea3d <__x86.get_pc_thunk.bx>
c010bbc3:	81 c3 69 6a 00 00    	add    $0x6a69,%ebx
c010bbc9:	8b 45 08             	mov    0x8(%ebp),%eax
c010bbcc:	8b 40 04             	mov    0x4(%eax),%eax
c010bbcf:	89 45 ec             	mov    %eax,-0x14(%ebp)
c010bbd2:	8b 45 08             	mov    0x8(%ebp),%eax
c010bbd5:	8b 40 10             	mov    0x10(%eax),%eax
c010bbd8:	83 c0 10             	add    $0x10,%eax
c010bbdb:	89 45 e8             	mov    %eax,-0x18(%ebp)
c010bbde:	8b 45 e8             	mov    -0x18(%ebp),%eax
c010bbe1:	c1 e0 04             	shl    $0x4,%eax
c010bbe4:	89 45 e4             	mov    %eax,-0x1c(%ebp)
c010bbe7:	8b 45 e4             	mov    -0x1c(%ebp),%eax
c010bbea:	83 c0 10             	add    $0x10,%eax
c010bbed:	83 ec 0c             	sub    $0xc,%esp
c010bbf0:	50                   	push   %eax
c010bbf1:	e8 7e 2b 00 00       	call   c010e774 <kmalloc>
c010bbf6:	83 c4 10             	add    $0x10,%esp
c010bbf9:	8b 55 08             	mov    0x8(%ebp),%edx
c010bbfc:	89 42 04             	mov    %eax,0x4(%edx)
c010bbff:	8b 45 08             	mov    0x8(%ebp),%eax
c010bc02:	8b 40 04             	mov    0x4(%eax),%eax
c010bc05:	83 c0 10             	add    $0x10,%eax
c010bc08:	89 45 e0             	mov    %eax,-0x20(%ebp)
c010bc0b:	8b 45 08             	mov    0x8(%ebp),%eax
c010bc0e:	8b 40 04             	mov    0x4(%eax),%eax
c010bc11:	83 c0 08             	add    $0x8,%eax
c010bc14:	89 45 f4             	mov    %eax,-0xc(%ebp)
c010bc17:	c7 45 dc 00 00 00 00 	movl   $0x0,-0x24(%ebp)
c010bc1e:	c7 45 f0 00 00 00 00 	movl   $0x0,-0x10(%ebp)
c010bc25:	eb 7a                	jmp    c010bca1 <slab_alloc_slab+0xea>
c010bc27:	8b 45 f0             	mov    -0x10(%ebp),%eax
c010bc2a:	0f af 45 e8          	imul   -0x18(%ebp),%eax
c010bc2e:	89 c2                	mov    %eax,%edx
c010bc30:	8b 45 e0             	mov    -0x20(%ebp),%eax
c010bc33:	01 d0                	add    %edx,%eax
c010bc35:	89 45 d8             	mov    %eax,-0x28(%ebp)
c010bc38:	8b 55 d8             	mov    -0x28(%ebp),%edx
c010bc3b:	8b 45 f4             	mov    -0xc(%ebp),%eax
c010bc3e:	89 10                	mov    %edx,(%eax)
c010bc40:	8b 45 f4             	mov    -0xc(%ebp),%eax
c010bc43:	8b 00                	mov    (%eax),%eax
c010bc45:	8b 55 d8             	mov    -0x28(%ebp),%edx
c010bc48:	83 c2 10             	add    $0x10,%edx
c010bc4b:	89 50 0c             	mov    %edx,0xc(%eax)
c010bc4e:	8b 45 f4             	mov    -0xc(%ebp),%eax
c010bc51:	8b 00                	mov    (%eax),%eax
c010bc53:	8b 40 0c             	mov    0xc(%eax),%eax
c010bc56:	83 ec 08             	sub    $0x8,%esp
c010bc59:	50                   	push   %eax
c010bc5a:	8d 83 24 ce ff ff    	lea    -0x31dc(%ebx),%eax
c010bc60:	50                   	push   %eax
c010bc61:	e8 7a fb ff ff       	call   c010b7e0 <klog>
c010bc66:	83 c4 10             	add    $0x10,%esp
c010bc69:	8b 55 d8             	mov    -0x28(%ebp),%edx
c010bc6c:	8b 45 e8             	mov    -0x18(%ebp),%eax
c010bc6f:	01 c2                	add    %eax,%edx
c010bc71:	8b 45 f4             	mov    -0xc(%ebp),%eax
c010bc74:	8b 00                	mov    (%eax),%eax
c010bc76:	89 10                	mov    %edx,(%eax)
c010bc78:	8b 45 f4             	mov    -0xc(%ebp),%eax
c010bc7b:	8b 10                	mov    (%eax),%edx
c010bc7d:	8b 45 f4             	mov    -0xc(%ebp),%eax
c010bc80:	8b 00                	mov    (%eax),%eax
c010bc82:	8b 12                	mov    (%edx),%edx
c010bc84:	89 50 04             	mov    %edx,0x4(%eax)
c010bc87:	8b 45 f4             	mov    -0xc(%ebp),%eax
c010bc8a:	8b 00                	mov    (%eax),%eax
c010bc8c:	8b 55 08             	mov    0x8(%ebp),%edx
c010bc8f:	8b 52 04             	mov    0x4(%edx),%edx
c010bc92:	89 50 08             	mov    %edx,0x8(%eax)
c010bc95:	8b 45 f4             	mov    -0xc(%ebp),%eax
c010bc98:	8b 00                	mov    (%eax),%eax
c010bc9a:	89 45 f4             	mov    %eax,-0xc(%ebp)
c010bc9d:	83 45 f0 01          	addl   $0x1,-0x10(%ebp)
c010bca1:	83 7d f0 0f          	cmpl   $0xf,-0x10(%ebp)
c010bca5:	76 80                	jbe    c010bc27 <slab_alloc_slab+0x70>
c010bca7:	8b 45 08             	mov    0x8(%ebp),%eax
c010bcaa:	8b 40 04             	mov    0x4(%eax),%eax
c010bcad:	8b 55 ec             	mov    -0x14(%ebp),%edx
c010bcb0:	89 50 0c             	mov    %edx,0xc(%eax)
c010bcb3:	8b 45 08             	mov    0x8(%ebp),%eax
c010bcb6:	8b 40 04             	mov    0x4(%eax),%eax
c010bcb9:	c7 40 04 10 00 00 00 	movl   $0x10,0x4(%eax)
c010bcc0:	b8 00 00 00 00       	mov    $0x0,%eax
c010bcc5:	8b 5d fc             	mov    -0x4(%ebp),%ebx
c010bcc8:	c9                   	leave
c010bcc9:	c3                   	ret

c010bcca <slab_remove_from_cache>:
c010bcca:	55                   	push   %ebp
c010bccb:	89 e5                	mov    %esp,%ebp
c010bccd:	e8 67 2d 00 00       	call   c010ea39 <__x86.get_pc_thunk.ax>
c010bcd2:	05 5a 69 00 00       	add    $0x695a,%eax
c010bcd7:	8b 45 08             	mov    0x8(%ebp),%eax
c010bcda:	8b 00                	mov    (%eax),%eax
c010bcdc:	85 c0                	test   %eax,%eax
c010bcde:	75 07                	jne    c010bce7 <slab_remove_from_cache+0x1d>
c010bce0:	b8 01 00 00 00       	mov    $0x1,%eax
c010bce5:	eb 12                	jmp    c010bcf9 <slab_remove_from_cache+0x2f>
c010bce7:	8b 45 08             	mov    0x8(%ebp),%eax
c010bcea:	8b 00                	mov    (%eax),%eax
c010bcec:	8b 50 0c             	mov    0xc(%eax),%edx
c010bcef:	8b 45 08             	mov    0x8(%ebp),%eax
c010bcf2:	89 10                	mov    %edx,(%eax)
c010bcf4:	b8 00 00 00 00       	mov    $0x0,%eax
c010bcf9:	5d                   	pop    %ebp
c010bcfa:	c3                   	ret

c010bcfb <slab_insert_in_cache>:
c010bcfb:	55                   	push   %ebp
c010bcfc:	89 e5                	mov    %esp,%ebp
c010bcfe:	83 ec 10             	sub    $0x10,%esp
c010bd01:	e8 33 2d 00 00       	call   c010ea39 <__x86.get_pc_thunk.ax>
c010bd06:	05 26 69 00 00       	add    $0x6926,%eax
c010bd0b:	8b 45 08             	mov    0x8(%ebp),%eax
c010bd0e:	8b 00                	mov    (%eax),%eax
c010bd10:	85 c0                	test   %eax,%eax
c010bd12:	75 07                	jne    c010bd1b <slab_insert_in_cache+0x20>
c010bd14:	b8 01 00 00 00       	mov    $0x1,%eax
c010bd19:	eb 23                	jmp    c010bd3e <slab_insert_in_cache+0x43>
c010bd1b:	8b 45 08             	mov    0x8(%ebp),%eax
c010bd1e:	8b 00                	mov    (%eax),%eax
c010bd20:	8b 40 0c             	mov    0xc(%eax),%eax
c010bd23:	89 45 fc             	mov    %eax,-0x4(%ebp)
c010bd26:	8b 45 08             	mov    0x8(%ebp),%eax
c010bd29:	8b 55 0c             	mov    0xc(%ebp),%edx
c010bd2c:	89 10                	mov    %edx,(%eax)
c010bd2e:	8b 45 08             	mov    0x8(%ebp),%eax
c010bd31:	8b 00                	mov    (%eax),%eax
c010bd33:	8b 55 fc             	mov    -0x4(%ebp),%edx
c010bd36:	89 50 0c             	mov    %edx,0xc(%eax)
c010bd39:	b8 00 00 00 00       	mov    $0x0,%eax
c010bd3e:	c9                   	leave
c010bd3f:	c3                   	ret

c010bd40 <slab_cache_create>:
c010bd40:	55                   	push   %ebp
c010bd41:	89 e5                	mov    %esp,%ebp
c010bd43:	53                   	push   %ebx
c010bd44:	83 ec 14             	sub    $0x14,%esp
c010bd47:	e8 f1 2c 00 00       	call   c010ea3d <__x86.get_pc_thunk.bx>
c010bd4c:	81 c3 e0 68 00 00    	add    $0x68e0,%ebx
c010bd52:	8b 83 64 96 00 00    	mov    0x9664(%ebx),%eax
c010bd58:	85 c0                	test   %eax,%eax
c010bd5a:	75 13                	jne    c010bd6f <slab_cache_create+0x2f>
c010bd5c:	83 ec 0c             	sub    $0xc,%esp
c010bd5f:	6a 14                	push   $0x14
c010bd61:	e8 0e 2a 00 00       	call   c010e774 <kmalloc>
c010bd66:	83 c4 10             	add    $0x10,%esp
c010bd69:	89 83 64 96 00 00    	mov    %eax,0x9664(%ebx)
c010bd6f:	8b 83 64 96 00 00    	mov    0x9664(%ebx),%eax
c010bd75:	8b 00                	mov    (%eax),%eax
c010bd77:	89 45 f4             	mov    %eax,-0xc(%ebp)
c010bd7a:	83 ec 0c             	sub    $0xc,%esp
c010bd7d:	6a 14                	push   $0x14
c010bd7f:	e8 f0 29 00 00       	call   c010e774 <kmalloc>
c010bd84:	83 c4 10             	add    $0x10,%esp
c010bd87:	89 83 64 96 00 00    	mov    %eax,0x9664(%ebx)
c010bd8d:	8b 83 64 96 00 00    	mov    0x9664(%ebx),%eax
c010bd93:	8b 55 f4             	mov    -0xc(%ebp),%edx
c010bd96:	89 10                	mov    %edx,(%eax)
c010bd98:	8b 83 64 96 00 00    	mov    0x9664(%ebx),%eax
c010bd9e:	8b 55 08             	mov    0x8(%ebp),%edx
c010bda1:	89 50 10             	mov    %edx,0x10(%eax)
c010bda4:	8b 83 64 96 00 00    	mov    0x9664(%ebx),%eax
c010bdaa:	83 ec 0c             	sub    $0xc,%esp
c010bdad:	50                   	push   %eax
c010bdae:	e8 04 fe ff ff       	call   c010bbb7 <slab_alloc_slab>
c010bdb3:	83 c4 10             	add    $0x10,%esp
c010bdb6:	8b 83 64 96 00 00    	mov    0x9664(%ebx),%eax
c010bdbc:	8b 5d fc             	mov    -0x4(%ebp),%ebx
c010bdbf:	c9                   	leave
c010bdc0:	c3                   	ret

c010bdc1 <slab_cache_destroy>:
c010bdc1:	55                   	push   %ebp
c010bdc2:	89 e5                	mov    %esp,%ebp
c010bdc4:	e8 70 2c 00 00       	call   c010ea39 <__x86.get_pc_thunk.ax>
c010bdc9:	05 63 68 00 00       	add    $0x6863,%eax
c010bdce:	90                   	nop
c010bdcf:	5d                   	pop    %ebp
c010bdd0:	c3                   	ret

c010bdd1 <slab_alloc_from_cache>:
c010bdd1:	55                   	push   %ebp
c010bdd2:	89 e5                	mov    %esp,%ebp
c010bdd4:	53                   	push   %ebx
c010bdd5:	83 ec 14             	sub    $0x14,%esp
c010bdd8:	e8 60 2c 00 00       	call   c010ea3d <__x86.get_pc_thunk.bx>
c010bddd:	81 c3 4f 68 00 00    	add    $0x684f,%ebx
c010bde3:	83 7d 08 00          	cmpl   $0x0,0x8(%ebp)
c010bde7:	75 0a                	jne    c010bdf3 <slab_alloc_from_cache+0x22>
c010bde9:	b8 00 00 00 00       	mov    $0x0,%eax
c010bdee:	e9 fe 00 00 00       	jmp    c010bef1 <slab_alloc_from_cache+0x120>
c010bdf3:	8b 45 08             	mov    0x8(%ebp),%eax
c010bdf6:	83 c0 0c             	add    $0xc,%eax
c010bdf9:	89 45 f4             	mov    %eax,-0xc(%ebp)
c010bdfc:	8b 45 f4             	mov    -0xc(%ebp),%eax
c010bdff:	8b 00                	mov    (%eax),%eax
c010be01:	85 c0                	test   %eax,%eax
c010be03:	75 1d                	jne    c010be22 <slab_alloc_from_cache+0x51>
c010be05:	83 ec 0c             	sub    $0xc,%esp
c010be08:	8d 83 39 ce ff ff    	lea    -0x31c7(%ebx),%eax
c010be0e:	50                   	push   %eax
c010be0f:	e8 fd f9 ff ff       	call   c010b811 <debug_log>
c010be14:	83 c4 10             	add    $0x10,%esp
c010be17:	8b 45 08             	mov    0x8(%ebp),%eax
c010be1a:	8b 50 04             	mov    0x4(%eax),%edx
c010be1d:	8b 45 f4             	mov    -0xc(%ebp),%eax
c010be20:	89 10                	mov    %edx,(%eax)
c010be22:	8b 45 f4             	mov    -0xc(%ebp),%eax
c010be25:	8b 00                	mov    (%eax),%eax
c010be27:	85 c0                	test   %eax,%eax
c010be29:	75 2b                	jne    c010be56 <slab_alloc_from_cache+0x85>
c010be2b:	83 ec 0c             	sub    $0xc,%esp
c010be2e:	8d 83 52 ce ff ff    	lea    -0x31ae(%ebx),%eax
c010be34:	50                   	push   %eax
c010be35:	e8 d7 f9 ff ff       	call   c010b811 <debug_log>
c010be3a:	83 c4 10             	add    $0x10,%esp
c010be3d:	83 ec 0c             	sub    $0xc,%esp
c010be40:	ff 75 08             	push   0x8(%ebp)
c010be43:	e8 6f fd ff ff       	call   c010bbb7 <slab_alloc_slab>
c010be48:	83 c4 10             	add    $0x10,%esp
c010be4b:	8b 45 08             	mov    0x8(%ebp),%eax
c010be4e:	8b 50 04             	mov    0x4(%eax),%edx
c010be51:	8b 45 f4             	mov    -0xc(%ebp),%eax
c010be54:	89 10                	mov    %edx,(%eax)
c010be56:	8b 45 f4             	mov    -0xc(%ebp),%eax
c010be59:	8b 00                	mov    (%eax),%eax
c010be5b:	8b 40 08             	mov    0x8(%eax),%eax
c010be5e:	83 c0 04             	add    $0x4,%eax
c010be61:	89 45 f0             	mov    %eax,-0x10(%ebp)
c010be64:	8b 45 f0             	mov    -0x10(%ebp),%eax
c010be67:	8b 00                	mov    (%eax),%eax
c010be69:	8b 40 0c             	mov    0xc(%eax),%eax
c010be6c:	89 45 ec             	mov    %eax,-0x14(%ebp)
c010be6f:	8b 45 f0             	mov    -0x10(%ebp),%eax
c010be72:	8b 00                	mov    (%eax),%eax
c010be74:	8b 50 04             	mov    0x4(%eax),%edx
c010be77:	8b 45 f0             	mov    -0x10(%ebp),%eax
c010be7a:	89 10                	mov    %edx,(%eax)
c010be7c:	8b 45 f4             	mov    -0xc(%ebp),%eax
c010be7f:	8b 00                	mov    (%eax),%eax
c010be81:	8b 50 04             	mov    0x4(%eax),%edx
c010be84:	83 ea 01             	sub    $0x1,%edx
c010be87:	89 50 04             	mov    %edx,0x4(%eax)
c010be8a:	8b 45 f0             	mov    -0x10(%ebp),%eax
c010be8d:	8b 00                	mov    (%eax),%eax
c010be8f:	85 c0                	test   %eax,%eax
c010be91:	75 28                	jne    c010bebb <slab_alloc_from_cache+0xea>
c010be93:	8b 45 f4             	mov    -0xc(%ebp),%eax
c010be96:	8b 00                	mov    (%eax),%eax
c010be98:	8b 55 08             	mov    0x8(%ebp),%edx
c010be9b:	83 c2 08             	add    $0x8,%edx
c010be9e:	83 ec 08             	sub    $0x8,%esp
c010bea1:	50                   	push   %eax
c010bea2:	52                   	push   %edx
c010bea3:	e8 53 fe ff ff       	call   c010bcfb <slab_insert_in_cache>
c010bea8:	83 c4 10             	add    $0x10,%esp
c010beab:	83 ec 0c             	sub    $0xc,%esp
c010beae:	ff 75 f4             	push   -0xc(%ebp)
c010beb1:	e8 14 fe ff ff       	call   c010bcca <slab_remove_from_cache>
c010beb6:	83 c4 10             	add    $0x10,%esp
c010beb9:	eb 33                	jmp    c010beee <slab_alloc_from_cache+0x11d>
c010bebb:	8b 45 f4             	mov    -0xc(%ebp),%eax
c010bebe:	8b 00                	mov    (%eax),%eax
c010bec0:	8b 40 04             	mov    0x4(%eax),%eax
c010bec3:	83 f8 0f             	cmp    $0xf,%eax
c010bec6:	75 26                	jne    c010beee <slab_alloc_from_cache+0x11d>
c010bec8:	8b 45 f4             	mov    -0xc(%ebp),%eax
c010becb:	8b 00                	mov    (%eax),%eax
c010becd:	8b 55 08             	mov    0x8(%ebp),%edx
c010bed0:	83 c2 0c             	add    $0xc,%edx
c010bed3:	83 ec 08             	sub    $0x8,%esp
c010bed6:	50                   	push   %eax
c010bed7:	52                   	push   %edx
c010bed8:	e8 1e fe ff ff       	call   c010bcfb <slab_insert_in_cache>
c010bedd:	83 c4 10             	add    $0x10,%esp
c010bee0:	83 ec 0c             	sub    $0xc,%esp
c010bee3:	ff 75 f4             	push   -0xc(%ebp)
c010bee6:	e8 df fd ff ff       	call   c010bcca <slab_remove_from_cache>
c010beeb:	83 c4 10             	add    $0x10,%esp
c010beee:	8b 45 ec             	mov    -0x14(%ebp),%eax
c010bef1:	8b 5d fc             	mov    -0x4(%ebp),%ebx
c010bef4:	c9                   	leave
c010bef5:	c3                   	ret

c010bef6 <slab_free>:
c010bef6:	55                   	push   %ebp
c010bef7:	89 e5                	mov    %esp,%ebp
c010bef9:	83 ec 10             	sub    $0x10,%esp
c010befc:	e8 38 2b 00 00       	call   c010ea39 <__x86.get_pc_thunk.ax>
c010bf01:	05 2b 67 00 00       	add    $0x672b,%eax
c010bf06:	8b 45 0c             	mov    0xc(%ebp),%eax
c010bf09:	83 e8 10             	sub    $0x10,%eax
c010bf0c:	89 45 fc             	mov    %eax,-0x4(%ebp)
c010bf0f:	8b 45 fc             	mov    -0x4(%ebp),%eax
c010bf12:	89 45 f8             	mov    %eax,-0x8(%ebp)
c010bf15:	8b 45 f8             	mov    -0x8(%ebp),%eax
c010bf18:	8b 40 08             	mov    0x8(%eax),%eax
c010bf1b:	8b 40 08             	mov    0x8(%eax),%eax
c010bf1e:	89 45 f4             	mov    %eax,-0xc(%ebp)
c010bf21:	8b 45 f8             	mov    -0x8(%ebp),%eax
c010bf24:	8b 40 08             	mov    0x8(%eax),%eax
c010bf27:	8b 50 04             	mov    0x4(%eax),%edx
c010bf2a:	83 c2 01             	add    $0x1,%edx
c010bf2d:	89 50 04             	mov    %edx,0x4(%eax)
c010bf30:	8b 45 f8             	mov    -0x8(%ebp),%eax
c010bf33:	8b 50 08             	mov    0x8(%eax),%edx
c010bf36:	8b 45 08             	mov    0x8(%ebp),%eax
c010bf39:	8b 40 08             	mov    0x8(%eax),%eax
c010bf3c:	39 c2                	cmp    %eax,%edx
c010bf3e:	75 27                	jne    c010bf67 <slab_free+0x71>
c010bf40:	8b 45 f8             	mov    -0x8(%ebp),%eax
c010bf43:	8b 40 08             	mov    0x8(%eax),%eax
c010bf46:	8b 55 08             	mov    0x8(%ebp),%edx
c010bf49:	83 c2 0c             	add    $0xc,%edx
c010bf4c:	50                   	push   %eax
c010bf4d:	52                   	push   %edx
c010bf4e:	e8 a8 fd ff ff       	call   c010bcfb <slab_insert_in_cache>
c010bf53:	83 c4 08             	add    $0x8,%esp
c010bf56:	8b 45 08             	mov    0x8(%ebp),%eax
c010bf59:	83 c0 08             	add    $0x8,%eax
c010bf5c:	50                   	push   %eax
c010bf5d:	e8 68 fd ff ff       	call   c010bcca <slab_remove_from_cache>
c010bf62:	83 c4 04             	add    $0x4,%esp
c010bf65:	eb 33                	jmp    c010bf9a <slab_free+0xa4>
c010bf67:	8b 45 f8             	mov    -0x8(%ebp),%eax
c010bf6a:	8b 40 08             	mov    0x8(%eax),%eax
c010bf6d:	8b 40 04             	mov    0x4(%eax),%eax
c010bf70:	83 f8 10             	cmp    $0x10,%eax
c010bf73:	75 25                	jne    c010bf9a <slab_free+0xa4>
c010bf75:	8b 45 f8             	mov    -0x8(%ebp),%eax
c010bf78:	8b 40 08             	mov    0x8(%eax),%eax
c010bf7b:	8b 55 08             	mov    0x8(%ebp),%edx
c010bf7e:	83 c2 04             	add    $0x4,%edx
c010bf81:	50                   	push   %eax
c010bf82:	52                   	push   %edx
c010bf83:	e8 73 fd ff ff       	call   c010bcfb <slab_insert_in_cache>
c010bf88:	83 c4 08             	add    $0x8,%esp
c010bf8b:	8b 45 08             	mov    0x8(%ebp),%eax
c010bf8e:	83 c0 0c             	add    $0xc,%eax
c010bf91:	50                   	push   %eax
c010bf92:	e8 33 fd ff ff       	call   c010bcca <slab_remove_from_cache>
c010bf97:	83 c4 04             	add    $0x4,%esp
c010bf9a:	8b 45 f4             	mov    -0xc(%ebp),%eax
c010bf9d:	8b 50 04             	mov    0x4(%eax),%edx
c010bfa0:	8b 45 f8             	mov    -0x8(%ebp),%eax
c010bfa3:	89 50 04             	mov    %edx,0x4(%eax)
c010bfa6:	8b 45 f4             	mov    -0xc(%ebp),%eax
c010bfa9:	8b 40 04             	mov    0x4(%eax),%eax
c010bfac:	89 c2                	mov    %eax,%edx
c010bfae:	8b 45 f8             	mov    -0x8(%ebp),%eax
c010bfb1:	39 d0                	cmp    %edx,%eax
c010bfb3:	73 09                	jae    c010bfbe <slab_free+0xc8>
c010bfb5:	8b 45 f4             	mov    -0xc(%ebp),%eax
c010bfb8:	8b 55 f8             	mov    -0x8(%ebp),%edx
c010bfbb:	89 50 04             	mov    %edx,0x4(%eax)
c010bfbe:	90                   	nop
c010bfbf:	c9                   	leave
c010bfc0:	c3                   	ret

c010bfc1 <slab_alloc>:
c010bfc1:	55                   	push   %ebp
c010bfc2:	89 e5                	mov    %esp,%ebp
c010bfc4:	83 ec 18             	sub    $0x18,%esp
c010bfc7:	e8 6d 2a 00 00       	call   c010ea39 <__x86.get_pc_thunk.ax>
c010bfcc:	05 60 66 00 00       	add    $0x6660,%eax
c010bfd1:	8b 80 64 96 00 00    	mov    0x9664(%eax),%eax
c010bfd7:	89 45 f4             	mov    %eax,-0xc(%ebp)
c010bfda:	eb 08                	jmp    c010bfe4 <slab_alloc+0x23>
c010bfdc:	8b 45 f4             	mov    -0xc(%ebp),%eax
c010bfdf:	8b 00                	mov    (%eax),%eax
c010bfe1:	89 45 f4             	mov    %eax,-0xc(%ebp)
c010bfe4:	83 7d f4 00          	cmpl   $0x0,-0xc(%ebp)
c010bfe8:	74 0b                	je     c010bff5 <slab_alloc+0x34>
c010bfea:	8b 45 f4             	mov    -0xc(%ebp),%eax
c010bfed:	8b 40 10             	mov    0x10(%eax),%eax
c010bff0:	39 45 08             	cmp    %eax,0x8(%ebp)
c010bff3:	75 e7                	jne    c010bfdc <slab_alloc+0x1b>
c010bff5:	83 7d f4 00          	cmpl   $0x0,-0xc(%ebp)
c010bff9:	75 07                	jne    c010c002 <slab_alloc+0x41>
c010bffb:	b8 00 00 00 00       	mov    $0x0,%eax
c010c000:	eb 0e                	jmp    c010c010 <slab_alloc+0x4f>
c010c002:	83 ec 0c             	sub    $0xc,%esp
c010c005:	ff 75 f4             	push   -0xc(%ebp)
c010c008:	e8 c4 fd ff ff       	call   c010bdd1 <slab_alloc_from_cache>
c010c00d:	83 c4 10             	add    $0x10,%esp
c010c010:	c9                   	leave
c010c011:	c3                   	ret

c010c012 <slab_alloc_init>:
c010c012:	55                   	push   %ebp
c010c013:	89 e5                	mov    %esp,%ebp
c010c015:	53                   	push   %ebx
c010c016:	83 ec 04             	sub    $0x4,%esp
c010c019:	e8 1f 2a 00 00       	call   c010ea3d <__x86.get_pc_thunk.bx>
c010c01e:	81 c3 0e 66 00 00    	add    $0x660e,%ebx
c010c024:	83 ec 0c             	sub    $0xc,%esp
c010c027:	6a 14                	push   $0x14
c010c029:	e8 46 27 00 00       	call   c010e774 <kmalloc>
c010c02e:	83 c4 10             	add    $0x10,%esp
c010c031:	89 83 64 96 00 00    	mov    %eax,0x9664(%ebx)
c010c037:	8b 83 64 96 00 00    	mov    0x9664(%ebx),%eax
c010c03d:	85 c0                	test   %eax,%eax
c010c03f:	75 07                	jne    c010c048 <slab_alloc_init+0x36>
c010c041:	b8 01 00 00 00       	mov    $0x1,%eax
c010c046:	eb 0e                	jmp    c010c056 <slab_alloc_init+0x44>
c010c048:	8b 45 08             	mov    0x8(%ebp),%eax
c010c04b:	89 83 68 96 00 00    	mov    %eax,0x9668(%ebx)
c010c051:	b8 00 00 00 00       	mov    $0x0,%eax
c010c056:	8b 5d fc             	mov    -0x4(%ebp),%ebx
c010c059:	c9                   	leave
c010c05a:	c3                   	ret

c010c05b <slab_test>:
c010c05b:	55                   	push   %ebp
c010c05c:	89 e5                	mov    %esp,%ebp
c010c05e:	53                   	push   %ebx
c010c05f:	83 ec 14             	sub    $0x14,%esp
c010c062:	e8 d6 29 00 00       	call   c010ea3d <__x86.get_pc_thunk.bx>
c010c067:	81 c3 c5 65 00 00    	add    $0x65c5,%ebx
c010c06d:	83 ec 0c             	sub    $0xc,%esp
c010c070:	6a 40                	push   $0x40
c010c072:	e8 c9 fc ff ff       	call   c010bd40 <slab_cache_create>
c010c077:	83 c4 10             	add    $0x10,%esp
c010c07a:	89 45 f4             	mov    %eax,-0xc(%ebp)
c010c07d:	83 ec 0c             	sub    $0xc,%esp
c010c080:	ff 75 f4             	push   -0xc(%ebp)
c010c083:	e8 49 fd ff ff       	call   c010bdd1 <slab_alloc_from_cache>
c010c088:	83 c4 10             	add    $0x10,%esp
c010c08b:	89 45 f0             	mov    %eax,-0x10(%ebp)
c010c08e:	83 ec 0c             	sub    $0xc,%esp
c010c091:	ff 75 f4             	push   -0xc(%ebp)
c010c094:	e8 38 fd ff ff       	call   c010bdd1 <slab_alloc_from_cache>
c010c099:	83 c4 10             	add    $0x10,%esp
c010c09c:	89 45 ec             	mov    %eax,-0x14(%ebp)
c010c09f:	83 ec 08             	sub    $0x8,%esp
c010c0a2:	ff 75 f0             	push   -0x10(%ebp)
c010c0a5:	ff 75 f4             	push   -0xc(%ebp)
c010c0a8:	e8 49 fe ff ff       	call   c010bef6 <slab_free>
c010c0ad:	83 c4 10             	add    $0x10,%esp
c010c0b0:	83 ec 0c             	sub    $0xc,%esp
c010c0b3:	ff 75 f4             	push   -0xc(%ebp)
c010c0b6:	e8 16 fd ff ff       	call   c010bdd1 <slab_alloc_from_cache>
c010c0bb:	83 c4 10             	add    $0x10,%esp
c010c0be:	89 45 e8             	mov    %eax,-0x18(%ebp)
c010c0c1:	ff 75 e8             	push   -0x18(%ebp)
c010c0c4:	ff 75 ec             	push   -0x14(%ebp)
c010c0c7:	ff 75 f0             	push   -0x10(%ebp)
c010c0ca:	8d 83 61 ce ff ff    	lea    -0x319f(%ebx),%eax
c010c0d0:	50                   	push   %eax
c010c0d1:	e8 0a f7 ff ff       	call   c010b7e0 <klog>
c010c0d6:	83 c4 10             	add    $0x10,%esp
c010c0d9:	90                   	nop
c010c0da:	8b 5d fc             	mov    -0x4(%ebp),%ebx
c010c0dd:	c9                   	leave
c010c0de:	c3                   	ret

c010c0df <get_ident_phys_page_addr>:
c010c0df:	55                   	push   %ebp
c010c0e0:	89 e5                	mov    %esp,%ebp
c010c0e2:	83 ec 08             	sub    $0x8,%esp
c010c0e5:	e8 4f 29 00 00       	call   c010ea39 <__x86.get_pc_thunk.ax>
c010c0ea:	05 42 65 00 00       	add    $0x6542,%eax
c010c0ef:	8b 55 08             	mov    0x8(%ebp),%edx
c010c0f2:	8b 45 0c             	mov    0xc(%ebp),%eax
c010c0f5:	66 89 55 fc          	mov    %dx,-0x4(%ebp)
c010c0f9:	66 89 45 f8          	mov    %ax,-0x8(%ebp)
c010c0fd:	0f b7 45 fc          	movzwl -0x4(%ebp),%eax
c010c101:	c1 e0 0a             	shl    $0xa,%eax
c010c104:	89 c2                	mov    %eax,%edx
c010c106:	0f b7 45 f8          	movzwl -0x8(%ebp),%eax
c010c10a:	01 d0                	add    %edx,%eax
c010c10c:	c1 e0 0c             	shl    $0xc,%eax
c010c10f:	c9                   	leave
c010c110:	c3                   	ret

c010c111 <to_phys_addr>:
c010c111:	55                   	push   %ebp
c010c112:	89 e5                	mov    %esp,%ebp
c010c114:	53                   	push   %ebx
c010c115:	83 ec 14             	sub    $0x14,%esp
c010c118:	e8 20 29 00 00       	call   c010ea3d <__x86.get_pc_thunk.bx>
c010c11d:	81 c3 0f 65 00 00    	add    $0x650f,%ebx
c010c123:	8b 45 08             	mov    0x8(%ebp),%eax
c010c126:	66 25 ff 0f          	and    $0xfff,%ax
c010c12a:	66 89 45 f6          	mov    %ax,-0xa(%ebp)
c010c12e:	8b 83 e0 99 00 00    	mov    0x99e0(%ebx),%eax
c010c134:	85 c0                	test   %eax,%eax
c010c136:	75 20                	jne    c010c158 <to_phys_addr+0x47>
c010c138:	8b 4d 08             	mov    0x8(%ebp),%ecx
c010c13b:	8b 83 d4 09 01 00    	mov    0x109d4(%ebx),%eax
c010c141:	85 c0                	test   %eax,%eax
c010c143:	74 08                	je     c010c14d <to_phys_addr+0x3c>
c010c145:	8b 93 d4 09 01 00    	mov    0x109d4(%ebx),%edx
c010c14b:	eb 05                	jmp    c010c152 <to_phys_addr+0x41>
c010c14d:	ba 00 00 00 c0       	mov    $0xc0000000,%edx
c010c152:	89 c8                	mov    %ecx,%eax
c010c154:	29 d0                	sub    %edx,%eax
c010c156:	eb 57                	jmp    c010c1af <to_phys_addr+0x9e>
c010c158:	8b 45 08             	mov    0x8(%ebp),%eax
c010c15b:	83 ec 04             	sub    $0x4,%esp
c010c15e:	8d 55 ec             	lea    -0x14(%ebp),%edx
c010c161:	52                   	push   %edx
c010c162:	8d 55 ee             	lea    -0x12(%ebp),%edx
c010c165:	52                   	push   %edx
c010c166:	50                   	push   %eax
c010c167:	e8 4b 08 00 00       	call   c010c9b7 <get_pde_pte>
c010c16c:	83 c4 10             	add    $0x10,%esp
c010c16f:	0f b7 45 ec          	movzwl -0x14(%ebp),%eax
c010c173:	0f b7 c0             	movzwl %ax,%eax
c010c176:	8d 0c 85 00 00 00 00 	lea    0x0(,%eax,4),%ecx
c010c17d:	8b 83 e0 99 00 00    	mov    0x99e0(%ebx),%eax
c010c183:	8b 40 04             	mov    0x4(%eax),%eax
c010c186:	0f b7 55 ee          	movzwl -0x12(%ebp),%edx
c010c18a:	0f b7 d2             	movzwl %dx,%edx
c010c18d:	c1 e2 02             	shl    $0x2,%edx
c010c190:	01 d0                	add    %edx,%eax
c010c192:	8b 00                	mov    (%eax),%eax
c010c194:	01 c8                	add    %ecx,%eax
c010c196:	8b 00                	mov    (%eax),%eax
c010c198:	89 45 f0             	mov    %eax,-0x10(%ebp)
c010c19b:	83 ec 0c             	sub    $0xc,%esp
c010c19e:	ff 75 f0             	push   -0x10(%ebp)
c010c1a1:	e8 be 03 00 00       	call   c010c564 <get_tab_pure_addr>
c010c1a6:	83 c4 10             	add    $0x10,%esp
c010c1a9:	89 45 f0             	mov    %eax,-0x10(%ebp)
c010c1ac:	8b 45 f0             	mov    -0x10(%ebp),%eax
c010c1af:	8b 5d fc             	mov    -0x4(%ebp),%ebx
c010c1b2:	c9                   	leave
c010c1b3:	c3                   	ret

c010c1b4 <page_tables_init>:
c010c1b4:	55                   	push   %ebp
c010c1b5:	89 e5                	mov    %esp,%ebp
c010c1b7:	53                   	push   %ebx
c010c1b8:	83 ec 24             	sub    $0x24,%esp
c010c1bb:	e8 7d 28 00 00       	call   c010ea3d <__x86.get_pc_thunk.bx>
c010c1c0:	81 c3 6c 64 00 00    	add    $0x646c,%ebx
c010c1c6:	c7 45 f4 00 00 00 00 	movl   $0x0,-0xc(%ebp)
c010c1cd:	eb 27                	jmp    c010c1f6 <page_tables_init+0x42>
c010c1cf:	8b 83 d4 99 00 00    	mov    0x99d4(%ebx),%eax
c010c1d5:	8b 55 f4             	mov    -0xc(%ebp),%edx
c010c1d8:	c1 e2 02             	shl    $0x2,%edx
c010c1db:	01 d0                	add    %edx,%eax
c010c1dd:	8b 10                	mov    (%eax),%edx
c010c1df:	8b 83 d4 99 00 00    	mov    0x99d4(%ebx),%eax
c010c1e5:	8b 4d f4             	mov    -0xc(%ebp),%ecx
c010c1e8:	c1 e1 02             	shl    $0x2,%ecx
c010c1eb:	01 c8                	add    %ecx,%eax
c010c1ed:	83 ca 02             	or     $0x2,%edx
c010c1f0:	89 10                	mov    %edx,(%eax)
c010c1f2:	83 45 f4 01          	addl   $0x1,-0xc(%ebp)
c010c1f6:	81 7d f4 ff 03 00 00 	cmpl   $0x3ff,-0xc(%ebp)
c010c1fd:	76 d0                	jbe    c010c1cf <page_tables_init+0x1b>
c010c1ff:	c7 45 f0 00 00 00 00 	movl   $0x0,-0x10(%ebp)
c010c206:	eb 3b                	jmp    c010c243 <page_tables_init+0x8f>
c010c208:	8b 45 f0             	mov    -0x10(%ebp),%eax
c010c20b:	c1 e0 0c             	shl    $0xc,%eax
c010c20e:	89 45 e4             	mov    %eax,-0x1c(%ebp)
c010c211:	66 c7 45 e2 07 00    	movw   $0x7,-0x1e(%ebp)
c010c217:	0f b7 45 e2          	movzwl -0x1e(%ebp),%eax
c010c21b:	8b 55 f0             	mov    -0x10(%ebp),%edx
c010c21e:	8d 0c 95 00 00 00 00 	lea    0x0(,%edx,4),%ecx
c010c225:	8d 93 d4 c9 00 00    	lea    0xc9d4(%ebx),%edx
c010c22b:	01 ca                	add    %ecx,%edx
c010c22d:	50                   	push   %eax
c010c22e:	68 00 04 00 00       	push   $0x400
c010c233:	52                   	push   %edx
c010c234:	ff 75 e4             	push   -0x1c(%ebp)
c010c237:	e8 fb 18 00 00       	call   c010db37 <buddy_alloc_at_addr>
c010c23c:	83 c4 10             	add    $0x10,%esp
c010c23f:	83 45 f0 01          	addl   $0x1,-0x10(%ebp)
c010c243:	83 7d f0 03          	cmpl   $0x3,-0x10(%ebp)
c010c247:	76 bf                	jbe    c010c208 <page_tables_init+0x54>
c010c249:	c7 45 ec 00 00 00 00 	movl   $0x0,-0x14(%ebp)
c010c250:	eb 6e                	jmp    c010c2c0 <page_tables_init+0x10c>
c010c252:	8b 45 ec             	mov    -0x14(%ebp),%eax
c010c255:	c1 e0 0a             	shl    $0xa,%eax
c010c258:	8d 14 85 00 00 00 00 	lea    0x0(,%eax,4),%edx
c010c25f:	8d 83 d4 c9 00 00    	lea    0xc9d4(%ebx),%eax
c010c265:	01 d0                	add    %edx,%eax
c010c267:	83 ec 0c             	sub    $0xc,%esp
c010c26a:	50                   	push   %eax
c010c26b:	e8 a1 fe ff ff       	call   c010c111 <to_phys_addr>
c010c270:	83 c4 10             	add    $0x10,%esp
c010c273:	8b 93 d4 99 00 00    	mov    0x99d4(%ebx),%edx
c010c279:	8b 4d ec             	mov    -0x14(%ebp),%ecx
c010c27c:	81 c1 00 03 00 00    	add    $0x300,%ecx
c010c282:	c1 e1 02             	shl    $0x2,%ecx
c010c285:	01 ca                	add    %ecx,%edx
c010c287:	0d 07 01 00 00       	or     $0x107,%eax
c010c28c:	89 02                	mov    %eax,(%edx)
c010c28e:	8b 45 ec             	mov    -0x14(%ebp),%eax
c010c291:	c1 e0 0a             	shl    $0xa,%eax
c010c294:	8d 14 85 00 00 00 00 	lea    0x0(,%eax,4),%edx
c010c29b:	8d 83 d4 c9 00 00    	lea    0xc9d4(%ebx),%eax
c010c2a1:	8d 0c 02             	lea    (%edx,%eax,1),%ecx
c010c2a4:	8b 83 d8 99 00 00    	mov    0x99d8(%ebx),%eax
c010c2aa:	8b 55 ec             	mov    -0x14(%ebp),%edx
c010c2ad:	81 c2 00 03 00 00    	add    $0x300,%edx
c010c2b3:	c1 e2 02             	shl    $0x2,%edx
c010c2b6:	01 d0                	add    %edx,%eax
c010c2b8:	89 ca                	mov    %ecx,%edx
c010c2ba:	89 10                	mov    %edx,(%eax)
c010c2bc:	83 45 ec 01          	addl   $0x1,-0x14(%ebp)
c010c2c0:	83 7d ec 03          	cmpl   $0x3,-0x14(%ebp)
c010c2c4:	76 8c                	jbe    c010c252 <page_tables_init+0x9e>
c010c2c6:	83 ec 04             	sub    $0x4,%esp
c010c2c9:	6a 00                	push   $0x0
c010c2cb:	8d 83 da a4 ff ff    	lea    -0x5b26(%ebx),%eax
c010c2d1:	50                   	push   %eax
c010c2d2:	6a 0e                	push   $0xe
c010c2d4:	e8 e9 be ff ff       	call   c01081c2 <add_isr_handler>
c010c2d9:	83 c4 10             	add    $0x10,%esp
c010c2dc:	89 45 e8             	mov    %eax,-0x18(%ebp)
c010c2df:	8b 83 dc 99 00 00    	mov    0x99dc(%ebx),%eax
c010c2e5:	83 ec 0c             	sub    $0xc,%esp
c010c2e8:	50                   	push   %eax
c010c2e9:	e8 dd af ff ff       	call   c01072cb <load_page_dir>
c010c2ee:	83 c4 10             	add    $0x10,%esp
c010c2f1:	e8 dd af ff ff       	call   c01072d3 <enable_paging>
c010c2f6:	8b 45 e8             	mov    -0x18(%ebp),%eax
c010c2f9:	8b 5d fc             	mov    -0x4(%ebp),%ebx
c010c2fc:	c9                   	leave
c010c2fd:	c3                   	ret

c010c2fe <paging_init>:
c010c2fe:	55                   	push   %ebp
c010c2ff:	89 e5                	mov    %esp,%ebp
c010c301:	53                   	push   %ebx
c010c302:	83 ec 24             	sub    $0x24,%esp
c010c305:	e8 33 27 00 00       	call   c010ea3d <__x86.get_pc_thunk.bx>
c010c30a:	81 c3 22 63 00 00    	add    $0x6322,%ebx
c010c310:	b8 00 60 12 c0       	mov    $0xc0126000,%eax
c010c315:	89 83 d4 19 01 00    	mov    %eax,0x119d4(%ebx)
c010c31b:	b8 00 00 00 c0       	mov    $0xc0000000,%eax
c010c320:	89 83 d4 09 01 00    	mov    %eax,0x109d4(%ebx)
c010c326:	b8 00 70 10 c0       	mov    $0xc0107000,%eax
c010c32b:	89 83 d8 09 01 00    	mov    %eax,0x109d8(%ebx)
c010c331:	b8 97 f5 10 c0       	mov    $0xc010f597,%eax
c010c336:	89 83 dc 09 01 00    	mov    %eax,0x109dc(%ebx)
c010c33c:	8b 83 d8 09 01 00    	mov    0x109d8(%ebx),%eax
c010c342:	83 ec 0c             	sub    $0xc,%esp
c010c345:	50                   	push   %eax
c010c346:	e8 c6 fd ff ff       	call   c010c111 <to_phys_addr>
c010c34b:	83 c4 10             	add    $0x10,%esp
c010c34e:	89 83 d8 09 01 00    	mov    %eax,0x109d8(%ebx)
c010c354:	8b 83 dc 09 01 00    	mov    0x109dc(%ebx),%eax
c010c35a:	83 ec 0c             	sub    $0xc,%esp
c010c35d:	50                   	push   %eax
c010c35e:	e8 ae fd ff ff       	call   c010c111 <to_phys_addr>
c010c363:	83 c4 10             	add    $0x10,%esp
c010c366:	89 83 dc 09 01 00    	mov    %eax,0x109dc(%ebx)
c010c36c:	8b 83 d4 19 01 00    	mov    0x119d4(%ebx),%eax
c010c372:	05 00 10 00 00       	add    $0x1000,%eax
c010c377:	89 83 d4 29 01 00    	mov    %eax,0x129d4(%ebx)
c010c37d:	8b 83 d4 29 01 00    	mov    0x129d4(%ebx),%eax
c010c383:	83 ec 0c             	sub    $0xc,%esp
c010c386:	50                   	push   %eax
c010c387:	e8 bc 21 00 00       	call   c010e548 <heap_init>
c010c38c:	83 c4 10             	add    $0x10,%esp
c010c38f:	8b 83 d4 29 01 00    	mov    0x129d4(%ebx),%eax
c010c395:	83 ec 0c             	sub    $0xc,%esp
c010c398:	50                   	push   %eax
c010c399:	e8 74 fc ff ff       	call   c010c012 <slab_alloc_init>
c010c39e:	83 c4 10             	add    $0x10,%esp
c010c3a1:	83 ec 0c             	sub    $0xc,%esp
c010c3a4:	ff 75 08             	push   0x8(%ebp)
c010c3a7:	e8 ed 1a 00 00       	call   c010de99 <buddy_alloc_init>
c010c3ac:	83 c4 10             	add    $0x10,%esp
c010c3af:	89 45 f4             	mov    %eax,-0xc(%ebp)
c010c3b2:	83 7d f4 00          	cmpl   $0x0,-0xc(%ebp)
c010c3b6:	74 1e                	je     c010c3d6 <paging_init+0xd8>
c010c3b8:	8b 45 f4             	mov    -0xc(%ebp),%eax
c010c3bb:	89 45 f0             	mov    %eax,-0x10(%ebp)
c010c3be:	83 ec 04             	sub    $0x4,%esp
c010c3c1:	ff 75 f0             	push   -0x10(%ebp)
c010c3c4:	ff 75 ec             	push   -0x14(%ebp)
c010c3c7:	8d 83 7c ce ff ff    	lea    -0x3184(%ebx),%eax
c010c3cd:	50                   	push   %eax
c010c3ce:	e8 ec c1 ff ff       	call   c01085bf <panic>
c010c3d3:	83 c4 10             	add    $0x10,%esp
c010c3d6:	8d 83 d4 b9 00 00    	lea    0xb9d4(%ebx),%eax
c010c3dc:	89 83 d8 99 00 00    	mov    %eax,0x99d8(%ebx)
c010c3e2:	8d 83 d4 a9 00 00    	lea    0xa9d4(%ebx),%eax
c010c3e8:	89 83 d4 99 00 00    	mov    %eax,0x99d4(%ebx)
c010c3ee:	83 ec 0c             	sub    $0xc,%esp
c010c3f1:	8d 83 d4 a9 00 00    	lea    0xa9d4(%ebx),%eax
c010c3f7:	50                   	push   %eax
c010c3f8:	e8 14 fd ff ff       	call   c010c111 <to_phys_addr>
c010c3fd:	83 c4 10             	add    $0x10,%esp
c010c400:	89 83 dc 99 00 00    	mov    %eax,0x99dc(%ebx)
c010c406:	e8 a9 fd ff ff       	call   c010c1b4 <page_tables_init>
c010c40b:	89 45 f4             	mov    %eax,-0xc(%ebp)
c010c40e:	8d 83 d4 99 00 00    	lea    0x99d4(%ebx),%eax
c010c414:	89 83 e0 99 00 00    	mov    %eax,0x99e0(%ebx)
c010c41a:	83 7d f4 00          	cmpl   $0x0,-0xc(%ebp)
c010c41e:	74 1e                	je     c010c43e <paging_init+0x140>
c010c420:	8b 45 f4             	mov    -0xc(%ebp),%eax
c010c423:	89 45 e8             	mov    %eax,-0x18(%ebp)
c010c426:	83 ec 04             	sub    $0x4,%esp
c010c429:	ff 75 e8             	push   -0x18(%ebp)
c010c42c:	ff 75 e4             	push   -0x1c(%ebp)
c010c42f:	8d 83 a4 ce ff ff    	lea    -0x315c(%ebx),%eax
c010c435:	50                   	push   %eax
c010c436:	e8 84 c1 ff ff       	call   c01085bf <panic>
c010c43b:	83 c4 10             	add    $0x10,%esp
c010c43e:	83 ec 0c             	sub    $0xc,%esp
c010c441:	8d 83 d2 ce ff ff    	lea    -0x312e(%ebx),%eax
c010c447:	50                   	push   %eax
c010c448:	e8 93 f3 ff ff       	call   c010b7e0 <klog>
c010c44d:	83 c4 10             	add    $0x10,%esp
c010c450:	90                   	nop
c010c451:	8b 5d fc             	mov    -0x4(%ebp),%ebx
c010c454:	c9                   	leave
c010c455:	c3                   	ret

c010c456 <alloc_pt>:
c010c456:	55                   	push   %ebp
c010c457:	89 e5                	mov    %esp,%ebp
c010c459:	53                   	push   %ebx
c010c45a:	83 ec 24             	sub    $0x24,%esp
c010c45d:	e8 db 25 00 00       	call   c010ea3d <__x86.get_pc_thunk.bx>
c010c462:	81 c3 ca 61 00 00    	add    $0x61ca,%ebx
c010c468:	8b 45 0c             	mov    0xc(%ebp),%eax
c010c46b:	66 89 45 e4          	mov    %ax,-0x1c(%ebp)
c010c46f:	c7 45 f4 00 00 00 00 	movl   $0x0,-0xc(%ebp)
c010c476:	83 ec 04             	sub    $0x4,%esp
c010c479:	8d 45 f4             	lea    -0xc(%ebp),%eax
c010c47c:	50                   	push   %eax
c010c47d:	68 00 10 00 00       	push   $0x1000
c010c482:	68 00 10 00 00       	push   $0x1000
c010c487:	e8 0e 23 00 00       	call   c010e79a <kmalloc_align_phys>
c010c48c:	83 c4 10             	add    $0x10,%esp
c010c48f:	8b 55 08             	mov    0x8(%ebp),%edx
c010c492:	89 02                	mov    %eax,(%edx)
c010c494:	8b 45 08             	mov    0x8(%ebp),%eax
c010c497:	8b 00                	mov    (%eax),%eax
c010c499:	83 ec 04             	sub    $0x4,%esp
c010c49c:	68 00 10 00 00       	push   $0x1000
c010c4a1:	6a 00                	push   $0x0
c010c4a3:	50                   	push   %eax
c010c4a4:	e8 fd f3 ff ff       	call   c010b8a6 <memset>
c010c4a9:	83 c4 10             	add    $0x10,%esp
c010c4ac:	0f b7 55 e4          	movzwl -0x1c(%ebp),%edx
c010c4b0:	8b 45 f4             	mov    -0xc(%ebp),%eax
c010c4b3:	09 d0                	or     %edx,%eax
c010c4b5:	8b 5d fc             	mov    -0x4(%ebp),%ebx
c010c4b8:	c9                   	leave
c010c4b9:	c3                   	ret

c010c4ba <map_alloc_pt>:
c010c4ba:	55                   	push   %ebp
c010c4bb:	89 e5                	mov    %esp,%ebp
c010c4bd:	53                   	push   %ebx
c010c4be:	83 ec 14             	sub    $0x14,%esp
c010c4c1:	e8 73 25 00 00       	call   c010ea39 <__x86.get_pc_thunk.ax>
c010c4c6:	05 66 61 00 00       	add    $0x6166,%eax
c010c4cb:	8b 45 10             	mov    0x10(%ebp),%eax
c010c4ce:	66 89 45 f4          	mov    %ax,-0xc(%ebp)
c010c4d2:	83 7d 08 00          	cmpl   $0x0,0x8(%ebp)
c010c4d6:	75 07                	jne    c010c4df <map_alloc_pt+0x25>
c010c4d8:	b8 02 00 00 00       	mov    $0x2,%eax
c010c4dd:	eb 55                	jmp    c010c534 <map_alloc_pt+0x7a>
c010c4df:	8b 45 08             	mov    0x8(%ebp),%eax
c010c4e2:	8b 00                	mov    (%eax),%eax
c010c4e4:	0f b7 55 f4          	movzwl -0xc(%ebp),%edx
c010c4e8:	c1 e2 02             	shl    $0x2,%edx
c010c4eb:	8d 1c 10             	lea    (%eax,%edx,1),%ebx
c010c4ee:	83 ec 08             	sub    $0x8,%esp
c010c4f1:	6a 03                	push   $0x3
c010c4f3:	ff 75 0c             	push   0xc(%ebp)
c010c4f6:	e8 5b ff ff ff       	call   c010c456 <alloc_pt>
c010c4fb:	83 c4 10             	add    $0x10,%esp
c010c4fe:	89 03                	mov    %eax,(%ebx)
c010c500:	8b 45 08             	mov    0x8(%ebp),%eax
c010c503:	8b 00                	mov    (%eax),%eax
c010c505:	0f b7 55 f4          	movzwl -0xc(%ebp),%edx
c010c509:	c1 e2 02             	shl    $0x2,%edx
c010c50c:	01 d0                	add    %edx,%eax
c010c50e:	8b 00                	mov    (%eax),%eax
c010c510:	85 c0                	test   %eax,%eax
c010c512:	75 07                	jne    c010c51b <map_alloc_pt+0x61>
c010c514:	b8 03 00 00 00       	mov    $0x3,%eax
c010c519:	eb 19                	jmp    c010c534 <map_alloc_pt+0x7a>
c010c51b:	8b 45 08             	mov    0x8(%ebp),%eax
c010c51e:	8b 40 04             	mov    0x4(%eax),%eax
c010c521:	0f b7 55 f4          	movzwl -0xc(%ebp),%edx
c010c525:	c1 e2 02             	shl    $0x2,%edx
c010c528:	01 c2                	add    %eax,%edx
c010c52a:	8b 45 0c             	mov    0xc(%ebp),%eax
c010c52d:	89 02                	mov    %eax,(%edx)
c010c52f:	b8 00 00 00 00       	mov    $0x0,%eax
c010c534:	8b 5d fc             	mov    -0x4(%ebp),%ebx
c010c537:	c9                   	leave
c010c538:	c3                   	ret

c010c539 <tab_present>:
c010c539:	55                   	push   %ebp
c010c53a:	89 e5                	mov    %esp,%ebp
c010c53c:	e8 f8 24 00 00       	call   c010ea39 <__x86.get_pc_thunk.ax>
c010c541:	05 eb 60 00 00       	add    $0x60eb,%eax
c010c546:	8b 45 08             	mov    0x8(%ebp),%eax
c010c549:	83 e0 01             	and    $0x1,%eax
c010c54c:	5d                   	pop    %ebp
c010c54d:	c3                   	ret

c010c54e <get_tab_flags>:
c010c54e:	55                   	push   %ebp
c010c54f:	89 e5                	mov    %esp,%ebp
c010c551:	e8 e3 24 00 00       	call   c010ea39 <__x86.get_pc_thunk.ax>
c010c556:	05 d6 60 00 00       	add    $0x60d6,%eax
c010c55b:	8b 45 08             	mov    0x8(%ebp),%eax
c010c55e:	66 25 ff 0f          	and    $0xfff,%ax
c010c562:	5d                   	pop    %ebp
c010c563:	c3                   	ret

c010c564 <get_tab_pure_addr>:
c010c564:	55                   	push   %ebp
c010c565:	89 e5                	mov    %esp,%ebp
c010c567:	e8 cd 24 00 00       	call   c010ea39 <__x86.get_pc_thunk.ax>
c010c56c:	05 c0 60 00 00       	add    $0x60c0,%eax
c010c571:	8b 45 08             	mov    0x8(%ebp),%eax
c010c574:	25 00 f0 ff ff       	and    $0xfffff000,%eax
c010c579:	5d                   	pop    %ebp
c010c57a:	c3                   	ret

c010c57b <clone_page_table>:
c010c57b:	55                   	push   %ebp
c010c57c:	89 e5                	mov    %esp,%ebp
c010c57e:	53                   	push   %ebx
c010c57f:	83 ec 24             	sub    $0x24,%esp
c010c582:	e8 b6 24 00 00       	call   c010ea3d <__x86.get_pc_thunk.bx>
c010c587:	81 c3 a5 60 00 00    	add    $0x60a5,%ebx
c010c58d:	83 7d 10 00          	cmpl   $0x0,0x10(%ebp)
c010c591:	74 06                	je     c010c599 <clone_page_table+0x1e>
c010c593:	83 7d 0c 00          	cmpl   $0x0,0xc(%ebp)
c010c597:	75 0a                	jne    c010c5a3 <clone_page_table+0x28>
c010c599:	b8 02 00 00 00       	mov    $0x2,%eax
c010c59e:	e9 82 01 00 00       	jmp    c010c725 <clone_page_table+0x1aa>
c010c5a3:	83 ec 04             	sub    $0x4,%esp
c010c5a6:	ff 75 10             	push   0x10(%ebp)
c010c5a9:	68 00 10 00 00       	push   $0x1000
c010c5ae:	68 00 10 00 00       	push   $0x1000
c010c5b3:	e8 e2 21 00 00       	call   c010e79a <kmalloc_align_phys>
c010c5b8:	83 c4 10             	add    $0x10,%esp
c010c5bb:	8b 55 0c             	mov    0xc(%ebp),%edx
c010c5be:	89 02                	mov    %eax,(%edx)
c010c5c0:	8b 45 0c             	mov    0xc(%ebp),%eax
c010c5c3:	8b 00                	mov    (%eax),%eax
c010c5c5:	89 45 f0             	mov    %eax,-0x10(%ebp)
c010c5c8:	83 7d f0 00          	cmpl   $0x0,-0x10(%ebp)
c010c5cc:	75 0a                	jne    c010c5d8 <clone_page_table+0x5d>
c010c5ce:	b8 02 00 00 00       	mov    $0x2,%eax
c010c5d3:	e9 4d 01 00 00       	jmp    c010c725 <clone_page_table+0x1aa>
c010c5d8:	c7 45 f4 00 00 00 00 	movl   $0x0,-0xc(%ebp)
c010c5df:	e9 2f 01 00 00       	jmp    c010c713 <clone_page_table+0x198>
c010c5e4:	8b 45 f4             	mov    -0xc(%ebp),%eax
c010c5e7:	8d 14 85 00 00 00 00 	lea    0x0(,%eax,4),%edx
c010c5ee:	8b 45 f0             	mov    -0x10(%ebp),%eax
c010c5f1:	01 d0                	add    %edx,%eax
c010c5f3:	8b 00                	mov    (%eax),%eax
c010c5f5:	83 ec 0c             	sub    $0xc,%esp
c010c5f8:	50                   	push   %eax
c010c5f9:	e8 50 ff ff ff       	call   c010c54e <get_tab_flags>
c010c5fe:	83 c4 10             	add    $0x10,%esp
c010c601:	66 89 45 ee          	mov    %ax,-0x12(%ebp)
c010c605:	8b 45 f4             	mov    -0xc(%ebp),%eax
c010c608:	8d 14 85 00 00 00 00 	lea    0x0(,%eax,4),%edx
c010c60f:	8b 45 08             	mov    0x8(%ebp),%eax
c010c612:	01 d0                	add    %edx,%eax
c010c614:	8b 00                	mov    (%eax),%eax
c010c616:	83 e0 04             	and    $0x4,%eax
c010c619:	85 c0                	test   %eax,%eax
c010c61b:	0f 84 cc 00 00 00    	je     c010c6ed <clone_page_table+0x172>
c010c621:	8b 45 f4             	mov    -0xc(%ebp),%eax
c010c624:	8d 14 85 00 00 00 00 	lea    0x0(,%eax,4),%edx
c010c62b:	8b 45 08             	mov    0x8(%ebp),%eax
c010c62e:	01 d0                	add    %edx,%eax
c010c630:	8b 00                	mov    (%eax),%eax
c010c632:	83 e0 01             	and    $0x1,%eax
c010c635:	85 c0                	test   %eax,%eax
c010c637:	0f 84 b0 00 00 00    	je     c010c6ed <clone_page_table+0x172>
c010c63d:	0f b7 45 ee          	movzwl -0x12(%ebp),%eax
c010c641:	8b 55 f4             	mov    -0xc(%ebp),%edx
c010c644:	8d 0c 95 00 00 00 00 	lea    0x0(,%edx,4),%ecx
c010c64b:	8b 55 f0             	mov    -0x10(%ebp),%edx
c010c64e:	01 ca                	add    %ecx,%edx
c010c650:	83 ec 08             	sub    $0x8,%esp
c010c653:	50                   	push   %eax
c010c654:	52                   	push   %edx
c010c655:	e8 fe 0a 00 00       	call   c010d158 <find_alloc_frame>
c010c65a:	83 c4 10             	add    $0x10,%esp
c010c65d:	85 c0                	test   %eax,%eax
c010c65f:	74 1c                	je     c010c67d <clone_page_table+0x102>
c010c661:	83 ec 0c             	sub    $0xc,%esp
c010c664:	8d 83 e2 ce ff ff    	lea    -0x311e(%ebx),%eax
c010c66a:	50                   	push   %eax
c010c66b:	e8 70 f1 ff ff       	call   c010b7e0 <klog>
c010c670:	83 c4 10             	add    $0x10,%esp
c010c673:	b8 03 00 00 00       	mov    $0x3,%eax
c010c678:	e9 a8 00 00 00       	jmp    c010c725 <clone_page_table+0x1aa>
c010c67d:	8b 45 f4             	mov    -0xc(%ebp),%eax
c010c680:	8d 14 85 00 00 00 00 	lea    0x0(,%eax,4),%edx
c010c687:	8b 45 08             	mov    0x8(%ebp),%eax
c010c68a:	01 d0                	add    %edx,%eax
c010c68c:	8b 00                	mov    (%eax),%eax
c010c68e:	83 ec 0c             	sub    $0xc,%esp
c010c691:	50                   	push   %eax
c010c692:	e8 cd fe ff ff       	call   c010c564 <get_tab_pure_addr>
c010c697:	83 c4 10             	add    $0x10,%esp
c010c69a:	89 45 e8             	mov    %eax,-0x18(%ebp)
c010c69d:	8b 45 f4             	mov    -0xc(%ebp),%eax
c010c6a0:	8d 14 85 00 00 00 00 	lea    0x0(,%eax,4),%edx
c010c6a7:	8b 45 f0             	mov    -0x10(%ebp),%eax
c010c6aa:	01 d0                	add    %edx,%eax
c010c6ac:	8b 00                	mov    (%eax),%eax
c010c6ae:	83 ec 0c             	sub    $0xc,%esp
c010c6b1:	50                   	push   %eax
c010c6b2:	e8 ad fe ff ff       	call   c010c564 <get_tab_pure_addr>
c010c6b7:	83 c4 10             	add    $0x10,%esp
c010c6ba:	89 45 e4             	mov    %eax,-0x1c(%ebp)
c010c6bd:	8b 45 f4             	mov    -0xc(%ebp),%eax
c010c6c0:	8d 14 85 00 00 00 00 	lea    0x0(,%eax,4),%edx
c010c6c7:	8b 45 08             	mov    0x8(%ebp),%eax
c010c6ca:	01 d0                	add    %edx,%eax
c010c6cc:	8b 00                	mov    (%eax),%eax
c010c6ce:	83 ec 0c             	sub    $0xc,%esp
c010c6d1:	50                   	push   %eax
c010c6d2:	e8 cd de ff ff       	call   c010a5a4 <fb_print_hex>
c010c6d7:	83 c4 10             	add    $0x10,%esp
c010c6da:	83 ec 08             	sub    $0x8,%esp
c010c6dd:	ff 75 e4             	push   -0x1c(%ebp)
c010c6e0:	ff 75 e8             	push   -0x18(%ebp)
c010c6e3:	e8 aa ab ff ff       	call   c0107292 <copy_page_data>
c010c6e8:	83 c4 10             	add    $0x10,%esp
c010c6eb:	eb 22                	jmp    c010c70f <clone_page_table+0x194>
c010c6ed:	8b 45 f4             	mov    -0xc(%ebp),%eax
c010c6f0:	8d 14 85 00 00 00 00 	lea    0x0(,%eax,4),%edx
c010c6f7:	8b 45 08             	mov    0x8(%ebp),%eax
c010c6fa:	01 d0                	add    %edx,%eax
c010c6fc:	8b 55 f4             	mov    -0xc(%ebp),%edx
c010c6ff:	8d 0c 95 00 00 00 00 	lea    0x0(,%edx,4),%ecx
c010c706:	8b 55 f0             	mov    -0x10(%ebp),%edx
c010c709:	01 ca                	add    %ecx,%edx
c010c70b:	8b 00                	mov    (%eax),%eax
c010c70d:	89 02                	mov    %eax,(%edx)
c010c70f:	83 45 f4 01          	addl   $0x1,-0xc(%ebp)
c010c713:	81 7d f4 ff 03 00 00 	cmpl   $0x3ff,-0xc(%ebp)
c010c71a:	0f 86 c4 fe ff ff    	jbe    c010c5e4 <clone_page_table+0x69>
c010c720:	b8 00 00 00 00       	mov    $0x0,%eax
c010c725:	8b 5d fc             	mov    -0x4(%ebp),%ebx
c010c728:	c9                   	leave
c010c729:	c3                   	ret

c010c72a <clone_page_dir>:
c010c72a:	55                   	push   %ebp
c010c72b:	89 e5                	mov    %esp,%ebp
c010c72d:	53                   	push   %ebx
c010c72e:	83 ec 24             	sub    $0x24,%esp
c010c731:	e8 07 23 00 00       	call   c010ea3d <__x86.get_pc_thunk.bx>
c010c736:	81 c3 f6 5e 00 00    	add    $0x5ef6,%ebx
c010c73c:	83 7d 0c 00          	cmpl   $0x0,0xc(%ebp)
c010c740:	75 0a                	jne    c010c74c <clone_page_dir+0x22>
c010c742:	b8 02 00 00 00       	mov    $0x2,%eax
c010c747:	e9 46 01 00 00       	jmp    c010c892 <clone_page_dir+0x168>
c010c74c:	83 ec 04             	sub    $0x4,%esp
c010c74f:	8d 45 e8             	lea    -0x18(%ebp),%eax
c010c752:	50                   	push   %eax
c010c753:	68 00 10 00 00       	push   $0x1000
c010c758:	68 00 10 00 00       	push   $0x1000
c010c75d:	e8 38 20 00 00       	call   c010e79a <kmalloc_align_phys>
c010c762:	83 c4 10             	add    $0x10,%esp
c010c765:	8b 55 0c             	mov    0xc(%ebp),%edx
c010c768:	89 02                	mov    %eax,(%edx)
c010c76a:	83 ec 0c             	sub    $0xc,%esp
c010c76d:	68 00 10 00 00       	push   $0x1000
c010c772:	e8 fd 1f 00 00       	call   c010e774 <kmalloc>
c010c777:	83 c4 10             	add    $0x10,%esp
c010c77a:	8b 55 0c             	mov    0xc(%ebp),%edx
c010c77d:	89 42 04             	mov    %eax,0x4(%edx)
c010c780:	8b 45 0c             	mov    0xc(%ebp),%eax
c010c783:	8b 00                	mov    (%eax),%eax
c010c785:	85 c0                	test   %eax,%eax
c010c787:	74 0a                	je     c010c793 <clone_page_dir+0x69>
c010c789:	8b 45 0c             	mov    0xc(%ebp),%eax
c010c78c:	8b 40 04             	mov    0x4(%eax),%eax
c010c78f:	85 c0                	test   %eax,%eax
c010c791:	75 0a                	jne    c010c79d <clone_page_dir+0x73>
c010c793:	b8 03 00 00 00       	mov    $0x3,%eax
c010c798:	e9 f5 00 00 00       	jmp    c010c892 <clone_page_dir+0x168>
c010c79d:	8b 55 e8             	mov    -0x18(%ebp),%edx
c010c7a0:	8b 45 0c             	mov    0xc(%ebp),%eax
c010c7a3:	89 50 08             	mov    %edx,0x8(%eax)
c010c7a6:	c7 45 f4 00 00 00 00 	movl   $0x0,-0xc(%ebp)
c010c7ad:	e9 ce 00 00 00       	jmp    c010c880 <clone_page_dir+0x156>
c010c7b2:	8b 45 08             	mov    0x8(%ebp),%eax
c010c7b5:	8b 00                	mov    (%eax),%eax
c010c7b7:	8b 55 f4             	mov    -0xc(%ebp),%edx
c010c7ba:	c1 e2 02             	shl    $0x2,%edx
c010c7bd:	01 d0                	add    %edx,%eax
c010c7bf:	8b 00                	mov    (%eax),%eax
c010c7c1:	83 e0 04             	and    $0x4,%eax
c010c7c4:	85 c0                	test   %eax,%eax
c010c7c6:	74 74                	je     c010c83c <clone_page_dir+0x112>
c010c7c8:	8b 45 08             	mov    0x8(%ebp),%eax
c010c7cb:	8b 00                	mov    (%eax),%eax
c010c7cd:	8b 55 f4             	mov    -0xc(%ebp),%edx
c010c7d0:	c1 e2 02             	shl    $0x2,%edx
c010c7d3:	01 d0                	add    %edx,%eax
c010c7d5:	8b 00                	mov    (%eax),%eax
c010c7d7:	83 e0 01             	and    $0x1,%eax
c010c7da:	85 c0                	test   %eax,%eax
c010c7dc:	74 5e                	je     c010c83c <clone_page_dir+0x112>
c010c7de:	8b 45 08             	mov    0x8(%ebp),%eax
c010c7e1:	8b 40 04             	mov    0x4(%eax),%eax
c010c7e4:	8b 55 f4             	mov    -0xc(%ebp),%edx
c010c7e7:	c1 e2 02             	shl    $0x2,%edx
c010c7ea:	01 d0                	add    %edx,%eax
c010c7ec:	8b 00                	mov    (%eax),%eax
c010c7ee:	89 45 f0             	mov    %eax,-0x10(%ebp)
c010c7f1:	83 ec 04             	sub    $0x4,%esp
c010c7f4:	8d 45 e0             	lea    -0x20(%ebp),%eax
c010c7f7:	50                   	push   %eax
c010c7f8:	8d 45 e4             	lea    -0x1c(%ebp),%eax
c010c7fb:	50                   	push   %eax
c010c7fc:	ff 75 f0             	push   -0x10(%ebp)
c010c7ff:	e8 77 fd ff ff       	call   c010c57b <clone_page_table>
c010c804:	83 c4 10             	add    $0x10,%esp
c010c807:	89 45 ec             	mov    %eax,-0x14(%ebp)
c010c80a:	83 7d ec 00          	cmpl   $0x0,-0x14(%ebp)
c010c80e:	74 05                	je     c010c815 <clone_page_dir+0xeb>
c010c810:	8b 45 ec             	mov    -0x14(%ebp),%eax
c010c813:	eb 7d                	jmp    c010c892 <clone_page_dir+0x168>
c010c815:	8b 45 0c             	mov    0xc(%ebp),%eax
c010c818:	8b 00                	mov    (%eax),%eax
c010c81a:	8b 55 f4             	mov    -0xc(%ebp),%edx
c010c81d:	c1 e2 02             	shl    $0x2,%edx
c010c820:	01 c2                	add    %eax,%edx
c010c822:	8b 45 e0             	mov    -0x20(%ebp),%eax
c010c825:	89 02                	mov    %eax,(%edx)
c010c827:	8b 55 e4             	mov    -0x1c(%ebp),%edx
c010c82a:	8b 45 0c             	mov    0xc(%ebp),%eax
c010c82d:	8b 40 04             	mov    0x4(%eax),%eax
c010c830:	8b 4d f4             	mov    -0xc(%ebp),%ecx
c010c833:	c1 e1 02             	shl    $0x2,%ecx
c010c836:	01 c8                	add    %ecx,%eax
c010c838:	89 10                	mov    %edx,(%eax)
c010c83a:	eb 40                	jmp    c010c87c <clone_page_dir+0x152>
c010c83c:	8b 45 08             	mov    0x8(%ebp),%eax
c010c83f:	8b 40 04             	mov    0x4(%eax),%eax
c010c842:	8b 55 f4             	mov    -0xc(%ebp),%edx
c010c845:	c1 e2 02             	shl    $0x2,%edx
c010c848:	8d 0c 10             	lea    (%eax,%edx,1),%ecx
c010c84b:	8b 45 0c             	mov    0xc(%ebp),%eax
c010c84e:	8b 40 04             	mov    0x4(%eax),%eax
c010c851:	8b 55 f4             	mov    -0xc(%ebp),%edx
c010c854:	c1 e2 02             	shl    $0x2,%edx
c010c857:	01 c2                	add    %eax,%edx
c010c859:	8b 01                	mov    (%ecx),%eax
c010c85b:	89 02                	mov    %eax,(%edx)
c010c85d:	8b 45 08             	mov    0x8(%ebp),%eax
c010c860:	8b 00                	mov    (%eax),%eax
c010c862:	8b 55 f4             	mov    -0xc(%ebp),%edx
c010c865:	c1 e2 02             	shl    $0x2,%edx
c010c868:	8d 0c 10             	lea    (%eax,%edx,1),%ecx
c010c86b:	8b 45 0c             	mov    0xc(%ebp),%eax
c010c86e:	8b 00                	mov    (%eax),%eax
c010c870:	8b 55 f4             	mov    -0xc(%ebp),%edx
c010c873:	c1 e2 02             	shl    $0x2,%edx
c010c876:	01 c2                	add    %eax,%edx
c010c878:	8b 01                	mov    (%ecx),%eax
c010c87a:	89 02                	mov    %eax,(%edx)
c010c87c:	83 45 f4 01          	addl   $0x1,-0xc(%ebp)
c010c880:	81 7d f4 ff 03 00 00 	cmpl   $0x3ff,-0xc(%ebp)
c010c887:	0f 86 25 ff ff ff    	jbe    c010c7b2 <clone_page_dir+0x88>
c010c88d:	b8 00 00 00 00       	mov    $0x0,%eax
c010c892:	8b 5d fc             	mov    -0x4(%ebp),%ebx
c010c895:	c9                   	leave
c010c896:	c3                   	ret

c010c897 <clone_cur_page_dir>:
c010c897:	55                   	push   %ebp
c010c898:	89 e5                	mov    %esp,%ebp
c010c89a:	83 ec 08             	sub    $0x8,%esp
c010c89d:	e8 97 21 00 00       	call   c010ea39 <__x86.get_pc_thunk.ax>
c010c8a2:	05 8a 5d 00 00       	add    $0x5d8a,%eax
c010c8a7:	8b 80 e0 99 00 00    	mov    0x99e0(%eax),%eax
c010c8ad:	83 ec 08             	sub    $0x8,%esp
c010c8b0:	ff 75 08             	push   0x8(%ebp)
c010c8b3:	50                   	push   %eax
c010c8b4:	e8 71 fe ff ff       	call   c010c72a <clone_page_dir>
c010c8b9:	83 c4 10             	add    $0x10,%esp
c010c8bc:	c9                   	leave
c010c8bd:	c3                   	ret

c010c8be <switch_page_dir>:
c010c8be:	55                   	push   %ebp
c010c8bf:	89 e5                	mov    %esp,%ebp
c010c8c1:	53                   	push   %ebx
c010c8c2:	83 ec 04             	sub    $0x4,%esp
c010c8c5:	e8 73 21 00 00       	call   c010ea3d <__x86.get_pc_thunk.bx>
c010c8ca:	81 c3 62 5d 00 00    	add    $0x5d62,%ebx
c010c8d0:	8b 45 08             	mov    0x8(%ebp),%eax
c010c8d3:	8b 40 08             	mov    0x8(%eax),%eax
c010c8d6:	83 ec 0c             	sub    $0xc,%esp
c010c8d9:	50                   	push   %eax
c010c8da:	e8 c5 dc ff ff       	call   c010a5a4 <fb_print_hex>
c010c8df:	83 c4 10             	add    $0x10,%esp
c010c8e2:	8b 45 08             	mov    0x8(%ebp),%eax
c010c8e5:	89 83 e0 99 00 00    	mov    %eax,0x99e0(%ebx)
c010c8eb:	8b 45 08             	mov    0x8(%ebp),%eax
c010c8ee:	8b 40 08             	mov    0x8(%eax),%eax
c010c8f1:	83 ec 0c             	sub    $0xc,%esp
c010c8f4:	50                   	push   %eax
c010c8f5:	e8 f4 a9 ff ff       	call   c01072ee <switch_page_dir_asm>
c010c8fa:	83 c4 10             	add    $0x10,%esp
c010c8fd:	b8 00 00 00 00       	mov    $0x0,%eax
c010c902:	8b 5d fc             	mov    -0x4(%ebp),%ebx
c010c905:	c9                   	leave
c010c906:	c3                   	ret

c010c907 <get_pd_page>:
c010c907:	55                   	push   %ebp
c010c908:	89 e5                	mov    %esp,%ebp
c010c90a:	83 ec 08             	sub    $0x8,%esp
c010c90d:	e8 27 21 00 00       	call   c010ea39 <__x86.get_pc_thunk.ax>
c010c912:	05 1a 5d 00 00       	add    $0x5d1a,%eax
c010c917:	8b 55 0c             	mov    0xc(%ebp),%edx
c010c91a:	8b 45 10             	mov    0x10(%ebp),%eax
c010c91d:	66 89 55 fc          	mov    %dx,-0x4(%ebp)
c010c921:	66 89 45 f8          	mov    %ax,-0x8(%ebp)
c010c925:	0f b7 45 f8          	movzwl -0x8(%ebp),%eax
c010c929:	8d 0c 85 00 00 00 00 	lea    0x0(,%eax,4),%ecx
c010c930:	8b 45 08             	mov    0x8(%ebp),%eax
c010c933:	8b 40 04             	mov    0x4(%eax),%eax
c010c936:	0f b7 55 fc          	movzwl -0x4(%ebp),%edx
c010c93a:	c1 e2 02             	shl    $0x2,%edx
c010c93d:	01 d0                	add    %edx,%eax
c010c93f:	8b 00                	mov    (%eax),%eax
c010c941:	01 c8                	add    %ecx,%eax
c010c943:	c9                   	leave
c010c944:	c3                   	ret

c010c945 <pt_present>:
c010c945:	55                   	push   %ebp
c010c946:	89 e5                	mov    %esp,%ebp
c010c948:	83 ec 04             	sub    $0x4,%esp
c010c94b:	e8 e9 20 00 00       	call   c010ea39 <__x86.get_pc_thunk.ax>
c010c950:	05 dc 5c 00 00       	add    $0x5cdc,%eax
c010c955:	8b 45 0c             	mov    0xc(%ebp),%eax
c010c958:	66 89 45 fc          	mov    %ax,-0x4(%ebp)
c010c95c:	8b 45 08             	mov    0x8(%ebp),%eax
c010c95f:	8b 00                	mov    (%eax),%eax
c010c961:	0f b7 55 fc          	movzwl -0x4(%ebp),%edx
c010c965:	c1 e2 02             	shl    $0x2,%edx
c010c968:	01 d0                	add    %edx,%eax
c010c96a:	8b 00                	mov    (%eax),%eax
c010c96c:	50                   	push   %eax
c010c96d:	e8 c7 fb ff ff       	call   c010c539 <tab_present>
c010c972:	83 c4 04             	add    $0x4,%esp
c010c975:	c9                   	leave
c010c976:	c3                   	ret

c010c977 <page_present>:
c010c977:	55                   	push   %ebp
c010c978:	89 e5                	mov    %esp,%ebp
c010c97a:	83 ec 08             	sub    $0x8,%esp
c010c97d:	e8 b7 20 00 00       	call   c010ea39 <__x86.get_pc_thunk.ax>
c010c982:	05 aa 5c 00 00       	add    $0x5caa,%eax
c010c987:	8b 55 0c             	mov    0xc(%ebp),%edx
c010c98a:	8b 45 10             	mov    0x10(%ebp),%eax
c010c98d:	66 89 55 fc          	mov    %dx,-0x4(%ebp)
c010c991:	66 89 45 f8          	mov    %ax,-0x8(%ebp)
c010c995:	0f b7 55 f8          	movzwl -0x8(%ebp),%edx
c010c999:	0f b7 45 fc          	movzwl -0x4(%ebp),%eax
c010c99d:	52                   	push   %edx
c010c99e:	50                   	push   %eax
c010c99f:	ff 75 08             	push   0x8(%ebp)
c010c9a2:	e8 60 ff ff ff       	call   c010c907 <get_pd_page>
c010c9a7:	83 c4 0c             	add    $0xc,%esp
c010c9aa:	8b 00                	mov    (%eax),%eax
c010c9ac:	50                   	push   %eax
c010c9ad:	e8 87 fb ff ff       	call   c010c539 <tab_present>
c010c9b2:	83 c4 04             	add    $0x4,%esp
c010c9b5:	c9                   	leave
c010c9b6:	c3                   	ret

c010c9b7 <get_pde_pte>:
c010c9b7:	55                   	push   %ebp
c010c9b8:	89 e5                	mov    %esp,%ebp
c010c9ba:	e8 7a 20 00 00       	call   c010ea39 <__x86.get_pc_thunk.ax>
c010c9bf:	05 6d 5c 00 00       	add    $0x5c6d,%eax
c010c9c4:	83 7d 0c 00          	cmpl   $0x0,0xc(%ebp)
c010c9c8:	74 06                	je     c010c9d0 <get_pde_pte+0x19>
c010c9ca:	83 7d 10 00          	cmpl   $0x0,0x10(%ebp)
c010c9ce:	75 07                	jne    c010c9d7 <get_pde_pte+0x20>
c010c9d0:	b8 01 00 00 00       	mov    $0x1,%eax
c010c9d5:	eb 25                	jmp    c010c9fc <get_pde_pte+0x45>
c010c9d7:	8b 45 08             	mov    0x8(%ebp),%eax
c010c9da:	c1 e8 16             	shr    $0x16,%eax
c010c9dd:	89 c2                	mov    %eax,%edx
c010c9df:	8b 45 0c             	mov    0xc(%ebp),%eax
c010c9e2:	66 89 10             	mov    %dx,(%eax)
c010c9e5:	8b 45 08             	mov    0x8(%ebp),%eax
c010c9e8:	c1 e8 0c             	shr    $0xc,%eax
c010c9eb:	66 25 ff 03          	and    $0x3ff,%ax
c010c9ef:	89 c2                	mov    %eax,%edx
c010c9f1:	8b 45 10             	mov    0x10(%ebp),%eax
c010c9f4:	66 89 10             	mov    %dx,(%eax)
c010c9f7:	b8 00 00 00 00       	mov    $0x0,%eax
c010c9fc:	5d                   	pop    %ebp
c010c9fd:	c3                   	ret

c010c9fe <non_present_page_hanler>:
c010c9fe:	55                   	push   %ebp
c010c9ff:	89 e5                	mov    %esp,%ebp
c010ca01:	53                   	push   %ebx
c010ca02:	83 ec 24             	sub    $0x24,%esp
c010ca05:	e8 33 20 00 00       	call   c010ea3d <__x86.get_pc_thunk.bx>
c010ca0a:	81 c3 22 5c 00 00    	add    $0x5c22,%ebx
c010ca10:	8b 55 08             	mov    0x8(%ebp),%edx
c010ca13:	8b 45 0c             	mov    0xc(%ebp),%eax
c010ca16:	66 89 55 e4          	mov    %dx,-0x1c(%ebp)
c010ca1a:	66 89 45 e0          	mov    %ax,-0x20(%ebp)
c010ca1e:	0f b7 55 e4          	movzwl -0x1c(%ebp),%edx
c010ca22:	8b 83 e0 99 00 00    	mov    0x99e0(%ebx),%eax
c010ca28:	52                   	push   %edx
c010ca29:	50                   	push   %eax
c010ca2a:	e8 16 ff ff ff       	call   c010c945 <pt_present>
c010ca2f:	83 c4 08             	add    $0x8,%esp
c010ca32:	85 c0                	test   %eax,%eax
c010ca34:	75 77                	jne    c010caad <non_present_page_hanler+0xaf>
c010ca36:	0f b7 55 e4          	movzwl -0x1c(%ebp),%edx
c010ca3a:	8b 83 e0 99 00 00    	mov    0x99e0(%ebx),%eax
c010ca40:	83 ec 04             	sub    $0x4,%esp
c010ca43:	52                   	push   %edx
c010ca44:	8d 55 ec             	lea    -0x14(%ebp),%edx
c010ca47:	52                   	push   %edx
c010ca48:	50                   	push   %eax
c010ca49:	e8 6c fa ff ff       	call   c010c4ba <map_alloc_pt>
c010ca4e:	83 c4 10             	add    $0x10,%esp
c010ca51:	89 45 f0             	mov    %eax,-0x10(%ebp)
c010ca54:	83 7d f0 00          	cmpl   $0x0,-0x10(%ebp)
c010ca58:	74 08                	je     c010ca62 <non_present_page_hanler+0x64>
c010ca5a:	8b 45 f0             	mov    -0x10(%ebp),%eax
c010ca5d:	e9 9f 00 00 00       	jmp    c010cb01 <non_present_page_hanler+0x103>
c010ca62:	8b 45 ec             	mov    -0x14(%ebp),%eax
c010ca65:	0f b7 55 e0          	movzwl -0x20(%ebp),%edx
c010ca69:	c1 e2 02             	shl    $0x2,%edx
c010ca6c:	01 d0                	add    %edx,%eax
c010ca6e:	83 ec 08             	sub    $0x8,%esp
c010ca71:	6a 07                	push   $0x7
c010ca73:	50                   	push   %eax
c010ca74:	e8 03 12 00 00       	call   c010dc7c <buddy_alloc_frame>
c010ca79:	83 c4 10             	add    $0x10,%esp
c010ca7c:	89 45 f0             	mov    %eax,-0x10(%ebp)
c010ca7f:	83 7d f0 00          	cmpl   $0x0,-0x10(%ebp)
c010ca83:	74 05                	je     c010ca8a <non_present_page_hanler+0x8c>
c010ca85:	8b 45 f0             	mov    -0x10(%ebp),%eax
c010ca88:	eb 77                	jmp    c010cb01 <non_present_page_hanler+0x103>
c010ca8a:	0f b7 55 e0          	movzwl -0x20(%ebp),%edx
c010ca8e:	0f b7 45 e4          	movzwl -0x1c(%ebp),%eax
c010ca92:	83 ec 08             	sub    $0x8,%esp
c010ca95:	52                   	push   %edx
c010ca96:	50                   	push   %eax
c010ca97:	e8 43 f6 ff ff       	call   c010c0df <get_ident_phys_page_addr>
c010ca9c:	83 c4 10             	add    $0x10,%esp
c010ca9f:	83 ec 0c             	sub    $0xc,%esp
c010caa2:	50                   	push   %eax
c010caa3:	e8 d1 a7 ff ff       	call   c0107279 <flush_page>
c010caa8:	83 c4 10             	add    $0x10,%esp
c010caab:	eb 4f                	jmp    c010cafc <non_present_page_hanler+0xfe>
c010caad:	0f b7 4d e0          	movzwl -0x20(%ebp),%ecx
c010cab1:	0f b7 55 e4          	movzwl -0x1c(%ebp),%edx
c010cab5:	8b 83 e0 99 00 00    	mov    0x99e0(%ebx),%eax
c010cabb:	83 ec 04             	sub    $0x4,%esp
c010cabe:	51                   	push   %ecx
c010cabf:	52                   	push   %edx
c010cac0:	50                   	push   %eax
c010cac1:	e8 b1 fe ff ff       	call   c010c977 <page_present>
c010cac6:	83 c4 10             	add    $0x10,%esp
c010cac9:	85 c0                	test   %eax,%eax
c010cacb:	75 2f                	jne    c010cafc <non_present_page_hanler+0xfe>
c010cacd:	0f b7 4d e0          	movzwl -0x20(%ebp),%ecx
c010cad1:	0f b7 55 e4          	movzwl -0x1c(%ebp),%edx
c010cad5:	8b 83 e0 99 00 00    	mov    0x99e0(%ebx),%eax
c010cadb:	83 ec 04             	sub    $0x4,%esp
c010cade:	51                   	push   %ecx
c010cadf:	52                   	push   %edx
c010cae0:	50                   	push   %eax
c010cae1:	e8 21 fe ff ff       	call   c010c907 <get_pd_page>
c010cae6:	83 c4 10             	add    $0x10,%esp
c010cae9:	89 45 f4             	mov    %eax,-0xc(%ebp)
c010caec:	83 ec 08             	sub    $0x8,%esp
c010caef:	6a 07                	push   $0x7
c010caf1:	ff 75 f4             	push   -0xc(%ebp)
c010caf4:	e8 83 11 00 00       	call   c010dc7c <buddy_alloc_frame>
c010caf9:	83 c4 10             	add    $0x10,%esp
c010cafc:	b8 01 00 00 00       	mov    $0x1,%eax
c010cb01:	8b 5d fc             	mov    -0x4(%ebp),%ebx
c010cb04:	c9                   	leave
c010cb05:	c3                   	ret

c010cb06 <page_fault>:
c010cb06:	55                   	push   %ebp
c010cb07:	89 e5                	mov    %esp,%ebp
c010cb09:	53                   	push   %ebx
c010cb0a:	83 ec 14             	sub    $0x14,%esp
c010cb0d:	e8 27 1f 00 00       	call   c010ea39 <__x86.get_pc_thunk.ax>
c010cb12:	05 1a 5b 00 00       	add    $0x5b1a,%eax
c010cb17:	0f 20 d2             	mov    %cr2,%edx
c010cb1a:	89 55 f4             	mov    %edx,-0xc(%ebp)
c010cb1d:	83 ec 08             	sub    $0x8,%esp
c010cb20:	ff 75 f4             	push   -0xc(%ebp)
c010cb23:	8d 90 f6 ce ff ff    	lea    -0x310a(%eax),%edx
c010cb29:	52                   	push   %edx
c010cb2a:	89 c3                	mov    %eax,%ebx
c010cb2c:	e8 af ec ff ff       	call   c010b7e0 <klog>
c010cb31:	83 c4 10             	add    $0x10,%esp
c010cb34:	8b 45 f4             	mov    -0xc(%ebp),%eax
c010cb37:	c1 e8 16             	shr    $0x16,%eax
c010cb3a:	66 89 45 f2          	mov    %ax,-0xe(%ebp)
c010cb3e:	8b 45 f4             	mov    -0xc(%ebp),%eax
c010cb41:	c1 e8 0c             	shr    $0xc,%eax
c010cb44:	66 25 ff 03          	and    $0x3ff,%ax
c010cb48:	66 89 45 f0          	mov    %ax,-0x10(%ebp)
c010cb4c:	8b 45 0c             	mov    0xc(%ebp),%eax
c010cb4f:	83 f8 01             	cmp    $0x1,%eax
c010cb52:	74 15                	je     c010cb69 <page_fault+0x63>
c010cb54:	0f b7 55 f0          	movzwl -0x10(%ebp),%edx
c010cb58:	0f b7 45 f2          	movzwl -0xe(%ebp),%eax
c010cb5c:	83 ec 08             	sub    $0x8,%esp
c010cb5f:	52                   	push   %edx
c010cb60:	50                   	push   %eax
c010cb61:	e8 98 fe ff ff       	call   c010c9fe <non_present_page_hanler>
c010cb66:	83 c4 10             	add    $0x10,%esp
c010cb69:	90                   	nop
c010cb6a:	8b 5d fc             	mov    -0x4(%ebp),%ebx
c010cb6d:	c9                   	leave
c010cb6e:	c3                   	ret

c010cb6f <fa_test>:
c010cb6f:	55                   	push   %ebp
c010cb70:	89 e5                	mov    %esp,%ebp
c010cb72:	53                   	push   %ebx
c010cb73:	83 ec 34             	sub    $0x34,%esp
c010cb76:	e8 c2 1e 00 00       	call   c010ea3d <__x86.get_pc_thunk.bx>
c010cb7b:	81 c3 b1 5a 00 00    	add    $0x5ab1,%ebx
c010cb81:	83 ec 04             	sub    $0x4,%esp
c010cb84:	6a 20                	push   $0x20
c010cb86:	6a 00                	push   $0x0
c010cb88:	8d 45 d4             	lea    -0x2c(%ebp),%eax
c010cb8b:	50                   	push   %eax
c010cb8c:	e8 15 ed ff ff       	call   c010b8a6 <memset>
c010cb91:	83 c4 10             	add    $0x10,%esp
c010cb94:	83 ec 0c             	sub    $0xc,%esp
c010cb97:	8d 83 0e cf ff ff    	lea    -0x30f2(%ebx),%eax
c010cb9d:	50                   	push   %eax
c010cb9e:	e8 3d ec ff ff       	call   c010b7e0 <klog>
c010cba3:	83 c4 10             	add    $0x10,%esp
c010cba6:	83 ec 0c             	sub    $0xc,%esp
c010cba9:	ff 75 08             	push   0x8(%ebp)
c010cbac:	e8 6d d8 ff ff       	call   c010a41e <fb_print_num>
c010cbb1:	83 c4 10             	add    $0x10,%esp
c010cbb4:	83 ec 04             	sub    $0x4,%esp
c010cbb7:	6a 03                	push   $0x3
c010cbb9:	8d 45 d4             	lea    -0x2c(%ebp),%eax
c010cbbc:	50                   	push   %eax
c010cbbd:	ff 75 08             	push   0x8(%ebp)
c010cbc0:	e8 d3 04 00 00       	call   c010d098 <find_alloc_nframes>
c010cbc5:	83 c4 10             	add    $0x10,%esp
c010cbc8:	85 c0                	test   %eax,%eax
c010cbca:	74 14                	je     c010cbe0 <fa_test+0x71>
c010cbcc:	83 ec 0c             	sub    $0xc,%esp
c010cbcf:	8d 83 22 cf ff ff    	lea    -0x30de(%ebx),%eax
c010cbd5:	50                   	push   %eax
c010cbd6:	e8 05 ec ff ff       	call   c010b7e0 <klog>
c010cbdb:	83 c4 10             	add    $0x10,%esp
c010cbde:	eb 26                	jmp    c010cc06 <fa_test+0x97>
c010cbe0:	c7 45 f4 00 00 00 00 	movl   $0x0,-0xc(%ebp)
c010cbe7:	eb 17                	jmp    c010cc00 <fa_test+0x91>
c010cbe9:	8b 45 f4             	mov    -0xc(%ebp),%eax
c010cbec:	8b 44 85 d4          	mov    -0x2c(%ebp,%eax,4),%eax
c010cbf0:	83 ec 0c             	sub    $0xc,%esp
c010cbf3:	50                   	push   %eax
c010cbf4:	e8 ab d9 ff ff       	call   c010a5a4 <fb_print_hex>
c010cbf9:	83 c4 10             	add    $0x10,%esp
c010cbfc:	83 45 f4 01          	addl   $0x1,-0xc(%ebp)
c010cc00:	83 7d f4 07          	cmpl   $0x7,-0xc(%ebp)
c010cc04:	76 e3                	jbe    c010cbe9 <fa_test+0x7a>
c010cc06:	8b 5d fc             	mov    -0x4(%ebp),%ebx
c010cc09:	c9                   	leave
c010cc0a:	c3                   	ret

c010cc0b <is_frame_free>:
c010cc0b:	55                   	push   %ebp
c010cc0c:	89 e5                	mov    %esp,%ebp
c010cc0e:	53                   	push   %ebx
c010cc0f:	e8 25 1e 00 00       	call   c010ea39 <__x86.get_pc_thunk.ax>
c010cc14:	05 18 5a 00 00       	add    $0x5a18,%eax
c010cc19:	8b 80 f4 29 01 00    	mov    0x129f4(%eax),%eax
c010cc1f:	8b 55 08             	mov    0x8(%ebp),%edx
c010cc22:	c1 e2 02             	shl    $0x2,%edx
c010cc25:	01 d0                	add    %edx,%eax
c010cc27:	8b 10                	mov    (%eax),%edx
c010cc29:	8b 45 0c             	mov    0xc(%ebp),%eax
c010cc2c:	bb 01 00 00 00       	mov    $0x1,%ebx
c010cc31:	89 c1                	mov    %eax,%ecx
c010cc33:	d3 e3                	shl    %cl,%ebx
c010cc35:	89 d8                	mov    %ebx,%eax
c010cc37:	21 d0                	and    %edx,%eax
c010cc39:	85 c0                	test   %eax,%eax
c010cc3b:	0f 94 c0             	sete   %al
c010cc3e:	8b 5d fc             	mov    -0x4(%ebp),%ebx
c010cc41:	c9                   	leave
c010cc42:	c3                   	ret

c010cc43 <is_free_nframes>:
c010cc43:	55                   	push   %ebp
c010cc44:	89 e5                	mov    %esp,%ebp
c010cc46:	83 ec 10             	sub    $0x10,%esp
c010cc49:	e8 eb 1d 00 00       	call   c010ea39 <__x86.get_pc_thunk.ax>
c010cc4e:	05 de 59 00 00       	add    $0x59de,%eax
c010cc53:	c7 45 fc 00 00 00 00 	movl   $0x0,-0x4(%ebp)
c010cc5a:	c7 45 f8 00 00 00 00 	movl   $0x0,-0x8(%ebp)
c010cc61:	eb 4b                	jmp    c010ccae <is_free_nframes+0x6b>
c010cc63:	8b 55 f8             	mov    -0x8(%ebp),%edx
c010cc66:	8b 45 10             	mov    0x10(%ebp),%eax
c010cc69:	01 d0                	add    %edx,%eax
c010cc6b:	83 f8 1f             	cmp    $0x1f,%eax
c010cc6e:	76 13                	jbe    c010cc83 <is_free_nframes+0x40>
c010cc70:	c7 45 10 00 00 00 00 	movl   $0x0,0x10(%ebp)
c010cc77:	8b 45 f8             	mov    -0x8(%ebp),%eax
c010cc7a:	f7 d8                	neg    %eax
c010cc7c:	89 45 fc             	mov    %eax,-0x4(%ebp)
c010cc7f:	83 45 0c 01          	addl   $0x1,0xc(%ebp)
c010cc83:	8b 55 10             	mov    0x10(%ebp),%edx
c010cc86:	8b 45 f8             	mov    -0x8(%ebp),%eax
c010cc89:	01 c2                	add    %eax,%edx
c010cc8b:	8b 45 fc             	mov    -0x4(%ebp),%eax
c010cc8e:	01 d0                	add    %edx,%eax
c010cc90:	50                   	push   %eax
c010cc91:	ff 75 0c             	push   0xc(%ebp)
c010cc94:	e8 72 ff ff ff       	call   c010cc0b <is_frame_free>
c010cc99:	83 c4 08             	add    $0x8,%esp
c010cc9c:	83 f0 01             	xor    $0x1,%eax
c010cc9f:	84 c0                	test   %al,%al
c010cca1:	74 07                	je     c010ccaa <is_free_nframes+0x67>
c010cca3:	b8 00 00 00 00       	mov    $0x0,%eax
c010cca8:	eb 11                	jmp    c010ccbb <is_free_nframes+0x78>
c010ccaa:	83 45 f8 01          	addl   $0x1,-0x8(%ebp)
c010ccae:	8b 45 f8             	mov    -0x8(%ebp),%eax
c010ccb1:	3b 45 08             	cmp    0x8(%ebp),%eax
c010ccb4:	72 ad                	jb     c010cc63 <is_free_nframes+0x20>
c010ccb6:	b8 01 00 00 00       	mov    $0x1,%eax
c010ccbb:	c9                   	leave
c010ccbc:	c3                   	ret

c010ccbd <set_frame_used>:
c010ccbd:	55                   	push   %ebp
c010ccbe:	89 e5                	mov    %esp,%ebp
c010ccc0:	56                   	push   %esi
c010ccc1:	53                   	push   %ebx
c010ccc2:	e8 72 1d 00 00       	call   c010ea39 <__x86.get_pc_thunk.ax>
c010ccc7:	05 65 59 00 00       	add    $0x5965,%eax
c010cccc:	8b 90 f4 29 01 00    	mov    0x129f4(%eax),%edx
c010ccd2:	8b 4d 08             	mov    0x8(%ebp),%ecx
c010ccd5:	c1 e1 02             	shl    $0x2,%ecx
c010ccd8:	01 ca                	add    %ecx,%edx
c010ccda:	8b 1a                	mov    (%edx),%ebx
c010ccdc:	8b 55 0c             	mov    0xc(%ebp),%edx
c010ccdf:	be 01 00 00 00       	mov    $0x1,%esi
c010cce4:	89 d1                	mov    %edx,%ecx
c010cce6:	d3 e6                	shl    %cl,%esi
c010cce8:	89 f2                	mov    %esi,%edx
c010ccea:	21 da                	and    %ebx,%edx
c010ccec:	85 d2                	test   %edx,%edx
c010ccee:	74 07                	je     c010ccf7 <set_frame_used+0x3a>
c010ccf0:	b8 02 00 00 00       	mov    $0x2,%eax
c010ccf5:	eb 39                	jmp    c010cd30 <set_frame_used+0x73>
c010ccf7:	8b 90 f4 29 01 00    	mov    0x129f4(%eax),%edx
c010ccfd:	8b 4d 08             	mov    0x8(%ebp),%ecx
c010cd00:	c1 e1 02             	shl    $0x2,%ecx
c010cd03:	01 ca                	add    %ecx,%edx
c010cd05:	8b 1a                	mov    (%edx),%ebx
c010cd07:	8b 55 0c             	mov    0xc(%ebp),%edx
c010cd0a:	be 01 00 00 00       	mov    $0x1,%esi
c010cd0f:	89 d1                	mov    %edx,%ecx
c010cd11:	d3 e6                	shl    %cl,%esi
c010cd13:	89 f2                	mov    %esi,%edx
c010cd15:	89 d1                	mov    %edx,%ecx
c010cd17:	8b 80 f4 29 01 00    	mov    0x129f4(%eax),%eax
c010cd1d:	8b 55 08             	mov    0x8(%ebp),%edx
c010cd20:	c1 e2 02             	shl    $0x2,%edx
c010cd23:	01 d0                	add    %edx,%eax
c010cd25:	09 cb                	or     %ecx,%ebx
c010cd27:	89 da                	mov    %ebx,%edx
c010cd29:	89 10                	mov    %edx,(%eax)
c010cd2b:	b8 00 00 00 00       	mov    $0x0,%eax
c010cd30:	5b                   	pop    %ebx
c010cd31:	5e                   	pop    %esi
c010cd32:	5d                   	pop    %ebp
c010cd33:	c3                   	ret

c010cd34 <set_nframes_used>:
c010cd34:	55                   	push   %ebp
c010cd35:	89 e5                	mov    %esp,%ebp
c010cd37:	83 ec 10             	sub    $0x10,%esp
c010cd3a:	e8 fa 1c 00 00       	call   c010ea39 <__x86.get_pc_thunk.ax>
c010cd3f:	05 ed 58 00 00       	add    $0x58ed,%eax
c010cd44:	c7 45 fc 00 00 00 00 	movl   $0x0,-0x4(%ebp)
c010cd4b:	c7 45 f8 00 00 00 00 	movl   $0x0,-0x8(%ebp)
c010cd52:	c7 45 f4 00 00 00 00 	movl   $0x0,-0xc(%ebp)
c010cd59:	eb 40                	jmp    c010cd9b <set_nframes_used+0x67>
c010cd5b:	8b 55 10             	mov    0x10(%ebp),%edx
c010cd5e:	8b 45 f4             	mov    -0xc(%ebp),%eax
c010cd61:	01 d0                	add    %edx,%eax
c010cd63:	83 f8 1f             	cmp    $0x1f,%eax
c010cd66:	76 13                	jbe    c010cd7b <set_nframes_used+0x47>
c010cd68:	c7 45 10 00 00 00 00 	movl   $0x0,0x10(%ebp)
c010cd6f:	8b 45 f4             	mov    -0xc(%ebp),%eax
c010cd72:	f7 d8                	neg    %eax
c010cd74:	89 45 f8             	mov    %eax,-0x8(%ebp)
c010cd77:	83 45 0c 01          	addl   $0x1,0xc(%ebp)
c010cd7b:	8b 55 10             	mov    0x10(%ebp),%edx
c010cd7e:	8b 45 f4             	mov    -0xc(%ebp),%eax
c010cd81:	01 c2                	add    %eax,%edx
c010cd83:	8b 45 f8             	mov    -0x8(%ebp),%eax
c010cd86:	01 d0                	add    %edx,%eax
c010cd88:	50                   	push   %eax
c010cd89:	ff 75 0c             	push   0xc(%ebp)
c010cd8c:	e8 2c ff ff ff       	call   c010ccbd <set_frame_used>
c010cd91:	83 c4 08             	add    $0x8,%esp
c010cd94:	09 45 fc             	or     %eax,-0x4(%ebp)
c010cd97:	83 45 f4 01          	addl   $0x1,-0xc(%ebp)
c010cd9b:	8b 45 f4             	mov    -0xc(%ebp),%eax
c010cd9e:	3b 45 08             	cmp    0x8(%ebp),%eax
c010cda1:	72 b8                	jb     c010cd5b <set_nframes_used+0x27>
c010cda3:	8b 45 fc             	mov    -0x4(%ebp),%eax
c010cda6:	c9                   	leave
c010cda7:	c3                   	ret

c010cda8 <get_frame_meta>:
c010cda8:	55                   	push   %ebp
c010cda9:	89 e5                	mov    %esp,%ebp
c010cdab:	e8 89 1c 00 00       	call   c010ea39 <__x86.get_pc_thunk.ax>
c010cdb0:	05 7c 58 00 00       	add    $0x587c,%eax
c010cdb5:	8b 45 08             	mov    0x8(%ebp),%eax
c010cdb8:	c1 e8 11             	shr    $0x11,%eax
c010cdbb:	89 c2                	mov    %eax,%edx
c010cdbd:	8b 45 0c             	mov    0xc(%ebp),%eax
c010cdc0:	89 10                	mov    %edx,(%eax)
c010cdc2:	8b 45 0c             	mov    0xc(%ebp),%eax
c010cdc5:	8b 00                	mov    (%eax),%eax
c010cdc7:	c1 e0 11             	shl    $0x11,%eax
c010cdca:	8b 55 08             	mov    0x8(%ebp),%edx
c010cdcd:	29 c2                	sub    %eax,%edx
c010cdcf:	c1 ea 0c             	shr    $0xc,%edx
c010cdd2:	8b 45 10             	mov    0x10(%ebp),%eax
c010cdd5:	89 10                	mov    %edx,(%eax)
c010cdd7:	90                   	nop
c010cdd8:	5d                   	pop    %ebp
c010cdd9:	c3                   	ret

c010cdda <frame_map_to_addr>:
c010cdda:	55                   	push   %ebp
c010cddb:	89 e5                	mov    %esp,%ebp
c010cddd:	e8 57 1c 00 00       	call   c010ea39 <__x86.get_pc_thunk.ax>
c010cde2:	05 4a 58 00 00       	add    $0x584a,%eax
c010cde7:	8b 45 08             	mov    0x8(%ebp),%eax
c010cdea:	c1 e0 05             	shl    $0x5,%eax
c010cded:	89 c2                	mov    %eax,%edx
c010cdef:	8b 45 0c             	mov    0xc(%ebp),%eax
c010cdf2:	01 d0                	add    %edx,%eax
c010cdf4:	c1 e0 0c             	shl    $0xc,%eax
c010cdf7:	5d                   	pop    %ebp
c010cdf8:	c3                   	ret

c010cdf9 <get_frame_submap_mask>:
c010cdf9:	55                   	push   %ebp
c010cdfa:	89 e5                	mov    %esp,%ebp
c010cdfc:	e8 38 1c 00 00       	call   c010ea39 <__x86.get_pc_thunk.ax>
c010ce01:	05 2b 58 00 00       	add    $0x582b,%eax
c010ce06:	8b 45 0c             	mov    0xc(%ebp),%eax
c010ce09:	c7 00 00 00 00 00    	movl   $0x0,(%eax)
c010ce0f:	eb 37                	jmp    c010ce48 <get_frame_submap_mask+0x4f>
c010ce11:	8b 45 0c             	mov    0xc(%ebp),%eax
c010ce14:	8b 00                	mov    (%eax),%eax
c010ce16:	ba 01 00 00 00       	mov    $0x1,%edx
c010ce1b:	89 c1                	mov    %eax,%ecx
c010ce1d:	d3 e2                	shl    %cl,%edx
c010ce1f:	89 d0                	mov    %edx,%eax
c010ce21:	3b 45 08             	cmp    0x8(%ebp),%eax
c010ce24:	72 15                	jb     c010ce3b <get_frame_submap_mask+0x42>
c010ce26:	8b 45 0c             	mov    0xc(%ebp),%eax
c010ce29:	8b 00                	mov    (%eax),%eax
c010ce2b:	c1 e0 03             	shl    $0x3,%eax
c010ce2e:	ba ff 00 00 00       	mov    $0xff,%edx
c010ce33:	89 c1                	mov    %eax,%ecx
c010ce35:	d3 e2                	shl    %cl,%edx
c010ce37:	89 d0                	mov    %edx,%eax
c010ce39:	eb 1c                	jmp    c010ce57 <get_frame_submap_mask+0x5e>
c010ce3b:	8b 45 0c             	mov    0xc(%ebp),%eax
c010ce3e:	8b 00                	mov    (%eax),%eax
c010ce40:	8d 50 01             	lea    0x1(%eax),%edx
c010ce43:	8b 45 0c             	mov    0xc(%ebp),%eax
c010ce46:	89 10                	mov    %edx,(%eax)
c010ce48:	8b 45 0c             	mov    0xc(%ebp),%eax
c010ce4b:	8b 00                	mov    (%eax),%eax
c010ce4d:	83 f8 03             	cmp    $0x3,%eax
c010ce50:	76 bf                	jbe    c010ce11 <get_frame_submap_mask+0x18>
c010ce52:	b8 00 00 00 ff       	mov    $0xff000000,%eax
c010ce57:	5d                   	pop    %ebp
c010ce58:	c3                   	ret

c010ce59 <alloc_nframes>:
c010ce59:	55                   	push   %ebp
c010ce5a:	89 e5                	mov    %esp,%ebp
c010ce5c:	53                   	push   %ebx
c010ce5d:	83 ec 24             	sub    $0x24,%esp
c010ce60:	e8 d4 1b 00 00       	call   c010ea39 <__x86.get_pc_thunk.ax>
c010ce65:	05 c7 57 00 00       	add    $0x57c7,%eax
c010ce6a:	8b 45 14             	mov    0x14(%ebp),%eax
c010ce6d:	66 89 45 d8          	mov    %ax,-0x28(%ebp)
c010ce71:	83 7d 10 00          	cmpl   $0x0,0x10(%ebp)
c010ce75:	75 0a                	jne    c010ce81 <alloc_nframes+0x28>
c010ce77:	b8 01 00 00 00       	mov    $0x1,%eax
c010ce7c:	e9 a7 00 00 00       	jmp    c010cf28 <alloc_nframes+0xcf>
c010ce81:	8d 45 ec             	lea    -0x14(%ebp),%eax
c010ce84:	50                   	push   %eax
c010ce85:	8d 45 f0             	lea    -0x10(%ebp),%eax
c010ce88:	50                   	push   %eax
c010ce89:	ff 75 0c             	push   0xc(%ebp)
c010ce8c:	e8 17 ff ff ff       	call   c010cda8 <get_frame_meta>
c010ce91:	83 c4 0c             	add    $0xc,%esp
c010ce94:	8d 45 e8             	lea    -0x18(%ebp),%eax
c010ce97:	50                   	push   %eax
c010ce98:	ff 75 08             	push   0x8(%ebp)
c010ce9b:	e8 59 ff ff ff       	call   c010cdf9 <get_frame_submap_mask>
c010cea0:	83 c4 08             	add    $0x8,%esp
c010cea3:	c7 45 f8 00 00 00 00 	movl   $0x0,-0x8(%ebp)
c010ceaa:	c7 45 f4 00 00 00 00 	movl   $0x0,-0xc(%ebp)
c010ceb1:	eb 68                	jmp    c010cf1b <alloc_nframes+0xc2>
c010ceb3:	8b 55 ec             	mov    -0x14(%ebp),%edx
c010ceb6:	8b 45 f4             	mov    -0xc(%ebp),%eax
c010ceb9:	01 d0                	add    %edx,%eax
c010cebb:	83 f8 1f             	cmp    $0x1f,%eax
c010cebe:	76 18                	jbe    c010ced8 <alloc_nframes+0x7f>
c010cec0:	c7 45 ec 00 00 00 00 	movl   $0x0,-0x14(%ebp)
c010cec7:	8b 45 f4             	mov    -0xc(%ebp),%eax
c010ceca:	f7 d8                	neg    %eax
c010cecc:	89 45 f8             	mov    %eax,-0x8(%ebp)
c010cecf:	8b 45 f0             	mov    -0x10(%ebp),%eax
c010ced2:	83 c0 01             	add    $0x1,%eax
c010ced5:	89 45 f0             	mov    %eax,-0x10(%ebp)
c010ced8:	8b 55 ec             	mov    -0x14(%ebp),%edx
c010cedb:	8b 45 f4             	mov    -0xc(%ebp),%eax
c010cede:	01 c2                	add    %eax,%edx
c010cee0:	8b 45 f8             	mov    -0x8(%ebp),%eax
c010cee3:	01 c2                	add    %eax,%edx
c010cee5:	8b 45 f0             	mov    -0x10(%ebp),%eax
c010cee8:	52                   	push   %edx
c010cee9:	50                   	push   %eax
c010ceea:	e8 ce fd ff ff       	call   c010ccbd <set_frame_used>
c010ceef:	83 c4 08             	add    $0x8,%esp
c010cef2:	8b 45 f4             	mov    -0xc(%ebp),%eax
c010cef5:	c1 e0 0c             	shl    $0xc,%eax
c010cef8:	89 c2                	mov    %eax,%edx
c010cefa:	8b 45 0c             	mov    0xc(%ebp),%eax
c010cefd:	8d 0c 02             	lea    (%edx,%eax,1),%ecx
c010cf00:	0f b7 55 d8          	movzwl -0x28(%ebp),%edx
c010cf04:	8b 45 f4             	mov    -0xc(%ebp),%eax
c010cf07:	8d 1c 85 00 00 00 00 	lea    0x0(,%eax,4),%ebx
c010cf0e:	8b 45 10             	mov    0x10(%ebp),%eax
c010cf11:	01 d8                	add    %ebx,%eax
c010cf13:	09 ca                	or     %ecx,%edx
c010cf15:	89 10                	mov    %edx,(%eax)
c010cf17:	83 45 f4 01          	addl   $0x1,-0xc(%ebp)
c010cf1b:	8b 45 f4             	mov    -0xc(%ebp),%eax
c010cf1e:	3b 45 08             	cmp    0x8(%ebp),%eax
c010cf21:	72 90                	jb     c010ceb3 <alloc_nframes+0x5a>
c010cf23:	b8 00 00 00 00       	mov    $0x0,%eax
c010cf28:	8b 5d fc             	mov    -0x4(%ebp),%ebx
c010cf2b:	c9                   	leave
c010cf2c:	c3                   	ret

c010cf2d <alloc_frame>:
c010cf2d:	55                   	push   %ebp
c010cf2e:	89 e5                	mov    %esp,%ebp
c010cf30:	e8 04 1b 00 00       	call   c010ea39 <__x86.get_pc_thunk.ax>
c010cf35:	05 f7 56 00 00       	add    $0x56f7,%eax
c010cf3a:	8b 45 10             	mov    0x10(%ebp),%eax
c010cf3d:	0f b7 c0             	movzwl %ax,%eax
c010cf40:	50                   	push   %eax
c010cf41:	ff 75 0c             	push   0xc(%ebp)
c010cf44:	ff 75 08             	push   0x8(%ebp)
c010cf47:	6a 01                	push   $0x1
c010cf49:	e8 0b ff ff ff       	call   c010ce59 <alloc_nframes>
c010cf4e:	83 c4 10             	add    $0x10,%esp
c010cf51:	c9                   	leave
c010cf52:	c3                   	ret

c010cf53 <set_nalloc_addrs>:
c010cf53:	55                   	push   %ebp
c010cf54:	89 e5                	mov    %esp,%ebp
c010cf56:	53                   	push   %ebx
c010cf57:	83 ec 14             	sub    $0x14,%esp
c010cf5a:	e8 da 1a 00 00       	call   c010ea39 <__x86.get_pc_thunk.ax>
c010cf5f:	05 cd 56 00 00       	add    $0x56cd,%eax
c010cf64:	8b 45 18             	mov    0x18(%ebp),%eax
c010cf67:	66 89 45 e8          	mov    %ax,-0x18(%ebp)
c010cf6b:	c7 45 f8 00 00 00 00 	movl   $0x0,-0x8(%ebp)
c010cf72:	eb 2f                	jmp    c010cfa3 <set_nalloc_addrs+0x50>
c010cf74:	8b 55 14             	mov    0x14(%ebp),%edx
c010cf77:	8b 45 f8             	mov    -0x8(%ebp),%eax
c010cf7a:	01 d0                	add    %edx,%eax
c010cf7c:	50                   	push   %eax
c010cf7d:	ff 75 10             	push   0x10(%ebp)
c010cf80:	e8 55 fe ff ff       	call   c010cdda <frame_map_to_addr>
c010cf85:	83 c4 08             	add    $0x8,%esp
c010cf88:	0f b7 4d e8          	movzwl -0x18(%ebp),%ecx
c010cf8c:	8b 55 f8             	mov    -0x8(%ebp),%edx
c010cf8f:	8d 1c 95 00 00 00 00 	lea    0x0(,%edx,4),%ebx
c010cf96:	8b 55 08             	mov    0x8(%ebp),%edx
c010cf99:	01 da                	add    %ebx,%edx
c010cf9b:	09 c8                	or     %ecx,%eax
c010cf9d:	89 02                	mov    %eax,(%edx)
c010cf9f:	83 45 f8 01          	addl   $0x1,-0x8(%ebp)
c010cfa3:	8b 45 f8             	mov    -0x8(%ebp),%eax
c010cfa6:	3b 45 0c             	cmp    0xc(%ebp),%eax
c010cfa9:	72 c9                	jb     c010cf74 <set_nalloc_addrs+0x21>
c010cfab:	90                   	nop
c010cfac:	90                   	nop
c010cfad:	8b 5d fc             	mov    -0x4(%ebp),%ebx
c010cfb0:	c9                   	leave
c010cfb1:	c3                   	ret

c010cfb2 <find_frame_in_map>:
c010cfb2:	55                   	push   %ebp
c010cfb3:	89 e5                	mov    %esp,%ebp
c010cfb5:	53                   	push   %ebx
c010cfb6:	83 ec 24             	sub    $0x24,%esp
c010cfb9:	e8 7f 1a 00 00       	call   c010ea3d <__x86.get_pc_thunk.bx>
c010cfbe:	81 c3 6e 56 00 00    	add    $0x566e,%ebx
c010cfc4:	8b 45 18             	mov    0x18(%ebp),%eax
c010cfc7:	66 89 45 e4          	mov    %ax,-0x1c(%ebp)
c010cfcb:	c7 45 ec 00 00 00 00 	movl   $0x0,-0x14(%ebp)
c010cfd2:	8d 45 ec             	lea    -0x14(%ebp),%eax
c010cfd5:	50                   	push   %eax
c010cfd6:	ff 75 10             	push   0x10(%ebp)
c010cfd9:	e8 1b fe ff ff       	call   c010cdf9 <get_frame_submap_mask>
c010cfde:	83 c4 08             	add    $0x8,%esp
c010cfe1:	89 45 f0             	mov    %eax,-0x10(%ebp)
c010cfe4:	8b 83 f4 29 01 00    	mov    0x129f4(%ebx),%eax
c010cfea:	8b 55 08             	mov    0x8(%ebp),%edx
c010cfed:	c1 e2 02             	shl    $0x2,%edx
c010cff0:	01 d0                	add    %edx,%eax
c010cff2:	8b 00                	mov    (%eax),%eax
c010cff4:	23 45 f0             	and    -0x10(%ebp),%eax
c010cff7:	39 45 f0             	cmp    %eax,-0x10(%ebp)
c010cffa:	75 0a                	jne    c010d006 <find_frame_in_map+0x54>
c010cffc:	b8 01 00 00 00       	mov    $0x1,%eax
c010d001:	e9 8d 00 00 00       	jmp    c010d093 <find_frame_in_map+0xe1>
c010d006:	83 ec 0c             	sub    $0xc,%esp
c010d009:	ff 75 f0             	push   -0x10(%ebp)
c010d00c:	e8 93 d5 ff ff       	call   c010a5a4 <fb_print_hex>
c010d011:	83 c4 10             	add    $0x10,%esp
c010d014:	8b 45 ec             	mov    -0x14(%ebp),%eax
c010d017:	c1 e0 03             	shl    $0x3,%eax
c010d01a:	89 45 f4             	mov    %eax,-0xc(%ebp)
c010d01d:	eb 61                	jmp    c010d080 <find_frame_in_map+0xce>
c010d01f:	83 ec 08             	sub    $0x8,%esp
c010d022:	ff 75 f4             	push   -0xc(%ebp)
c010d025:	ff 75 08             	push   0x8(%ebp)
c010d028:	e8 de fb ff ff       	call   c010cc0b <is_frame_free>
c010d02d:	83 c4 10             	add    $0x10,%esp
c010d030:	84 c0                	test   %al,%al
c010d032:	74 46                	je     c010d07a <find_frame_in_map+0xc8>
c010d034:	83 ec 04             	sub    $0x4,%esp
c010d037:	ff 75 f4             	push   -0xc(%ebp)
c010d03a:	ff 75 08             	push   0x8(%ebp)
c010d03d:	ff 75 10             	push   0x10(%ebp)
c010d040:	e8 ef fc ff ff       	call   c010cd34 <set_nframes_used>
c010d045:	83 c4 10             	add    $0x10,%esp
c010d048:	0f b7 45 e4          	movzwl -0x1c(%ebp),%eax
c010d04c:	83 ec 0c             	sub    $0xc,%esp
c010d04f:	50                   	push   %eax
c010d050:	ff 75 f4             	push   -0xc(%ebp)
c010d053:	ff 75 08             	push   0x8(%ebp)
c010d056:	ff 75 10             	push   0x10(%ebp)
c010d059:	ff 75 0c             	push   0xc(%ebp)
c010d05c:	e8 f2 fe ff ff       	call   c010cf53 <set_nalloc_addrs>
c010d061:	83 c4 20             	add    $0x20,%esp
c010d064:	8b 45 14             	mov    0x14(%ebp),%eax
c010d067:	8b 10                	mov    (%eax),%edx
c010d069:	8b 45 10             	mov    0x10(%ebp),%eax
c010d06c:	01 c2                	add    %eax,%edx
c010d06e:	8b 45 14             	mov    0x14(%ebp),%eax
c010d071:	89 10                	mov    %edx,(%eax)
c010d073:	b8 00 00 00 00       	mov    $0x0,%eax
c010d078:	eb 19                	jmp    c010d093 <find_frame_in_map+0xe1>
c010d07a:	8b 45 10             	mov    0x10(%ebp),%eax
c010d07d:	01 45 f4             	add    %eax,-0xc(%ebp)
c010d080:	8b 45 ec             	mov    -0x14(%ebp),%eax
c010d083:	83 c0 01             	add    $0x1,%eax
c010d086:	c1 e0 03             	shl    $0x3,%eax
c010d089:	39 45 f4             	cmp    %eax,-0xc(%ebp)
c010d08c:	72 91                	jb     c010d01f <find_frame_in_map+0x6d>
c010d08e:	b8 01 00 00 00       	mov    $0x1,%eax
c010d093:	8b 5d fc             	mov    -0x4(%ebp),%ebx
c010d096:	c9                   	leave
c010d097:	c3                   	ret

c010d098 <find_alloc_nframes>:
c010d098:	55                   	push   %ebp
c010d099:	89 e5                	mov    %esp,%ebp
c010d09b:	53                   	push   %ebx
c010d09c:	83 ec 24             	sub    $0x24,%esp
c010d09f:	e8 99 19 00 00       	call   c010ea3d <__x86.get_pc_thunk.bx>
c010d0a4:	81 c3 88 55 00 00    	add    $0x5588,%ebx
c010d0aa:	8b 45 10             	mov    0x10(%ebp),%eax
c010d0ad:	66 89 45 e4          	mov    %ax,-0x1c(%ebp)
c010d0b1:	c7 45 ec 00 00 00 00 	movl   $0x0,-0x14(%ebp)
c010d0b8:	83 7d 0c 00          	cmpl   $0x0,0xc(%ebp)
c010d0bc:	75 0a                	jne    c010d0c8 <find_alloc_nframes+0x30>
c010d0be:	b8 00 00 00 00       	mov    $0x0,%eax
c010d0c3:	e9 8b 00 00 00       	jmp    c010d153 <find_alloc_nframes+0xbb>
c010d0c8:	c7 45 f4 00 00 00 00 	movl   $0x0,-0xc(%ebp)
c010d0cf:	eb 72                	jmp    c010d143 <find_alloc_nframes+0xab>
c010d0d1:	8b 83 f4 29 01 00    	mov    0x129f4(%ebx),%eax
c010d0d7:	8b 55 f4             	mov    -0xc(%ebp),%edx
c010d0da:	c1 e2 02             	shl    $0x2,%edx
c010d0dd:	01 d0                	add    %edx,%eax
c010d0df:	8b 00                	mov    (%eax),%eax
c010d0e1:	83 f8 ff             	cmp    $0xffffffff,%eax
c010d0e4:	74 55                	je     c010d13b <find_alloc_nframes+0xa3>
c010d0e6:	8b 45 ec             	mov    -0x14(%ebp),%eax
c010d0e9:	8b 55 08             	mov    0x8(%ebp),%edx
c010d0ec:	29 c2                	sub    %eax,%edx
c010d0ee:	89 55 f0             	mov    %edx,-0x10(%ebp)
c010d0f1:	83 7d f0 08          	cmpl   $0x8,-0x10(%ebp)
c010d0f5:	76 07                	jbe    c010d0fe <find_alloc_nframes+0x66>
c010d0f7:	c7 45 f0 08 00 00 00 	movl   $0x8,-0x10(%ebp)
c010d0fe:	0f b7 45 e4          	movzwl -0x1c(%ebp),%eax
c010d102:	8b 55 ec             	mov    -0x14(%ebp),%edx
c010d105:	8d 0c 95 00 00 00 00 	lea    0x0(,%edx,4),%ecx
c010d10c:	8b 55 0c             	mov    0xc(%ebp),%edx
c010d10f:	01 ca                	add    %ecx,%edx
c010d111:	83 ec 0c             	sub    $0xc,%esp
c010d114:	50                   	push   %eax
c010d115:	8d 45 ec             	lea    -0x14(%ebp),%eax
c010d118:	50                   	push   %eax
c010d119:	ff 75 f0             	push   -0x10(%ebp)
c010d11c:	52                   	push   %edx
c010d11d:	ff 75 f4             	push   -0xc(%ebp)
c010d120:	e8 8d fe ff ff       	call   c010cfb2 <find_frame_in_map>
c010d125:	83 c4 20             	add    $0x20,%esp
c010d128:	85 c0                	test   %eax,%eax
c010d12a:	75 12                	jne    c010d13e <find_alloc_nframes+0xa6>
c010d12c:	8b 45 ec             	mov    -0x14(%ebp),%eax
c010d12f:	3b 45 08             	cmp    0x8(%ebp),%eax
c010d132:	72 0b                	jb     c010d13f <find_alloc_nframes+0xa7>
c010d134:	b8 00 00 00 00       	mov    $0x0,%eax
c010d139:	eb 18                	jmp    c010d153 <find_alloc_nframes+0xbb>
c010d13b:	90                   	nop
c010d13c:	eb 01                	jmp    c010d13f <find_alloc_nframes+0xa7>
c010d13e:	90                   	nop
c010d13f:	83 45 f4 01          	addl   $0x1,-0xc(%ebp)
c010d143:	8b 83 f8 29 01 00    	mov    0x129f8(%ebx),%eax
c010d149:	39 45 f4             	cmp    %eax,-0xc(%ebp)
c010d14c:	72 83                	jb     c010d0d1 <find_alloc_nframes+0x39>
c010d14e:	b8 03 00 00 00       	mov    $0x3,%eax
c010d153:	8b 5d fc             	mov    -0x4(%ebp),%ebx
c010d156:	c9                   	leave
c010d157:	c3                   	ret

c010d158 <find_alloc_frame>:
c010d158:	55                   	push   %ebp
c010d159:	89 e5                	mov    %esp,%ebp
c010d15b:	83 ec 08             	sub    $0x8,%esp
c010d15e:	e8 d6 18 00 00       	call   c010ea39 <__x86.get_pc_thunk.ax>
c010d163:	05 c9 54 00 00       	add    $0x54c9,%eax
c010d168:	8b 45 0c             	mov    0xc(%ebp),%eax
c010d16b:	0f b7 c0             	movzwl %ax,%eax
c010d16e:	83 ec 04             	sub    $0x4,%esp
c010d171:	50                   	push   %eax
c010d172:	ff 75 08             	push   0x8(%ebp)
c010d175:	6a 01                	push   $0x1
c010d177:	e8 1c ff ff ff       	call   c010d098 <find_alloc_nframes>
c010d17c:	83 c4 10             	add    $0x10,%esp
c010d17f:	c9                   	leave
c010d180:	c3                   	ret

c010d181 <map_frame>:
c010d181:	55                   	push   %ebp
c010d182:	89 e5                	mov    %esp,%ebp
c010d184:	83 ec 18             	sub    $0x18,%esp
c010d187:	e8 ad 18 00 00       	call   c010ea39 <__x86.get_pc_thunk.ax>
c010d18c:	05 a0 54 00 00       	add    $0x54a0,%eax
c010d191:	8b 45 10             	mov    0x10(%ebp),%eax
c010d194:	66 89 45 f4          	mov    %ax,-0xc(%ebp)
c010d198:	0f b7 45 f4          	movzwl -0xc(%ebp),%eax
c010d19c:	8b 55 0c             	mov    0xc(%ebp),%edx
c010d19f:	8d 0c 95 00 00 00 00 	lea    0x0(,%edx,4),%ecx
c010d1a6:	8b 55 08             	mov    0x8(%ebp),%edx
c010d1a9:	01 ca                	add    %ecx,%edx
c010d1ab:	83 ec 08             	sub    $0x8,%esp
c010d1ae:	50                   	push   %eax
c010d1af:	52                   	push   %edx
c010d1b0:	e8 a3 ff ff ff       	call   c010d158 <find_alloc_frame>
c010d1b5:	83 c4 10             	add    $0x10,%esp
c010d1b8:	c9                   	leave
c010d1b9:	c3                   	ret

c010d1ba <map_pt_ident>:
c010d1ba:	55                   	push   %ebp
c010d1bb:	89 e5                	mov    %esp,%ebp
c010d1bd:	56                   	push   %esi
c010d1be:	53                   	push   %ebx
c010d1bf:	83 ec 20             	sub    $0x20,%esp
c010d1c2:	e8 72 18 00 00       	call   c010ea39 <__x86.get_pc_thunk.ax>
c010d1c7:	05 65 54 00 00       	add    $0x5465,%eax
c010d1cc:	8b 4d 0c             	mov    0xc(%ebp),%ecx
c010d1cf:	8b 55 10             	mov    0x10(%ebp),%edx
c010d1d2:	66 89 4d e4          	mov    %cx,-0x1c(%ebp)
c010d1d6:	66 89 55 e0          	mov    %dx,-0x20(%ebp)
c010d1da:	83 7d 08 00          	cmpl   $0x0,0x8(%ebp)
c010d1de:	75 07                	jne    c010d1e7 <map_pt_ident+0x2d>
c010d1e0:	b8 02 00 00 00       	mov    $0x2,%eax
c010d1e5:	eb 7b                	jmp    c010d262 <map_pt_ident+0xa8>
c010d1e7:	0f b7 55 e0          	movzwl -0x20(%ebp),%edx
c010d1eb:	8b 4d 08             	mov    0x8(%ebp),%ecx
c010d1ee:	8b 09                	mov    (%ecx),%ecx
c010d1f0:	0f b7 5d e4          	movzwl -0x1c(%ebp),%ebx
c010d1f4:	c1 e3 02             	shl    $0x2,%ebx
c010d1f7:	8d 34 19             	lea    (%ecx,%ebx,1),%esi
c010d1fa:	83 ec 08             	sub    $0x8,%esp
c010d1fd:	52                   	push   %edx
c010d1fe:	8d 55 ec             	lea    -0x14(%ebp),%edx
c010d201:	52                   	push   %edx
c010d202:	89 c3                	mov    %eax,%ebx
c010d204:	e8 4d f2 ff ff       	call   c010c456 <alloc_pt>
c010d209:	83 c4 10             	add    $0x10,%esp
c010d20c:	89 06                	mov    %eax,(%esi)
c010d20e:	8b 55 ec             	mov    -0x14(%ebp),%edx
c010d211:	8b 45 08             	mov    0x8(%ebp),%eax
c010d214:	8b 40 04             	mov    0x4(%eax),%eax
c010d217:	0f b7 4d e4          	movzwl -0x1c(%ebp),%ecx
c010d21b:	c1 e1 02             	shl    $0x2,%ecx
c010d21e:	01 c8                	add    %ecx,%eax
c010d220:	89 10                	mov    %edx,(%eax)
c010d222:	c7 45 f4 00 00 00 00 	movl   $0x0,-0xc(%ebp)
c010d229:	eb 29                	jmp    c010d254 <map_pt_ident+0x9a>
c010d22b:	0f b7 55 e0          	movzwl -0x20(%ebp),%edx
c010d22f:	8b 45 ec             	mov    -0x14(%ebp),%eax
c010d232:	83 ec 04             	sub    $0x4,%esp
c010d235:	52                   	push   %edx
c010d236:	ff 75 f4             	push   -0xc(%ebp)
c010d239:	50                   	push   %eax
c010d23a:	e8 42 ff ff ff       	call   c010d181 <map_frame>
c010d23f:	83 c4 10             	add    $0x10,%esp
c010d242:	89 45 f0             	mov    %eax,-0x10(%ebp)
c010d245:	83 7d f0 00          	cmpl   $0x0,-0x10(%ebp)
c010d249:	74 05                	je     c010d250 <map_pt_ident+0x96>
c010d24b:	8b 45 f0             	mov    -0x10(%ebp),%eax
c010d24e:	eb 12                	jmp    c010d262 <map_pt_ident+0xa8>
c010d250:	83 45 f4 01          	addl   $0x1,-0xc(%ebp)
c010d254:	81 7d f4 ff 03 00 00 	cmpl   $0x3ff,-0xc(%ebp)
c010d25b:	76 ce                	jbe    c010d22b <map_pt_ident+0x71>
c010d25d:	b8 00 00 00 00       	mov    $0x0,%eax
c010d262:	8d 65 f8             	lea    -0x8(%ebp),%esp
c010d265:	5b                   	pop    %ebx
c010d266:	5e                   	pop    %esi
c010d267:	5d                   	pop    %ebp
c010d268:	c3                   	ret

c010d269 <dealloc_nframes>:
c010d269:	55                   	push   %ebp
c010d26a:	89 e5                	mov    %esp,%ebp
c010d26c:	83 ec 18             	sub    $0x18,%esp
c010d26f:	e8 c5 17 00 00       	call   c010ea39 <__x86.get_pc_thunk.ax>
c010d274:	05 b8 53 00 00       	add    $0x53b8,%eax
c010d279:	83 7d 08 00          	cmpl   $0x0,0x8(%ebp)
c010d27d:	75 07                	jne    c010d286 <dealloc_nframes+0x1d>
c010d27f:	b8 02 00 00 00       	mov    $0x2,%eax
c010d284:	eb 37                	jmp    c010d2bd <dealloc_nframes+0x54>
c010d286:	c7 45 f4 00 00 00 00 	movl   $0x0,-0xc(%ebp)
c010d28d:	eb 21                	jmp    c010d2b0 <dealloc_nframes+0x47>
c010d28f:	8b 45 f4             	mov    -0xc(%ebp),%eax
c010d292:	8d 14 85 00 00 00 00 	lea    0x0(,%eax,4),%edx
c010d299:	8b 45 08             	mov    0x8(%ebp),%eax
c010d29c:	01 d0                	add    %edx,%eax
c010d29e:	8b 00                	mov    (%eax),%eax
c010d2a0:	83 ec 0c             	sub    $0xc,%esp
c010d2a3:	50                   	push   %eax
c010d2a4:	e8 16 00 00 00       	call   c010d2bf <dealloc_frame>
c010d2a9:	83 c4 10             	add    $0x10,%esp
c010d2ac:	83 45 f4 01          	addl   $0x1,-0xc(%ebp)
c010d2b0:	8b 45 f4             	mov    -0xc(%ebp),%eax
c010d2b3:	3b 45 0c             	cmp    0xc(%ebp),%eax
c010d2b6:	72 d7                	jb     c010d28f <dealloc_nframes+0x26>
c010d2b8:	b8 00 00 00 00       	mov    $0x0,%eax
c010d2bd:	c9                   	leave
c010d2be:	c3                   	ret

c010d2bf <dealloc_frame>:
c010d2bf:	55                   	push   %ebp
c010d2c0:	89 e5                	mov    %esp,%ebp
c010d2c2:	56                   	push   %esi
c010d2c3:	53                   	push   %ebx
c010d2c4:	83 ec 10             	sub    $0x10,%esp
c010d2c7:	e8 71 17 00 00       	call   c010ea3d <__x86.get_pc_thunk.bx>
c010d2cc:	81 c3 60 53 00 00    	add    $0x5360,%ebx
c010d2d2:	81 65 08 00 f0 ff ff 	andl   $0xfffff000,0x8(%ebp)
c010d2d9:	8d 45 f0             	lea    -0x10(%ebp),%eax
c010d2dc:	50                   	push   %eax
c010d2dd:	8d 45 f4             	lea    -0xc(%ebp),%eax
c010d2e0:	50                   	push   %eax
c010d2e1:	ff 75 08             	push   0x8(%ebp)
c010d2e4:	e8 bf fa ff ff       	call   c010cda8 <get_frame_meta>
c010d2e9:	83 c4 0c             	add    $0xc,%esp
c010d2ec:	8b 83 f4 29 01 00    	mov    0x129f4(%ebx),%eax
c010d2f2:	8b 55 f4             	mov    -0xc(%ebp),%edx
c010d2f5:	c1 e2 02             	shl    $0x2,%edx
c010d2f8:	01 d0                	add    %edx,%eax
c010d2fa:	8b 10                	mov    (%eax),%edx
c010d2fc:	8b 45 f0             	mov    -0x10(%ebp),%eax
c010d2ff:	be 01 00 00 00       	mov    $0x1,%esi
c010d304:	89 c1                	mov    %eax,%ecx
c010d306:	d3 e6                	shl    %cl,%esi
c010d308:	89 f0                	mov    %esi,%eax
c010d30a:	f7 d0                	not    %eax
c010d30c:	89 c6                	mov    %eax,%esi
c010d30e:	8b 83 f4 29 01 00    	mov    0x129f4(%ebx),%eax
c010d314:	8b 4d f4             	mov    -0xc(%ebp),%ecx
c010d317:	c1 e1 02             	shl    $0x2,%ecx
c010d31a:	01 c8                	add    %ecx,%eax
c010d31c:	21 f2                	and    %esi,%edx
c010d31e:	89 10                	mov    %edx,(%eax)
c010d320:	90                   	nop
c010d321:	8d 65 f8             	lea    -0x8(%ebp),%esp
c010d324:	5b                   	pop    %ebx
c010d325:	5e                   	pop    %esi
c010d326:	5d                   	pop    %ebp
c010d327:	c3                   	ret

c010d328 <frame_alloc_init>:
c010d328:	55                   	push   %ebp
c010d329:	89 e5                	mov    %esp,%ebp
c010d32b:	53                   	push   %ebx
c010d32c:	83 ec 14             	sub    $0x14,%esp
c010d32f:	e8 09 17 00 00       	call   c010ea3d <__x86.get_pc_thunk.bx>
c010d334:	81 c3 f8 52 00 00    	add    $0x52f8,%ebx
c010d33a:	8b 45 08             	mov    0x8(%ebp),%eax
c010d33d:	c1 e8 11             	shr    $0x11,%eax
c010d340:	89 83 f8 29 01 00    	mov    %eax,0x129f8(%ebx)
c010d346:	8b 83 f8 29 01 00    	mov    0x129f8(%ebx),%eax
c010d34c:	c1 e8 05             	shr    $0x5,%eax
c010d34f:	83 ec 0c             	sub    $0xc,%esp
c010d352:	50                   	push   %eax
c010d353:	e8 1c 14 00 00       	call   c010e774 <kmalloc>
c010d358:	83 c4 10             	add    $0x10,%esp
c010d35b:	89 83 f4 29 01 00    	mov    %eax,0x129f4(%ebx)
c010d361:	8b 83 f8 29 01 00    	mov    0x129f8(%ebx),%eax
c010d367:	c1 e8 05             	shr    $0x5,%eax
c010d36a:	89 c2                	mov    %eax,%edx
c010d36c:	8b 83 f4 29 01 00    	mov    0x129f4(%ebx),%eax
c010d372:	83 ec 04             	sub    $0x4,%esp
c010d375:	52                   	push   %edx
c010d376:	6a 00                	push   $0x0
c010d378:	50                   	push   %eax
c010d379:	e8 28 e5 ff ff       	call   c010b8a6 <memset>
c010d37e:	83 c4 10             	add    $0x10,%esp
c010d381:	c7 45 f4 00 00 00 00 	movl   $0x0,-0xc(%ebp)
c010d388:	eb 26                	jmp    c010d3b0 <frame_alloc_init+0x88>
c010d38a:	8b 45 f4             	mov    -0xc(%ebp),%eax
c010d38d:	c7 84 c3 14 2a 01 00 	movl   $0x0,0x12a14(%ebx,%eax,8)
c010d394:	00 00 00 00 
c010d398:	8b 45 f4             	mov    -0xc(%ebp),%eax
c010d39b:	8d 14 c5 00 00 00 00 	lea    0x0(,%eax,8),%edx
c010d3a2:	8b 45 f4             	mov    -0xc(%ebp),%eax
c010d3a5:	89 94 c3 18 2a 01 00 	mov    %edx,0x12a18(%ebx,%eax,8)
c010d3ac:	83 45 f4 01          	addl   $0x1,-0xc(%ebp)
c010d3b0:	83 7d f4 1f          	cmpl   $0x1f,-0xc(%ebp)
c010d3b4:	76 d4                	jbe    c010d38a <frame_alloc_init+0x62>
c010d3b6:	8b 83 f4 29 01 00    	mov    0x129f4(%ebx),%eax
c010d3bc:	85 c0                	test   %eax,%eax
c010d3be:	75 07                	jne    c010d3c7 <frame_alloc_init+0x9f>
c010d3c0:	b8 03 00 00 00       	mov    $0x3,%eax
c010d3c5:	eb 05                	jmp    c010d3cc <frame_alloc_init+0xa4>
c010d3c7:	b8 00 00 00 00       	mov    $0x0,%eax
c010d3cc:	8b 5d fc             	mov    -0x4(%ebp),%ebx
c010d3cf:	c9                   	leave
c010d3d0:	c3                   	ret

c010d3d1 <get_buddy_order>:
c010d3d1:	55                   	push   %ebp
c010d3d2:	89 e5                	mov    %esp,%ebp
c010d3d4:	83 ec 10             	sub    $0x10,%esp
c010d3d7:	e8 5d 16 00 00       	call   c010ea39 <__x86.get_pc_thunk.ax>
c010d3dc:	05 50 52 00 00       	add    $0x5250,%eax
c010d3e1:	81 7d 08 00 04 00 00 	cmpl   $0x400,0x8(%ebp)
c010d3e8:	76 07                	jbe    c010d3f1 <get_buddy_order+0x20>
c010d3ea:	b8 0a 00 00 00       	mov    $0xa,%eax
c010d3ef:	eb 35                	jmp    c010d426 <get_buddy_order+0x55>
c010d3f1:	c6 45 ff 00          	movb   $0x0,-0x1(%ebp)
c010d3f5:	eb 24                	jmp    c010d41b <get_buddy_order+0x4a>
c010d3f7:	0f b6 45 ff          	movzbl -0x1(%ebp),%eax
c010d3fb:	ba 01 00 00 00       	mov    $0x1,%edx
c010d400:	89 c1                	mov    %eax,%ecx
c010d402:	d3 e2                	shl    %cl,%edx
c010d404:	89 d0                	mov    %edx,%eax
c010d406:	3b 45 08             	cmp    0x8(%ebp),%eax
c010d409:	72 06                	jb     c010d411 <get_buddy_order+0x40>
c010d40b:	0f b6 45 ff          	movzbl -0x1(%ebp),%eax
c010d40f:	eb 15                	jmp    c010d426 <get_buddy_order+0x55>
c010d411:	0f b6 45 ff          	movzbl -0x1(%ebp),%eax
c010d415:	83 c0 01             	add    $0x1,%eax
c010d418:	88 45 ff             	mov    %al,-0x1(%ebp)
c010d41b:	80 7d ff 0a          	cmpb   $0xa,-0x1(%ebp)
c010d41f:	76 d6                	jbe    c010d3f7 <get_buddy_order+0x26>
c010d421:	b8 0a 00 00 00       	mov    $0xa,%eax
c010d426:	c9                   	leave
c010d427:	c3                   	ret

c010d428 <is_frame_free>:
c010d428:	55                   	push   %ebp
c010d429:	89 e5                	mov    %esp,%ebp
c010d42b:	83 ec 04             	sub    $0x4,%esp
c010d42e:	e8 06 16 00 00       	call   c010ea39 <__x86.get_pc_thunk.ax>
c010d433:	05 f9 51 00 00       	add    $0x51f9,%eax
c010d438:	8b 45 0c             	mov    0xc(%ebp),%eax
c010d43b:	88 45 fc             	mov    %al,-0x4(%ebp)
c010d43e:	0f b6 45 fc          	movzbl -0x4(%ebp),%eax
c010d442:	ba 01 00 00 00       	mov    $0x1,%edx
c010d447:	89 c1                	mov    %eax,%ecx
c010d449:	d3 e2                	shl    %cl,%edx
c010d44b:	89 d0                	mov    %edx,%eax
c010d44d:	23 45 08             	and    0x8(%ebp),%eax
c010d450:	85 c0                	test   %eax,%eax
c010d452:	0f 94 c0             	sete   %al
c010d455:	c9                   	leave
c010d456:	c3                   	ret

c010d457 <insert_buddy>:
c010d457:	55                   	push   %ebp
c010d458:	89 e5                	mov    %esp,%ebp
c010d45a:	56                   	push   %esi
c010d45b:	53                   	push   %ebx
c010d45c:	83 ec 20             	sub    $0x20,%esp
c010d45f:	e8 d9 15 00 00       	call   c010ea3d <__x86.get_pc_thunk.bx>
c010d464:	81 c3 c8 51 00 00    	add    $0x51c8,%ebx
c010d46a:	8b 45 0c             	mov    0xc(%ebp),%eax
c010d46d:	88 45 e4             	mov    %al,-0x1c(%ebp)
c010d470:	8b 45 08             	mov    0x8(%ebp),%eax
c010d473:	8b 00                	mov    (%eax),%eax
c010d475:	8b 00                	mov    (%eax),%eax
c010d477:	89 45 f4             	mov    %eax,-0xc(%ebp)
c010d47a:	8b 45 08             	mov    0x8(%ebp),%eax
c010d47d:	8b 30                	mov    (%eax),%esi
c010d47f:	83 ec 0c             	sub    $0xc,%esp
c010d482:	6a 08                	push   $0x8
c010d484:	e8 eb 12 00 00       	call   c010e774 <kmalloc>
c010d489:	83 c4 10             	add    $0x10,%esp
c010d48c:	89 06                	mov    %eax,(%esi)
c010d48e:	8b 45 08             	mov    0x8(%ebp),%eax
c010d491:	8b 00                	mov    (%eax),%eax
c010d493:	8b 00                	mov    (%eax),%eax
c010d495:	85 c0                	test   %eax,%eax
c010d497:	75 07                	jne    c010d4a0 <insert_buddy+0x49>
c010d499:	b8 03 00 00 00       	mov    $0x3,%eax
c010d49e:	eb 4f                	jmp    c010d4ef <insert_buddy+0x98>
c010d4a0:	8b 45 08             	mov    0x8(%ebp),%eax
c010d4a3:	8b 00                	mov    (%eax),%eax
c010d4a5:	8b 00                	mov    (%eax),%eax
c010d4a7:	8b 55 f4             	mov    -0xc(%ebp),%edx
c010d4aa:	89 10                	mov    %edx,(%eax)
c010d4ac:	8b 45 08             	mov    0x8(%ebp),%eax
c010d4af:	8b 00                	mov    (%eax),%eax
c010d4b1:	8b 00                	mov    (%eax),%eax
c010d4b3:	8b 55 10             	mov    0x10(%ebp),%edx
c010d4b6:	89 50 04             	mov    %edx,0x4(%eax)
c010d4b9:	0f b6 55 e4          	movzbl -0x1c(%ebp),%edx
c010d4bd:	8d 8b 3c 2a 01 00    	lea    0x12a3c(%ebx),%ecx
c010d4c3:	89 d0                	mov    %edx,%eax
c010d4c5:	01 c0                	add    %eax,%eax
c010d4c7:	01 d0                	add    %edx,%eax
c010d4c9:	c1 e0 02             	shl    $0x2,%eax
c010d4cc:	01 c8                	add    %ecx,%eax
c010d4ce:	8b 00                	mov    (%eax),%eax
c010d4d0:	0f b6 55 e4          	movzbl -0x1c(%ebp),%edx
c010d4d4:	8d 48 01             	lea    0x1(%eax),%ecx
c010d4d7:	8d 9b 3c 2a 01 00    	lea    0x12a3c(%ebx),%ebx
c010d4dd:	89 d0                	mov    %edx,%eax
c010d4df:	01 c0                	add    %eax,%eax
c010d4e1:	01 d0                	add    %edx,%eax
c010d4e3:	c1 e0 02             	shl    $0x2,%eax
c010d4e6:	01 d8                	add    %ebx,%eax
c010d4e8:	89 08                	mov    %ecx,(%eax)
c010d4ea:	b8 00 00 00 00       	mov    $0x0,%eax
c010d4ef:	8d 65 f8             	lea    -0x8(%ebp),%esp
c010d4f2:	5b                   	pop    %ebx
c010d4f3:	5e                   	pop    %esi
c010d4f4:	5d                   	pop    %ebp
c010d4f5:	c3                   	ret

c010d4f6 <remove_free_frame>:
c010d4f6:	55                   	push   %ebp
c010d4f7:	89 e5                	mov    %esp,%ebp
c010d4f9:	56                   	push   %esi
c010d4fa:	53                   	push   %ebx
c010d4fb:	83 ec 30             	sub    $0x30,%esp
c010d4fe:	e8 42 15 00 00       	call   c010ea45 <__x86.get_pc_thunk.dx>
c010d503:	81 c2 29 51 00 00    	add    $0x5129,%edx
c010d509:	8b 45 08             	mov    0x8(%ebp),%eax
c010d50c:	88 45 d4             	mov    %al,-0x2c(%ebp)
c010d50f:	0f b6 4d d4          	movzbl -0x2c(%ebp),%ecx
c010d513:	89 c8                	mov    %ecx,%eax
c010d515:	01 c0                	add    %eax,%eax
c010d517:	01 c8                	add    %ecx,%eax
c010d519:	c1 e0 02             	shl    $0x2,%eax
c010d51c:	8d 8a 34 2a 01 00    	lea    0x12a34(%edx),%ecx
c010d522:	01 c8                	add    %ecx,%eax
c010d524:	89 45 ec             	mov    %eax,-0x14(%ebp)
c010d527:	8b 45 ec             	mov    -0x14(%ebp),%eax
c010d52a:	8b 40 08             	mov    0x8(%eax),%eax
c010d52d:	85 c0                	test   %eax,%eax
c010d52f:	0f 84 91 00 00 00    	je     c010d5c6 <remove_free_frame+0xd0>
c010d535:	8b 45 ec             	mov    -0x14(%ebp),%eax
c010d538:	89 45 e4             	mov    %eax,-0x1c(%ebp)
c010d53b:	8d 45 e4             	lea    -0x1c(%ebp),%eax
c010d53e:	89 45 f4             	mov    %eax,-0xc(%ebp)
c010d541:	8b 45 e4             	mov    -0x1c(%ebp),%eax
c010d544:	89 45 f0             	mov    %eax,-0x10(%ebp)
c010d547:	eb 39                	jmp    c010d582 <remove_free_frame+0x8c>
c010d549:	8b 45 f0             	mov    -0x10(%ebp),%eax
c010d54c:	8b 00                	mov    (%eax),%eax
c010d54e:	8b 58 04             	mov    0x4(%eax),%ebx
c010d551:	0f b6 45 d4          	movzbl -0x2c(%ebp),%eax
c010d555:	be 00 10 00 00       	mov    $0x1000,%esi
c010d55a:	89 c1                	mov    %eax,%ecx
c010d55c:	d3 e6                	shl    %cl,%esi
c010d55e:	89 f0                	mov    %esi,%eax
c010d560:	01 d8                	add    %ebx,%eax
c010d562:	39 45 0c             	cmp    %eax,0xc(%ebp)
c010d565:	73 0d                	jae    c010d574 <remove_free_frame+0x7e>
c010d567:	8b 45 f0             	mov    -0x10(%ebp),%eax
c010d56a:	8b 00                	mov    (%eax),%eax
c010d56c:	8b 40 04             	mov    0x4(%eax),%eax
c010d56f:	39 45 0c             	cmp    %eax,0xc(%ebp)
c010d572:	73 19                	jae    c010d58d <remove_free_frame+0x97>
c010d574:	8b 45 f0             	mov    -0x10(%ebp),%eax
c010d577:	89 45 f4             	mov    %eax,-0xc(%ebp)
c010d57a:	8b 45 f0             	mov    -0x10(%ebp),%eax
c010d57d:	8b 00                	mov    (%eax),%eax
c010d57f:	89 45 f0             	mov    %eax,-0x10(%ebp)
c010d582:	8b 45 f0             	mov    -0x10(%ebp),%eax
c010d585:	8b 00                	mov    (%eax),%eax
c010d587:	85 c0                	test   %eax,%eax
c010d589:	75 be                	jne    c010d549 <remove_free_frame+0x53>
c010d58b:	eb 01                	jmp    c010d58e <remove_free_frame+0x98>
c010d58d:	90                   	nop
c010d58e:	8b 45 f0             	mov    -0x10(%ebp),%eax
c010d591:	8b 00                	mov    (%eax),%eax
c010d593:	8b 00                	mov    (%eax),%eax
c010d595:	89 45 e8             	mov    %eax,-0x18(%ebp)
c010d598:	8b 45 f0             	mov    -0x10(%ebp),%eax
c010d59b:	8b 00                	mov    (%eax),%eax
c010d59d:	83 ec 0c             	sub    $0xc,%esp
c010d5a0:	50                   	push   %eax
c010d5a1:	89 d3                	mov    %edx,%ebx
c010d5a3:	e8 09 13 00 00       	call   c010e8b1 <kfree>
c010d5a8:	83 c4 10             	add    $0x10,%esp
c010d5ab:	8b 45 f4             	mov    -0xc(%ebp),%eax
c010d5ae:	8b 00                	mov    (%eax),%eax
c010d5b0:	8b 55 e8             	mov    -0x18(%ebp),%edx
c010d5b3:	89 10                	mov    %edx,(%eax)
c010d5b5:	8b 45 ec             	mov    -0x14(%ebp),%eax
c010d5b8:	8b 40 08             	mov    0x8(%eax),%eax
c010d5bb:	8d 50 ff             	lea    -0x1(%eax),%edx
c010d5be:	8b 45 ec             	mov    -0x14(%ebp),%eax
c010d5c1:	89 50 08             	mov    %edx,0x8(%eax)
c010d5c4:	eb 01                	jmp    c010d5c7 <remove_free_frame+0xd1>
c010d5c6:	90                   	nop
c010d5c7:	8d 65 f8             	lea    -0x8(%ebp),%esp
c010d5ca:	5b                   	pop    %ebx
c010d5cb:	5e                   	pop    %esi
c010d5cc:	5d                   	pop    %ebp
c010d5cd:	c3                   	ret

c010d5ce <remove_free_head>:
c010d5ce:	55                   	push   %ebp
c010d5cf:	89 e5                	mov    %esp,%ebp
c010d5d1:	53                   	push   %ebx
c010d5d2:	83 ec 24             	sub    $0x24,%esp
c010d5d5:	e8 6b 14 00 00       	call   c010ea45 <__x86.get_pc_thunk.dx>
c010d5da:	81 c2 52 50 00 00    	add    $0x5052,%edx
c010d5e0:	8b 45 08             	mov    0x8(%ebp),%eax
c010d5e3:	88 45 e4             	mov    %al,-0x1c(%ebp)
c010d5e6:	0f b6 4d e4          	movzbl -0x1c(%ebp),%ecx
c010d5ea:	89 c8                	mov    %ecx,%eax
c010d5ec:	01 c0                	add    %eax,%eax
c010d5ee:	01 c8                	add    %ecx,%eax
c010d5f0:	c1 e0 02             	shl    $0x2,%eax
c010d5f3:	8d 8a 34 2a 01 00    	lea    0x12a34(%edx),%ecx
c010d5f9:	01 c8                	add    %ecx,%eax
c010d5fb:	89 45 f4             	mov    %eax,-0xc(%ebp)
c010d5fe:	8b 45 f4             	mov    -0xc(%ebp),%eax
c010d601:	8b 40 08             	mov    0x8(%eax),%eax
c010d604:	85 c0                	test   %eax,%eax
c010d606:	74 36                	je     c010d63e <remove_free_head+0x70>
c010d608:	8b 45 f4             	mov    -0xc(%ebp),%eax
c010d60b:	8b 00                	mov    (%eax),%eax
c010d60d:	8b 00                	mov    (%eax),%eax
c010d60f:	89 45 f0             	mov    %eax,-0x10(%ebp)
c010d612:	8b 45 f4             	mov    -0xc(%ebp),%eax
c010d615:	8b 00                	mov    (%eax),%eax
c010d617:	83 ec 0c             	sub    $0xc,%esp
c010d61a:	50                   	push   %eax
c010d61b:	89 d3                	mov    %edx,%ebx
c010d61d:	e8 8f 12 00 00       	call   c010e8b1 <kfree>
c010d622:	83 c4 10             	add    $0x10,%esp
c010d625:	8b 45 f4             	mov    -0xc(%ebp),%eax
c010d628:	8b 55 f0             	mov    -0x10(%ebp),%edx
c010d62b:	89 10                	mov    %edx,(%eax)
c010d62d:	8b 45 f4             	mov    -0xc(%ebp),%eax
c010d630:	8b 40 08             	mov    0x8(%eax),%eax
c010d633:	8d 50 ff             	lea    -0x1(%eax),%edx
c010d636:	8b 45 f4             	mov    -0xc(%ebp),%eax
c010d639:	89 50 08             	mov    %edx,0x8(%eax)
c010d63c:	eb 01                	jmp    c010d63f <remove_free_head+0x71>
c010d63e:	90                   	nop
c010d63f:	8b 5d fc             	mov    -0x4(%ebp),%ebx
c010d642:	c9                   	leave
c010d643:	c3                   	ret

c010d644 <set_addrs>:
c010d644:	55                   	push   %ebp
c010d645:	89 e5                	mov    %esp,%ebp
c010d647:	53                   	push   %ebx
c010d648:	83 ec 14             	sub    $0x14,%esp
c010d64b:	e8 e9 13 00 00       	call   c010ea39 <__x86.get_pc_thunk.ax>
c010d650:	05 dc 4f 00 00       	add    $0x4fdc,%eax
c010d655:	8b 45 14             	mov    0x14(%ebp),%eax
c010d658:	66 89 45 e8          	mov    %ax,-0x18(%ebp)
c010d65c:	c7 45 f8 00 00 00 00 	movl   $0x0,-0x8(%ebp)
c010d663:	eb 29                	jmp    c010d68e <set_addrs+0x4a>
c010d665:	8b 45 f8             	mov    -0x8(%ebp),%eax
c010d668:	c1 e0 0c             	shl    $0xc,%eax
c010d66b:	89 c2                	mov    %eax,%edx
c010d66d:	8b 45 0c             	mov    0xc(%ebp),%eax
c010d670:	8d 0c 02             	lea    (%edx,%eax,1),%ecx
c010d673:	0f b7 55 e8          	movzwl -0x18(%ebp),%edx
c010d677:	8b 45 f8             	mov    -0x8(%ebp),%eax
c010d67a:	8d 1c 85 00 00 00 00 	lea    0x0(,%eax,4),%ebx
c010d681:	8b 45 08             	mov    0x8(%ebp),%eax
c010d684:	01 d8                	add    %ebx,%eax
c010d686:	09 ca                	or     %ecx,%edx
c010d688:	89 10                	mov    %edx,(%eax)
c010d68a:	83 45 f8 01          	addl   $0x1,-0x8(%ebp)
c010d68e:	8b 45 f8             	mov    -0x8(%ebp),%eax
c010d691:	3b 45 10             	cmp    0x10(%ebp),%eax
c010d694:	72 cf                	jb     c010d665 <set_addrs+0x21>
c010d696:	90                   	nop
c010d697:	90                   	nop
c010d698:	8b 5d fc             	mov    -0x4(%ebp),%ebx
c010d69b:	c9                   	leave
c010d69c:	c3                   	ret

c010d69d <addr_to_map_id>:
c010d69d:	55                   	push   %ebp
c010d69e:	89 e5                	mov    %esp,%ebp
c010d6a0:	53                   	push   %ebx
c010d6a1:	83 ec 14             	sub    $0x14,%esp
c010d6a4:	e8 90 13 00 00       	call   c010ea39 <__x86.get_pc_thunk.ax>
c010d6a9:	05 83 4f 00 00       	add    $0x4f83,%eax
c010d6ae:	8b 45 0c             	mov    0xc(%ebp),%eax
c010d6b1:	88 45 e8             	mov    %al,-0x18(%ebp)
c010d6b4:	0f b6 45 e8          	movzbl -0x18(%ebp),%eax
c010d6b8:	83 c0 11             	add    $0x11,%eax
c010d6bb:	8b 55 10             	mov    0x10(%ebp),%edx
c010d6be:	89 c1                	mov    %eax,%ecx
c010d6c0:	d3 ea                	shr    %cl,%edx
c010d6c2:	89 d0                	mov    %edx,%eax
c010d6c4:	89 45 f4             	mov    %eax,-0xc(%ebp)
c010d6c7:	8b 45 f4             	mov    -0xc(%ebp),%eax
c010d6ca:	0f b6 55 e8          	movzbl -0x18(%ebp),%edx
c010d6ce:	bb 00 00 02 00       	mov    $0x20000,%ebx
c010d6d3:	89 d1                	mov    %edx,%ecx
c010d6d5:	d3 e3                	shl    %cl,%ebx
c010d6d7:	89 da                	mov    %ebx,%edx
c010d6d9:	0f af c2             	imul   %edx,%eax
c010d6dc:	8b 55 10             	mov    0x10(%ebp),%edx
c010d6df:	29 c2                	sub    %eax,%edx
c010d6e1:	0f b6 45 e8          	movzbl -0x18(%ebp),%eax
c010d6e5:	83 c0 0c             	add    $0xc,%eax
c010d6e8:	89 c1                	mov    %eax,%ecx
c010d6ea:	d3 ea                	shr    %cl,%edx
c010d6ec:	89 d0                	mov    %edx,%eax
c010d6ee:	89 45 f8             	mov    %eax,-0x8(%ebp)
c010d6f1:	8b 4d 08             	mov    0x8(%ebp),%ecx
c010d6f4:	8b 45 f4             	mov    -0xc(%ebp),%eax
c010d6f7:	8b 55 f8             	mov    -0x8(%ebp),%edx
c010d6fa:	89 01                	mov    %eax,(%ecx)
c010d6fc:	89 51 04             	mov    %edx,0x4(%ecx)
c010d6ff:	8b 45 08             	mov    0x8(%ebp),%eax
c010d702:	8b 5d fc             	mov    -0x4(%ebp),%ebx
c010d705:	c9                   	leave
c010d706:	c2 04 00             	ret    $0x4

c010d709 <map_to_addr>:
c010d709:	55                   	push   %ebp
c010d70a:	89 e5                	mov    %esp,%ebp
c010d70c:	83 ec 14             	sub    $0x14,%esp
c010d70f:	e8 25 13 00 00       	call   c010ea39 <__x86.get_pc_thunk.ax>
c010d714:	05 18 4f 00 00       	add    $0x4f18,%eax
c010d719:	8b 45 08             	mov    0x8(%ebp),%eax
c010d71c:	88 45 ec             	mov    %al,-0x14(%ebp)
c010d71f:	8b 45 0c             	mov    0xc(%ebp),%eax
c010d722:	c1 e0 11             	shl    $0x11,%eax
c010d725:	89 c2                	mov    %eax,%edx
c010d727:	0f b6 45 ec          	movzbl -0x14(%ebp),%eax
c010d72b:	89 c1                	mov    %eax,%ecx
c010d72d:	d3 e2                	shl    %cl,%edx
c010d72f:	89 d0                	mov    %edx,%eax
c010d731:	89 45 fc             	mov    %eax,-0x4(%ebp)
c010d734:	8b 45 10             	mov    0x10(%ebp),%eax
c010d737:	c1 e0 0c             	shl    $0xc,%eax
c010d73a:	89 c2                	mov    %eax,%edx
c010d73c:	0f b6 45 ec          	movzbl -0x14(%ebp),%eax
c010d740:	89 c1                	mov    %eax,%ecx
c010d742:	d3 e2                	shl    %cl,%edx
c010d744:	89 d0                	mov    %edx,%eax
c010d746:	89 45 f8             	mov    %eax,-0x8(%ebp)
c010d749:	8b 55 fc             	mov    -0x4(%ebp),%edx
c010d74c:	8b 45 f8             	mov    -0x8(%ebp),%eax
c010d74f:	01 d0                	add    %edx,%eax
c010d751:	c9                   	leave
c010d752:	c3                   	ret

c010d753 <set_frame_unused>:
c010d753:	55                   	push   %ebp
c010d754:	89 e5                	mov    %esp,%ebp
c010d756:	56                   	push   %esi
c010d757:	53                   	push   %ebx
c010d758:	83 ec 14             	sub    $0x14,%esp
c010d75b:	e8 dd 12 00 00       	call   c010ea3d <__x86.get_pc_thunk.bx>
c010d760:	81 c3 cc 4e 00 00    	add    $0x4ecc,%ebx
c010d766:	8b 45 08             	mov    0x8(%ebp),%eax
c010d769:	88 45 e4             	mov    %al,-0x1c(%ebp)
c010d76c:	0f b6 55 e4          	movzbl -0x1c(%ebp),%edx
c010d770:	8d 45 f0             	lea    -0x10(%ebp),%eax
c010d773:	ff 75 0c             	push   0xc(%ebp)
c010d776:	52                   	push   %edx
c010d777:	50                   	push   %eax
c010d778:	e8 20 ff ff ff       	call   c010d69d <addr_to_map_id>
c010d77d:	83 c4 08             	add    $0x8,%esp
c010d780:	0f b6 45 e4          	movzbl -0x1c(%ebp),%eax
c010d784:	8b 84 83 d4 2a 01 00 	mov    0x12ad4(%ebx,%eax,4),%eax
c010d78b:	8b 55 f0             	mov    -0x10(%ebp),%edx
c010d78e:	c1 e2 02             	shl    $0x2,%edx
c010d791:	01 d0                	add    %edx,%eax
c010d793:	8b 10                	mov    (%eax),%edx
c010d795:	8b 45 f4             	mov    -0xc(%ebp),%eax
c010d798:	be 01 00 00 00       	mov    $0x1,%esi
c010d79d:	89 c1                	mov    %eax,%ecx
c010d79f:	d3 e6                	shl    %cl,%esi
c010d7a1:	89 f0                	mov    %esi,%eax
c010d7a3:	f7 d0                	not    %eax
c010d7a5:	89 c6                	mov    %eax,%esi
c010d7a7:	0f b6 45 e4          	movzbl -0x1c(%ebp),%eax
c010d7ab:	8b 84 83 d4 2a 01 00 	mov    0x12ad4(%ebx,%eax,4),%eax
c010d7b2:	8b 4d f0             	mov    -0x10(%ebp),%ecx
c010d7b5:	c1 e1 02             	shl    $0x2,%ecx
c010d7b8:	01 c8                	add    %ecx,%eax
c010d7ba:	21 f2                	and    %esi,%edx
c010d7bc:	89 10                	mov    %edx,(%eax)
c010d7be:	90                   	nop
c010d7bf:	8d 65 f8             	lea    -0x8(%ebp),%esp
c010d7c2:	5b                   	pop    %ebx
c010d7c3:	5e                   	pop    %esi
c010d7c4:	5d                   	pop    %ebp
c010d7c5:	c3                   	ret

c010d7c6 <set_frame_used>:
c010d7c6:	55                   	push   %ebp
c010d7c7:	89 e5                	mov    %esp,%ebp
c010d7c9:	56                   	push   %esi
c010d7ca:	53                   	push   %ebx
c010d7cb:	83 ec 14             	sub    $0x14,%esp
c010d7ce:	e8 6a 12 00 00       	call   c010ea3d <__x86.get_pc_thunk.bx>
c010d7d3:	81 c3 59 4e 00 00    	add    $0x4e59,%ebx
c010d7d9:	8b 45 08             	mov    0x8(%ebp),%eax
c010d7dc:	88 45 e4             	mov    %al,-0x1c(%ebp)
c010d7df:	0f b6 55 e4          	movzbl -0x1c(%ebp),%edx
c010d7e3:	8d 45 f0             	lea    -0x10(%ebp),%eax
c010d7e6:	ff 75 0c             	push   0xc(%ebp)
c010d7e9:	52                   	push   %edx
c010d7ea:	50                   	push   %eax
c010d7eb:	e8 ad fe ff ff       	call   c010d69d <addr_to_map_id>
c010d7f0:	83 c4 08             	add    $0x8,%esp
c010d7f3:	0f b6 45 e4          	movzbl -0x1c(%ebp),%eax
c010d7f7:	8b 84 83 d4 2a 01 00 	mov    0x12ad4(%ebx,%eax,4),%eax
c010d7fe:	8b 55 f0             	mov    -0x10(%ebp),%edx
c010d801:	c1 e2 02             	shl    $0x2,%edx
c010d804:	01 d0                	add    %edx,%eax
c010d806:	8b 10                	mov    (%eax),%edx
c010d808:	8b 45 f4             	mov    -0xc(%ebp),%eax
c010d80b:	be 01 00 00 00       	mov    $0x1,%esi
c010d810:	89 c1                	mov    %eax,%ecx
c010d812:	d3 e6                	shl    %cl,%esi
c010d814:	89 f0                	mov    %esi,%eax
c010d816:	89 c6                	mov    %eax,%esi
c010d818:	0f b6 45 e4          	movzbl -0x1c(%ebp),%eax
c010d81c:	8b 84 83 d4 2a 01 00 	mov    0x12ad4(%ebx,%eax,4),%eax
c010d823:	8b 4d f0             	mov    -0x10(%ebp),%ecx
c010d826:	c1 e1 02             	shl    $0x2,%ecx
c010d829:	01 c8                	add    %ecx,%eax
c010d82b:	09 f2                	or     %esi,%edx
c010d82d:	89 10                	mov    %edx,(%eax)
c010d82f:	90                   	nop
c010d830:	8d 65 f8             	lea    -0x8(%ebp),%esp
c010d833:	5b                   	pop    %ebx
c010d834:	5e                   	pop    %esi
c010d835:	5d                   	pop    %ebp
c010d836:	c3                   	ret

c010d837 <buddy_slice>:
c010d837:	55                   	push   %ebp
c010d838:	89 e5                	mov    %esp,%ebp
c010d83a:	53                   	push   %ebx
c010d83b:	83 ec 24             	sub    $0x24,%esp
c010d83e:	e8 fa 11 00 00       	call   c010ea3d <__x86.get_pc_thunk.bx>
c010d843:	81 c3 e9 4d 00 00    	add    $0x4de9,%ebx
c010d849:	8b 55 0c             	mov    0xc(%ebp),%edx
c010d84c:	8b 45 10             	mov    0x10(%ebp),%eax
c010d84f:	88 55 e4             	mov    %dl,-0x1c(%ebp)
c010d852:	88 45 e0             	mov    %al,-0x20(%ebp)
c010d855:	0f b6 45 e4          	movzbl -0x1c(%ebp),%eax
c010d859:	ff 75 08             	push   0x8(%ebp)
c010d85c:	50                   	push   %eax
c010d85d:	e8 64 ff ff ff       	call   c010d7c6 <set_frame_used>
c010d862:	83 c4 08             	add    $0x8,%esp
c010d865:	0f b6 45 e4          	movzbl -0x1c(%ebp),%eax
c010d869:	8d 50 ff             	lea    -0x1(%eax),%edx
c010d86c:	89 d0                	mov    %edx,%eax
c010d86e:	01 c0                	add    %eax,%eax
c010d870:	01 d0                	add    %edx,%eax
c010d872:	c1 e0 02             	shl    $0x2,%eax
c010d875:	8d 93 34 2a 01 00    	lea    0x12a34(%ebx),%edx
c010d87b:	01 d0                	add    %edx,%eax
c010d87d:	89 45 f0             	mov    %eax,-0x10(%ebp)
c010d880:	0f b6 45 e4          	movzbl -0x1c(%ebp),%eax
c010d884:	ba 00 10 00 00       	mov    $0x1000,%edx
c010d889:	89 c1                	mov    %eax,%ecx
c010d88b:	d3 e2                	shl    %cl,%edx
c010d88d:	89 d0                	mov    %edx,%eax
c010d88f:	89 c2                	mov    %eax,%edx
c010d891:	c1 ea 1f             	shr    $0x1f,%edx
c010d894:	01 d0                	add    %edx,%eax
c010d896:	d1 f8                	sar    %eax
c010d898:	89 c2                	mov    %eax,%edx
c010d89a:	8b 45 08             	mov    0x8(%ebp),%eax
c010d89d:	01 d0                	add    %edx,%eax
c010d89f:	89 45 f4             	mov    %eax,-0xc(%ebp)
c010d8a2:	0f b6 45 e4          	movzbl -0x1c(%ebp),%eax
c010d8a6:	83 e8 01             	sub    $0x1,%eax
c010d8a9:	0f b6 c0             	movzbl %al,%eax
c010d8ac:	83 ec 04             	sub    $0x4,%esp
c010d8af:	ff 75 f4             	push   -0xc(%ebp)
c010d8b2:	50                   	push   %eax
c010d8b3:	8d 45 f0             	lea    -0x10(%ebp),%eax
c010d8b6:	50                   	push   %eax
c010d8b7:	e8 9b fb ff ff       	call   c010d457 <insert_buddy>
c010d8bc:	83 c4 10             	add    $0x10,%esp
c010d8bf:	0f b6 45 e4          	movzbl -0x1c(%ebp),%eax
c010d8c3:	8d 50 ff             	lea    -0x1(%eax),%edx
c010d8c6:	0f b6 45 e0          	movzbl -0x20(%ebp),%eax
c010d8ca:	39 c2                	cmp    %eax,%edx
c010d8cc:	7e 20                	jle    c010d8ee <buddy_slice+0xb7>
c010d8ce:	0f b6 55 e0          	movzbl -0x20(%ebp),%edx
c010d8d2:	0f b6 45 e4          	movzbl -0x1c(%ebp),%eax
c010d8d6:	83 e8 01             	sub    $0x1,%eax
c010d8d9:	0f b6 c0             	movzbl %al,%eax
c010d8dc:	83 ec 04             	sub    $0x4,%esp
c010d8df:	52                   	push   %edx
c010d8e0:	50                   	push   %eax
c010d8e1:	ff 75 08             	push   0x8(%ebp)
c010d8e4:	e8 4e ff ff ff       	call   c010d837 <buddy_slice>
c010d8e9:	83 c4 10             	add    $0x10,%esp
c010d8ec:	eb 16                	jmp    c010d904 <buddy_slice+0xcd>
c010d8ee:	0f b6 45 e0          	movzbl -0x20(%ebp),%eax
c010d8f2:	83 ec 08             	sub    $0x8,%esp
c010d8f5:	ff 75 08             	push   0x8(%ebp)
c010d8f8:	50                   	push   %eax
c010d8f9:	e8 c8 fe ff ff       	call   c010d7c6 <set_frame_used>
c010d8fe:	83 c4 10             	add    $0x10,%esp
c010d901:	8b 45 08             	mov    0x8(%ebp),%eax
c010d904:	8b 5d fc             	mov    -0x4(%ebp),%ebx
c010d907:	c9                   	leave
c010d908:	c3                   	ret

c010d909 <buddy_alloc_frames_max_order>:
c010d909:	55                   	push   %ebp
c010d90a:	89 e5                	mov    %esp,%ebp
c010d90c:	53                   	push   %ebx
c010d90d:	83 ec 34             	sub    $0x34,%esp
c010d910:	e8 28 11 00 00       	call   c010ea3d <__x86.get_pc_thunk.bx>
c010d915:	81 c3 17 4d 00 00    	add    $0x4d17,%ebx
c010d91b:	8b 45 10             	mov    0x10(%ebp),%eax
c010d91e:	66 89 45 d4          	mov    %ax,-0x2c(%ebp)
c010d922:	ff 75 0c             	push   0xc(%ebp)
c010d925:	e8 a7 fa ff ff       	call   c010d3d1 <get_buddy_order>
c010d92a:	83 c4 04             	add    $0x4,%esp
c010d92d:	88 45 f3             	mov    %al,-0xd(%ebp)
c010d930:	0f b6 55 f3          	movzbl -0xd(%ebp),%edx
c010d934:	8d 8b 34 2a 01 00    	lea    0x12a34(%ebx),%ecx
c010d93a:	89 d0                	mov    %edx,%eax
c010d93c:	01 c0                	add    %eax,%eax
c010d93e:	01 d0                	add    %edx,%eax
c010d940:	c1 e0 02             	shl    $0x2,%eax
c010d943:	01 c8                	add    %ecx,%eax
c010d945:	8b 00                	mov    (%eax),%eax
c010d947:	89 45 ec             	mov    %eax,-0x14(%ebp)
c010d94a:	0f b6 55 f3          	movzbl -0xd(%ebp),%edx
c010d94e:	8d 8b 3c 2a 01 00    	lea    0x12a3c(%ebx),%ecx
c010d954:	89 d0                	mov    %edx,%eax
c010d956:	01 c0                	add    %eax,%eax
c010d958:	01 d0                	add    %edx,%eax
c010d95a:	c1 e0 02             	shl    $0x2,%eax
c010d95d:	01 c8                	add    %ecx,%eax
c010d95f:	8b 00                	mov    (%eax),%eax
c010d961:	85 c0                	test   %eax,%eax
c010d963:	74 4b                	je     c010d9b0 <buddy_alloc_frames_max_order+0xa7>
c010d965:	0f b6 45 f3          	movzbl -0xd(%ebp),%eax
c010d969:	83 ec 0c             	sub    $0xc,%esp
c010d96c:	50                   	push   %eax
c010d96d:	e8 5c fc ff ff       	call   c010d5ce <remove_free_head>
c010d972:	83 c4 10             	add    $0x10,%esp
c010d975:	0f b7 55 d4          	movzwl -0x2c(%ebp),%edx
c010d979:	8b 45 ec             	mov    -0x14(%ebp),%eax
c010d97c:	8b 40 04             	mov    0x4(%eax),%eax
c010d97f:	52                   	push   %edx
c010d980:	ff 75 0c             	push   0xc(%ebp)
c010d983:	50                   	push   %eax
c010d984:	ff 75 08             	push   0x8(%ebp)
c010d987:	e8 b8 fc ff ff       	call   c010d644 <set_addrs>
c010d98c:	83 c4 10             	add    $0x10,%esp
c010d98f:	8b 45 ec             	mov    -0x14(%ebp),%eax
c010d992:	8b 50 04             	mov    0x4(%eax),%edx
c010d995:	0f b6 45 f3          	movzbl -0xd(%ebp),%eax
c010d999:	83 ec 08             	sub    $0x8,%esp
c010d99c:	52                   	push   %edx
c010d99d:	50                   	push   %eax
c010d99e:	e8 23 fe ff ff       	call   c010d7c6 <set_frame_used>
c010d9a3:	83 c4 10             	add    $0x10,%esp
c010d9a6:	b8 00 00 00 00       	mov    $0x0,%eax
c010d9ab:	e9 f3 00 00 00       	jmp    c010daa3 <buddy_alloc_frames_max_order+0x19a>
c010d9b0:	0f b6 45 f3          	movzbl -0xd(%ebp),%eax
c010d9b4:	83 c0 01             	add    $0x1,%eax
c010d9b7:	89 45 f4             	mov    %eax,-0xc(%ebp)
c010d9ba:	e9 8e 00 00 00       	jmp    c010da4d <buddy_alloc_frames_max_order+0x144>
c010d9bf:	8b 55 f4             	mov    -0xc(%ebp),%edx
c010d9c2:	8d 8b 34 2a 01 00    	lea    0x12a34(%ebx),%ecx
c010d9c8:	89 d0                	mov    %edx,%eax
c010d9ca:	01 c0                	add    %eax,%eax
c010d9cc:	01 d0                	add    %edx,%eax
c010d9ce:	c1 e0 02             	shl    $0x2,%eax
c010d9d1:	01 c8                	add    %ecx,%eax
c010d9d3:	8b 00                	mov    (%eax),%eax
c010d9d5:	89 45 e4             	mov    %eax,-0x1c(%ebp)
c010d9d8:	8b 55 f4             	mov    -0xc(%ebp),%edx
c010d9db:	89 d0                	mov    %edx,%eax
c010d9dd:	01 c0                	add    %eax,%eax
c010d9df:	01 d0                	add    %edx,%eax
c010d9e1:	c1 e0 02             	shl    $0x2,%eax
c010d9e4:	8d 93 34 2a 01 00    	lea    0x12a34(%ebx),%edx
c010d9ea:	01 d0                	add    %edx,%eax
c010d9ec:	89 45 e0             	mov    %eax,-0x20(%ebp)
c010d9ef:	8b 45 e0             	mov    -0x20(%ebp),%eax
c010d9f2:	8b 40 08             	mov    0x8(%eax),%eax
c010d9f5:	85 c0                	test   %eax,%eax
c010d9f7:	74 50                	je     c010da49 <buddy_alloc_frames_max_order+0x140>
c010d9f9:	8b 45 f4             	mov    -0xc(%ebp),%eax
c010d9fc:	0f b6 c0             	movzbl %al,%eax
c010d9ff:	83 ec 0c             	sub    $0xc,%esp
c010da02:	50                   	push   %eax
c010da03:	e8 c6 fb ff ff       	call   c010d5ce <remove_free_head>
c010da08:	83 c4 10             	add    $0x10,%esp
c010da0b:	0f b6 4d f3          	movzbl -0xd(%ebp),%ecx
c010da0f:	8b 45 f4             	mov    -0xc(%ebp),%eax
c010da12:	0f b6 d0             	movzbl %al,%edx
c010da15:	8b 45 e4             	mov    -0x1c(%ebp),%eax
c010da18:	8b 40 04             	mov    0x4(%eax),%eax
c010da1b:	83 ec 04             	sub    $0x4,%esp
c010da1e:	51                   	push   %ecx
c010da1f:	52                   	push   %edx
c010da20:	50                   	push   %eax
c010da21:	e8 11 fe ff ff       	call   c010d837 <buddy_slice>
c010da26:	83 c4 10             	add    $0x10,%esp
c010da29:	89 45 dc             	mov    %eax,-0x24(%ebp)
c010da2c:	0f b7 45 d4          	movzwl -0x2c(%ebp),%eax
c010da30:	50                   	push   %eax
c010da31:	ff 75 0c             	push   0xc(%ebp)
c010da34:	ff 75 dc             	push   -0x24(%ebp)
c010da37:	ff 75 08             	push   0x8(%ebp)
c010da3a:	e8 05 fc ff ff       	call   c010d644 <set_addrs>
c010da3f:	83 c4 10             	add    $0x10,%esp
c010da42:	b8 00 00 00 00       	mov    $0x0,%eax
c010da47:	eb 5a                	jmp    c010daa3 <buddy_alloc_frames_max_order+0x19a>
c010da49:	83 45 f4 01          	addl   $0x1,-0xc(%ebp)
c010da4d:	83 7d f4 0a          	cmpl   $0xa,-0xc(%ebp)
c010da51:	0f 86 68 ff ff ff    	jbe    c010d9bf <buddy_alloc_frames_max_order+0xb6>
c010da57:	8b 45 0c             	mov    0xc(%ebp),%eax
c010da5a:	d1 e8                	shr    %eax
c010da5c:	89 45 e8             	mov    %eax,-0x18(%ebp)
c010da5f:	0f b7 45 d4          	movzwl -0x2c(%ebp),%eax
c010da63:	83 ec 04             	sub    $0x4,%esp
c010da66:	50                   	push   %eax
c010da67:	ff 75 e8             	push   -0x18(%ebp)
c010da6a:	ff 75 08             	push   0x8(%ebp)
c010da6d:	e8 97 fe ff ff       	call   c010d909 <buddy_alloc_frames_max_order>
c010da72:	83 c4 10             	add    $0x10,%esp
c010da75:	85 c0                	test   %eax,%eax
c010da77:	74 07                	je     c010da80 <buddy_alloc_frames_max_order+0x177>
c010da79:	b8 03 00 00 00       	mov    $0x3,%eax
c010da7e:	eb 23                	jmp    c010daa3 <buddy_alloc_frames_max_order+0x19a>
c010da80:	0f b7 45 d4          	movzwl -0x2c(%ebp),%eax
c010da84:	8b 55 e8             	mov    -0x18(%ebp),%edx
c010da87:	8d 0c 95 00 00 00 00 	lea    0x0(,%edx,4),%ecx
c010da8e:	8b 55 08             	mov    0x8(%ebp),%edx
c010da91:	01 ca                	add    %ecx,%edx
c010da93:	83 ec 04             	sub    $0x4,%esp
c010da96:	50                   	push   %eax
c010da97:	ff 75 e8             	push   -0x18(%ebp)
c010da9a:	52                   	push   %edx
c010da9b:	e8 69 fe ff ff       	call   c010d909 <buddy_alloc_frames_max_order>
c010daa0:	83 c4 10             	add    $0x10,%esp
c010daa3:	8b 5d fc             	mov    -0x4(%ebp),%ebx
c010daa6:	c9                   	leave
c010daa7:	c3                   	ret

c010daa8 <buddy_alloc_frames>:
c010daa8:	55                   	push   %ebp
c010daa9:	89 e5                	mov    %esp,%ebp
c010daab:	83 ec 28             	sub    $0x28,%esp
c010daae:	e8 86 0f 00 00       	call   c010ea39 <__x86.get_pc_thunk.ax>
c010dab3:	05 79 4b 00 00       	add    $0x4b79,%eax
c010dab8:	8b 45 10             	mov    0x10(%ebp),%eax
c010dabb:	66 89 45 e4          	mov    %ax,-0x1c(%ebp)
c010dabf:	83 7d 08 00          	cmpl   $0x0,0x8(%ebp)
c010dac3:	75 07                	jne    c010dacc <buddy_alloc_frames+0x24>
c010dac5:	b8 02 00 00 00       	mov    $0x2,%eax
c010daca:	eb 69                	jmp    c010db35 <buddy_alloc_frames+0x8d>
c010dacc:	8b 45 0c             	mov    0xc(%ebp),%eax
c010dacf:	c1 e8 0a             	shr    $0xa,%eax
c010dad2:	89 45 f4             	mov    %eax,-0xc(%ebp)
c010dad5:	8b 45 0c             	mov    0xc(%ebp),%eax
c010dad8:	25 ff 03 00 00       	and    $0x3ff,%eax
c010dadd:	85 c0                	test   %eax,%eax
c010dadf:	74 04                	je     c010dae5 <buddy_alloc_frames+0x3d>
c010dae1:	83 45 f4 01          	addl   $0x1,-0xc(%ebp)
c010dae5:	c7 45 f0 00 00 00 00 	movl   $0x0,-0x10(%ebp)
c010daec:	eb 3a                	jmp    c010db28 <buddy_alloc_frames+0x80>
c010daee:	8b 45 f0             	mov    -0x10(%ebp),%eax
c010daf1:	c1 e0 0a             	shl    $0xa,%eax
c010daf4:	89 c2                	mov    %eax,%edx
c010daf6:	8b 45 0c             	mov    0xc(%ebp),%eax
c010daf9:	29 d0                	sub    %edx,%eax
c010dafb:	89 45 ec             	mov    %eax,-0x14(%ebp)
c010dafe:	81 7d ec 00 04 00 00 	cmpl   $0x400,-0x14(%ebp)
c010db05:	76 07                	jbe    c010db0e <buddy_alloc_frames+0x66>
c010db07:	c7 45 ec 00 04 00 00 	movl   $0x400,-0x14(%ebp)
c010db0e:	0f b7 45 e4          	movzwl -0x1c(%ebp),%eax
c010db12:	83 ec 04             	sub    $0x4,%esp
c010db15:	50                   	push   %eax
c010db16:	ff 75 ec             	push   -0x14(%ebp)
c010db19:	ff 75 08             	push   0x8(%ebp)
c010db1c:	e8 e8 fd ff ff       	call   c010d909 <buddy_alloc_frames_max_order>
c010db21:	83 c4 10             	add    $0x10,%esp
c010db24:	83 45 f0 01          	addl   $0x1,-0x10(%ebp)
c010db28:	8b 45 f0             	mov    -0x10(%ebp),%eax
c010db2b:	3b 45 f4             	cmp    -0xc(%ebp),%eax
c010db2e:	72 be                	jb     c010daee <buddy_alloc_frames+0x46>
c010db30:	b8 00 00 00 00       	mov    $0x0,%eax
c010db35:	c9                   	leave
c010db36:	c3                   	ret

c010db37 <buddy_alloc_at_addr>:
c010db37:	55                   	push   %ebp
c010db38:	89 e5                	mov    %esp,%ebp
c010db3a:	53                   	push   %ebx
c010db3b:	83 ec 24             	sub    $0x24,%esp
c010db3e:	e8 fa 0e 00 00       	call   c010ea3d <__x86.get_pc_thunk.bx>
c010db43:	81 c3 e9 4a 00 00    	add    $0x4ae9,%ebx
c010db49:	8b 45 14             	mov    0x14(%ebp),%eax
c010db4c:	66 89 45 d8          	mov    %ax,-0x28(%ebp)
c010db50:	83 7d 0c 00          	cmpl   $0x0,0xc(%ebp)
c010db54:	75 0a                	jne    c010db60 <buddy_alloc_at_addr+0x29>
c010db56:	b8 02 00 00 00       	mov    $0x2,%eax
c010db5b:	e9 17 01 00 00       	jmp    c010dc77 <buddy_alloc_at_addr+0x140>
c010db60:	ff 75 10             	push   0x10(%ebp)
c010db63:	e8 69 f8 ff ff       	call   c010d3d1 <get_buddy_order>
c010db68:	83 c4 04             	add    $0x4,%esp
c010db6b:	88 45 ef             	mov    %al,-0x11(%ebp)
c010db6e:	0f b6 55 ef          	movzbl -0x11(%ebp),%edx
c010db72:	89 d0                	mov    %edx,%eax
c010db74:	01 c0                	add    %eax,%eax
c010db76:	01 d0                	add    %edx,%eax
c010db78:	c1 e0 02             	shl    $0x2,%eax
c010db7b:	8d 93 34 2a 01 00    	lea    0x12a34(%ebx),%edx
c010db81:	01 d0                	add    %edx,%eax
c010db83:	89 45 e8             	mov    %eax,-0x18(%ebp)
c010db86:	0f b6 55 ef          	movzbl -0x11(%ebp),%edx
c010db8a:	8d 8b 3c 2a 01 00    	lea    0x12a3c(%ebx),%ecx
c010db90:	89 d0                	mov    %edx,%eax
c010db92:	01 c0                	add    %eax,%eax
c010db94:	01 d0                	add    %edx,%eax
c010db96:	c1 e0 02             	shl    $0x2,%eax
c010db99:	01 c8                	add    %ecx,%eax
c010db9b:	8b 00                	mov    (%eax),%eax
c010db9d:	85 c0                	test   %eax,%eax
c010db9f:	0f 84 cd 00 00 00    	je     c010dc72 <buddy_alloc_at_addr+0x13b>
c010dba5:	c7 45 f8 00 00 00 00 	movl   $0x0,-0x8(%ebp)
c010dbac:	8d 45 e8             	lea    -0x18(%ebp),%eax
c010dbaf:	89 45 f4             	mov    %eax,-0xc(%ebp)
c010dbb2:	0f b6 55 ef          	movzbl -0x11(%ebp),%edx
c010dbb6:	89 d0                	mov    %edx,%eax
c010dbb8:	01 c0                	add    %eax,%eax
c010dbba:	01 d0                	add    %edx,%eax
c010dbbc:	c1 e0 02             	shl    $0x2,%eax
c010dbbf:	8d 93 34 2a 01 00    	lea    0x12a34(%ebx),%edx
c010dbc5:	01 d0                	add    %edx,%eax
c010dbc7:	89 45 f0             	mov    %eax,-0x10(%ebp)
c010dbca:	eb 25                	jmp    c010dbf1 <buddy_alloc_at_addr+0xba>
c010dbcc:	8b 45 f0             	mov    -0x10(%ebp),%eax
c010dbcf:	8b 00                	mov    (%eax),%eax
c010dbd1:	8b 40 04             	mov    0x4(%eax),%eax
c010dbd4:	39 45 08             	cmp    %eax,0x8(%ebp)
c010dbd7:	75 0a                	jne    c010dbe3 <buddy_alloc_at_addr+0xac>
c010dbd9:	8b 45 f0             	mov    -0x10(%ebp),%eax
c010dbdc:	8b 00                	mov    (%eax),%eax
c010dbde:	89 45 f8             	mov    %eax,-0x8(%ebp)
c010dbe1:	eb 14                	jmp    c010dbf7 <buddy_alloc_at_addr+0xc0>
c010dbe3:	8b 45 f0             	mov    -0x10(%ebp),%eax
c010dbe6:	89 45 f4             	mov    %eax,-0xc(%ebp)
c010dbe9:	8b 45 f0             	mov    -0x10(%ebp),%eax
c010dbec:	8b 00                	mov    (%eax),%eax
c010dbee:	89 45 f0             	mov    %eax,-0x10(%ebp)
c010dbf1:	83 7d f0 00          	cmpl   $0x0,-0x10(%ebp)
c010dbf5:	75 d5                	jne    c010dbcc <buddy_alloc_at_addr+0x95>
c010dbf7:	83 7d f8 00          	cmpl   $0x0,-0x8(%ebp)
c010dbfb:	75 07                	jne    c010dc04 <buddy_alloc_at_addr+0xcd>
c010dbfd:	b8 02 00 00 00       	mov    $0x2,%eax
c010dc02:	eb 73                	jmp    c010dc77 <buddy_alloc_at_addr+0x140>
c010dc04:	0f b6 55 ef          	movzbl -0x11(%ebp),%edx
c010dc08:	8d 8b 3c 2a 01 00    	lea    0x12a3c(%ebx),%ecx
c010dc0e:	89 d0                	mov    %edx,%eax
c010dc10:	01 c0                	add    %eax,%eax
c010dc12:	01 d0                	add    %edx,%eax
c010dc14:	c1 e0 02             	shl    $0x2,%eax
c010dc17:	01 c8                	add    %ecx,%eax
c010dc19:	8b 00                	mov    (%eax),%eax
c010dc1b:	8d 48 ff             	lea    -0x1(%eax),%ecx
c010dc1e:	8d 9b 3c 2a 01 00    	lea    0x12a3c(%ebx),%ebx
c010dc24:	89 d0                	mov    %edx,%eax
c010dc26:	01 c0                	add    %eax,%eax
c010dc28:	01 d0                	add    %edx,%eax
c010dc2a:	c1 e0 02             	shl    $0x2,%eax
c010dc2d:	01 d8                	add    %ebx,%eax
c010dc2f:	89 08                	mov    %ecx,(%eax)
c010dc31:	8b 45 f4             	mov    -0xc(%ebp),%eax
c010dc34:	8b 00                	mov    (%eax),%eax
c010dc36:	8b 55 f8             	mov    -0x8(%ebp),%edx
c010dc39:	8b 12                	mov    (%edx),%edx
c010dc3b:	89 10                	mov    %edx,(%eax)
c010dc3d:	0f b7 55 d8          	movzwl -0x28(%ebp),%edx
c010dc41:	8b 45 f8             	mov    -0x8(%ebp),%eax
c010dc44:	8b 40 04             	mov    0x4(%eax),%eax
c010dc47:	52                   	push   %edx
c010dc48:	ff 75 10             	push   0x10(%ebp)
c010dc4b:	50                   	push   %eax
c010dc4c:	ff 75 0c             	push   0xc(%ebp)
c010dc4f:	e8 f0 f9 ff ff       	call   c010d644 <set_addrs>
c010dc54:	83 c4 10             	add    $0x10,%esp
c010dc57:	8b 45 f8             	mov    -0x8(%ebp),%eax
c010dc5a:	8b 50 04             	mov    0x4(%eax),%edx
c010dc5d:	0f b6 45 ef          	movzbl -0x11(%ebp),%eax
c010dc61:	52                   	push   %edx
c010dc62:	50                   	push   %eax
c010dc63:	e8 5e fb ff ff       	call   c010d7c6 <set_frame_used>
c010dc68:	83 c4 08             	add    $0x8,%esp
c010dc6b:	b8 00 00 00 00       	mov    $0x0,%eax
c010dc70:	eb 05                	jmp    c010dc77 <buddy_alloc_at_addr+0x140>
c010dc72:	b8 02 00 00 00       	mov    $0x2,%eax
c010dc77:	8b 5d fc             	mov    -0x4(%ebp),%ebx
c010dc7a:	c9                   	leave
c010dc7b:	c3                   	ret

c010dc7c <buddy_alloc_frame>:
c010dc7c:	55                   	push   %ebp
c010dc7d:	89 e5                	mov    %esp,%ebp
c010dc7f:	83 ec 18             	sub    $0x18,%esp
c010dc82:	e8 b2 0d 00 00       	call   c010ea39 <__x86.get_pc_thunk.ax>
c010dc87:	05 a5 49 00 00       	add    $0x49a5,%eax
c010dc8c:	8b 45 0c             	mov    0xc(%ebp),%eax
c010dc8f:	66 89 45 f4          	mov    %ax,-0xc(%ebp)
c010dc93:	0f b7 45 f4          	movzwl -0xc(%ebp),%eax
c010dc97:	83 ec 04             	sub    $0x4,%esp
c010dc9a:	50                   	push   %eax
c010dc9b:	6a 01                	push   $0x1
c010dc9d:	ff 75 08             	push   0x8(%ebp)
c010dca0:	e8 03 fe ff ff       	call   c010daa8 <buddy_alloc_frames>
c010dca5:	83 c4 10             	add    $0x10,%esp
c010dca8:	c9                   	leave
c010dca9:	c3                   	ret

c010dcaa <buddy_coalesce>:
c010dcaa:	55                   	push   %ebp
c010dcab:	89 e5                	mov    %esp,%ebp
c010dcad:	53                   	push   %ebx
c010dcae:	83 ec 34             	sub    $0x34,%esp
c010dcb1:	e8 87 0d 00 00       	call   c010ea3d <__x86.get_pc_thunk.bx>
c010dcb6:	81 c3 76 49 00 00    	add    $0x4976,%ebx
c010dcbc:	8b 45 08             	mov    0x8(%ebp),%eax
c010dcbf:	88 45 d4             	mov    %al,-0x2c(%ebp)
c010dcc2:	0f b6 55 d4          	movzbl -0x2c(%ebp),%edx
c010dcc6:	8d 45 ec             	lea    -0x14(%ebp),%eax
c010dcc9:	ff 75 0c             	push   0xc(%ebp)
c010dccc:	52                   	push   %edx
c010dccd:	50                   	push   %eax
c010dcce:	e8 ca f9 ff ff       	call   c010d69d <addr_to_map_id>
c010dcd3:	83 c4 08             	add    $0x8,%esp
c010dcd6:	8b 45 f0             	mov    -0x10(%ebp),%eax
c010dcd9:	83 c0 01             	add    $0x1,%eax
c010dcdc:	88 45 f7             	mov    %al,-0x9(%ebp)
c010dcdf:	8b 45 f0             	mov    -0x10(%ebp),%eax
c010dce2:	83 e0 01             	and    $0x1,%eax
c010dce5:	85 c0                	test   %eax,%eax
c010dce7:	74 09                	je     c010dcf2 <buddy_coalesce+0x48>
c010dce9:	8b 45 f0             	mov    -0x10(%ebp),%eax
c010dcec:	83 e8 01             	sub    $0x1,%eax
c010dcef:	88 45 f7             	mov    %al,-0x9(%ebp)
c010dcf2:	8b 45 ec             	mov    -0x14(%ebp),%eax
c010dcf5:	8b 55 f0             	mov    -0x10(%ebp),%edx
c010dcf8:	89 45 e4             	mov    %eax,-0x1c(%ebp)
c010dcfb:	89 55 e8             	mov    %edx,-0x18(%ebp)
c010dcfe:	0f b6 45 f7          	movzbl -0x9(%ebp),%eax
c010dd02:	89 45 e8             	mov    %eax,-0x18(%ebp)
c010dd05:	0f b6 45 d4          	movzbl -0x2c(%ebp),%eax
c010dd09:	ff 75 0c             	push   0xc(%ebp)
c010dd0c:	50                   	push   %eax
c010dd0d:	e8 41 fa ff ff       	call   c010d753 <set_frame_unused>
c010dd12:	83 c4 08             	add    $0x8,%esp
c010dd15:	80 7d d4 09          	cmpb   $0x9,-0x2c(%ebp)
c010dd19:	77 66                	ja     c010dd81 <buddy_coalesce+0xd7>
c010dd1b:	0f b6 55 f7          	movzbl -0x9(%ebp),%edx
c010dd1f:	0f b6 45 d4          	movzbl -0x2c(%ebp),%eax
c010dd23:	8b 84 83 d4 2a 01 00 	mov    0x12ad4(%ebx,%eax,4),%eax
c010dd2a:	8b 4d ec             	mov    -0x14(%ebp),%ecx
c010dd2d:	c1 e1 02             	shl    $0x2,%ecx
c010dd30:	01 c8                	add    %ecx,%eax
c010dd32:	8b 00                	mov    (%eax),%eax
c010dd34:	52                   	push   %edx
c010dd35:	50                   	push   %eax
c010dd36:	e8 ed f6 ff ff       	call   c010d428 <is_frame_free>
c010dd3b:	83 c4 08             	add    $0x8,%esp
c010dd3e:	84 c0                	test   %al,%al
c010dd40:	74 3f                	je     c010dd81 <buddy_coalesce+0xd7>
c010dd42:	0f b6 45 d4          	movzbl -0x2c(%ebp),%eax
c010dd46:	ff 75 e8             	push   -0x18(%ebp)
c010dd49:	ff 75 e4             	push   -0x1c(%ebp)
c010dd4c:	50                   	push   %eax
c010dd4d:	e8 b7 f9 ff ff       	call   c010d709 <map_to_addr>
c010dd52:	83 c4 0c             	add    $0xc,%esp
c010dd55:	0f b6 55 d4          	movzbl -0x2c(%ebp),%edx
c010dd59:	83 ec 08             	sub    $0x8,%esp
c010dd5c:	50                   	push   %eax
c010dd5d:	52                   	push   %edx
c010dd5e:	e8 93 f7 ff ff       	call   c010d4f6 <remove_free_frame>
c010dd63:	83 c4 10             	add    $0x10,%esp
c010dd66:	0f b6 45 d4          	movzbl -0x2c(%ebp),%eax
c010dd6a:	83 c0 01             	add    $0x1,%eax
c010dd6d:	0f b6 c0             	movzbl %al,%eax
c010dd70:	83 ec 08             	sub    $0x8,%esp
c010dd73:	ff 75 0c             	push   0xc(%ebp)
c010dd76:	50                   	push   %eax
c010dd77:	e8 2e ff ff ff       	call   c010dcaa <buddy_coalesce>
c010dd7c:	83 c4 10             	add    $0x10,%esp
c010dd7f:	eb 30                	jmp    c010ddb1 <buddy_coalesce+0x107>
c010dd81:	0f b6 55 d4          	movzbl -0x2c(%ebp),%edx
c010dd85:	89 d0                	mov    %edx,%eax
c010dd87:	01 c0                	add    %eax,%eax
c010dd89:	01 d0                	add    %edx,%eax
c010dd8b:	c1 e0 02             	shl    $0x2,%eax
c010dd8e:	8d 93 34 2a 01 00    	lea    0x12a34(%ebx),%edx
c010dd94:	01 d0                	add    %edx,%eax
c010dd96:	89 45 e0             	mov    %eax,-0x20(%ebp)
c010dd99:	0f b6 45 d4          	movzbl -0x2c(%ebp),%eax
c010dd9d:	83 ec 04             	sub    $0x4,%esp
c010dda0:	ff 75 0c             	push   0xc(%ebp)
c010dda3:	50                   	push   %eax
c010dda4:	8d 45 e0             	lea    -0x20(%ebp),%eax
c010dda7:	50                   	push   %eax
c010dda8:	e8 aa f6 ff ff       	call   c010d457 <insert_buddy>
c010ddad:	83 c4 10             	add    $0x10,%esp
c010ddb0:	90                   	nop
c010ddb1:	90                   	nop
c010ddb2:	8b 5d fc             	mov    -0x4(%ebp),%ebx
c010ddb5:	c9                   	leave
c010ddb6:	c3                   	ret

c010ddb7 <buddy_free_frames_rec>:
c010ddb7:	55                   	push   %ebp
c010ddb8:	89 e5                	mov    %esp,%ebp
c010ddba:	53                   	push   %ebx
c010ddbb:	83 ec 24             	sub    $0x24,%esp
c010ddbe:	e8 7a 0c 00 00       	call   c010ea3d <__x86.get_pc_thunk.bx>
c010ddc3:	81 c3 69 48 00 00    	add    $0x4869,%ebx
c010ddc9:	8b 45 08             	mov    0x8(%ebp),%eax
c010ddcc:	88 45 e4             	mov    %al,-0x1c(%ebp)
c010ddcf:	0f b6 55 e4          	movzbl -0x1c(%ebp),%edx
c010ddd3:	8d 45 f0             	lea    -0x10(%ebp),%eax
c010ddd6:	ff 75 0c             	push   0xc(%ebp)
c010ddd9:	52                   	push   %edx
c010ddda:	50                   	push   %eax
c010dddb:	e8 bd f8 ff ff       	call   c010d69d <addr_to_map_id>
c010dde0:	83 c4 08             	add    $0x8,%esp
c010dde3:	8b 45 f4             	mov    -0xc(%ebp),%eax
c010dde6:	0f b6 d0             	movzbl %al,%edx
c010dde9:	0f b6 45 e4          	movzbl -0x1c(%ebp),%eax
c010dded:	8b 84 83 d4 2a 01 00 	mov    0x12ad4(%ebx,%eax,4),%eax
c010ddf4:	8b 4d f0             	mov    -0x10(%ebp),%ecx
c010ddf7:	c1 e1 02             	shl    $0x2,%ecx
c010ddfa:	01 c8                	add    %ecx,%eax
c010ddfc:	8b 00                	mov    (%eax),%eax
c010ddfe:	52                   	push   %edx
c010ddff:	50                   	push   %eax
c010de00:	e8 23 f6 ff ff       	call   c010d428 <is_frame_free>
c010de05:	83 c4 08             	add    $0x8,%esp
c010de08:	83 f0 01             	xor    $0x1,%eax
c010de0b:	84 c0                	test   %al,%al
c010de0d:	74 15                	je     c010de24 <buddy_free_frames_rec+0x6d>
c010de0f:	0f b6 45 e4          	movzbl -0x1c(%ebp),%eax
c010de13:	83 ec 08             	sub    $0x8,%esp
c010de16:	ff 75 0c             	push   0xc(%ebp)
c010de19:	50                   	push   %eax
c010de1a:	e8 8b fe ff ff       	call   c010dcaa <buddy_coalesce>
c010de1f:	83 c4 10             	add    $0x10,%esp
c010de22:	eb 19                	jmp    c010de3d <buddy_free_frames_rec+0x86>
c010de24:	0f b6 45 e4          	movzbl -0x1c(%ebp),%eax
c010de28:	83 c0 01             	add    $0x1,%eax
c010de2b:	0f b6 c0             	movzbl %al,%eax
c010de2e:	83 ec 08             	sub    $0x8,%esp
c010de31:	ff 75 0c             	push   0xc(%ebp)
c010de34:	50                   	push   %eax
c010de35:	e8 7d ff ff ff       	call   c010ddb7 <buddy_free_frames_rec>
c010de3a:	83 c4 10             	add    $0x10,%esp
c010de3d:	8b 5d fc             	mov    -0x4(%ebp),%ebx
c010de40:	c9                   	leave
c010de41:	c3                   	ret

c010de42 <buddy_free_frames>:
c010de42:	55                   	push   %ebp
c010de43:	89 e5                	mov    %esp,%ebp
c010de45:	83 ec 18             	sub    $0x18,%esp
c010de48:	e8 ec 0b 00 00       	call   c010ea39 <__x86.get_pc_thunk.ax>
c010de4d:	05 df 47 00 00       	add    $0x47df,%eax
c010de52:	ff 75 0c             	push   0xc(%ebp)
c010de55:	e8 77 f5 ff ff       	call   c010d3d1 <get_buddy_order>
c010de5a:	83 c4 04             	add    $0x4,%esp
c010de5d:	88 45 f7             	mov    %al,-0x9(%ebp)
c010de60:	0f b6 45 f7          	movzbl -0x9(%ebp),%eax
c010de64:	83 ec 08             	sub    $0x8,%esp
c010de67:	ff 75 08             	push   0x8(%ebp)
c010de6a:	50                   	push   %eax
c010de6b:	e8 47 ff ff ff       	call   c010ddb7 <buddy_free_frames_rec>
c010de70:	83 c4 10             	add    $0x10,%esp
c010de73:	90                   	nop
c010de74:	c9                   	leave
c010de75:	c3                   	ret

c010de76 <buddy_free_frame>:
c010de76:	55                   	push   %ebp
c010de77:	89 e5                	mov    %esp,%ebp
c010de79:	83 ec 08             	sub    $0x8,%esp
c010de7c:	e8 b8 0b 00 00       	call   c010ea39 <__x86.get_pc_thunk.ax>
c010de81:	05 ab 47 00 00       	add    $0x47ab,%eax
c010de86:	83 ec 08             	sub    $0x8,%esp
c010de89:	6a 01                	push   $0x1
c010de8b:	ff 75 08             	push   0x8(%ebp)
c010de8e:	e8 af ff ff ff       	call   c010de42 <buddy_free_frames>
c010de93:	83 c4 10             	add    $0x10,%esp
c010de96:	90                   	nop
c010de97:	c9                   	leave
c010de98:	c3                   	ret

c010de99 <buddy_alloc_init>:
c010de99:	55                   	push   %ebp
c010de9a:	89 e5                	mov    %esp,%ebp
c010de9c:	53                   	push   %ebx
c010de9d:	83 ec 24             	sub    $0x24,%esp
c010dea0:	e8 98 0b 00 00       	call   c010ea3d <__x86.get_pc_thunk.bx>
c010dea5:	81 c3 87 47 00 00    	add    $0x4787,%ebx
c010deab:	83 7d 08 00          	cmpl   $0x0,0x8(%ebp)
c010deaf:	75 0a                	jne    c010debb <buddy_alloc_init+0x22>
c010deb1:	b8 02 00 00 00       	mov    $0x2,%eax
c010deb6:	e9 d8 00 00 00       	jmp    c010df93 <buddy_alloc_init+0xfa>
c010debb:	83 ec 04             	sub    $0x4,%esp
c010debe:	68 84 00 00 00       	push   $0x84
c010dec3:	6a 00                	push   $0x0
c010dec5:	8d 83 34 2a 01 00    	lea    0x12a34(%ebx),%eax
c010decb:	50                   	push   %eax
c010decc:	e8 d5 d9 ff ff       	call   c010b8a6 <memset>
c010ded1:	83 c4 10             	add    $0x10,%esp
c010ded4:	c7 45 f4 00 00 00 00 	movl   $0x0,-0xc(%ebp)
c010dedb:	eb 43                	jmp    c010df20 <buddy_alloc_init+0x87>
c010dedd:	8b 45 f4             	mov    -0xc(%ebp),%eax
c010dee0:	83 c0 11             	add    $0x11,%eax
c010dee3:	8b 55 08             	mov    0x8(%ebp),%edx
c010dee6:	89 c1                	mov    %eax,%ecx
c010dee8:	d3 ea                	shr    %cl,%edx
c010deea:	89 d0                	mov    %edx,%eax
c010deec:	89 45 e4             	mov    %eax,-0x1c(%ebp)
c010deef:	83 ec 0c             	sub    $0xc,%esp
c010def2:	ff 75 e4             	push   -0x1c(%ebp)
c010def5:	e8 7a 08 00 00       	call   c010e774 <kmalloc>
c010defa:	83 c4 10             	add    $0x10,%esp
c010defd:	8b 55 f4             	mov    -0xc(%ebp),%edx
c010df00:	89 84 93 d4 2a 01 00 	mov    %eax,0x12ad4(%ebx,%edx,4)
c010df07:	8b 45 f4             	mov    -0xc(%ebp),%eax
c010df0a:	8b 84 83 d4 2a 01 00 	mov    0x12ad4(%ebx,%eax,4),%eax
c010df11:	85 c0                	test   %eax,%eax
c010df13:	75 07                	jne    c010df1c <buddy_alloc_init+0x83>
c010df15:	b8 03 00 00 00       	mov    $0x3,%eax
c010df1a:	eb 77                	jmp    c010df93 <buddy_alloc_init+0xfa>
c010df1c:	83 45 f4 01          	addl   $0x1,-0xc(%ebp)
c010df20:	83 7d f4 0a          	cmpl   $0xa,-0xc(%ebp)
c010df24:	76 b7                	jbe    c010dedd <buddy_alloc_init+0x44>
c010df26:	8b 45 08             	mov    0x8(%ebp),%eax
c010df29:	c1 e8 16             	shr    $0x16,%eax
c010df2c:	89 45 e8             	mov    %eax,-0x18(%ebp)
c010df2f:	8d 83 ac 2a 01 00    	lea    0x12aac(%ebx),%eax
c010df35:	89 45 f0             	mov    %eax,-0x10(%ebp)
c010df38:	8b 45 e8             	mov    -0x18(%ebp),%eax
c010df3b:	89 83 b4 2a 01 00    	mov    %eax,0x12ab4(%ebx)
c010df41:	c7 45 ec 00 00 00 00 	movl   $0x0,-0x14(%ebp)
c010df48:	eb 3c                	jmp    c010df86 <buddy_alloc_init+0xed>
c010df4a:	83 ec 0c             	sub    $0xc,%esp
c010df4d:	6a 08                	push   $0x8
c010df4f:	e8 20 08 00 00       	call   c010e774 <kmalloc>
c010df54:	83 c4 10             	add    $0x10,%esp
c010df57:	8b 55 f0             	mov    -0x10(%ebp),%edx
c010df5a:	89 02                	mov    %eax,(%edx)
c010df5c:	8b 45 f0             	mov    -0x10(%ebp),%eax
c010df5f:	8b 00                	mov    (%eax),%eax
c010df61:	85 c0                	test   %eax,%eax
c010df63:	75 07                	jne    c010df6c <buddy_alloc_init+0xd3>
c010df65:	b8 03 00 00 00       	mov    $0x3,%eax
c010df6a:	eb 27                	jmp    c010df93 <buddy_alloc_init+0xfa>
c010df6c:	8b 45 f0             	mov    -0x10(%ebp),%eax
c010df6f:	8b 00                	mov    (%eax),%eax
c010df71:	8b 55 ec             	mov    -0x14(%ebp),%edx
c010df74:	c1 e2 16             	shl    $0x16,%edx
c010df77:	89 50 04             	mov    %edx,0x4(%eax)
c010df7a:	8b 45 f0             	mov    -0x10(%ebp),%eax
c010df7d:	8b 00                	mov    (%eax),%eax
c010df7f:	89 45 f0             	mov    %eax,-0x10(%ebp)
c010df82:	83 45 ec 01          	addl   $0x1,-0x14(%ebp)
c010df86:	8b 45 ec             	mov    -0x14(%ebp),%eax
c010df89:	3b 45 e8             	cmp    -0x18(%ebp),%eax
c010df8c:	72 bc                	jb     c010df4a <buddy_alloc_init+0xb1>
c010df8e:	b8 00 00 00 00       	mov    $0x0,%eax
c010df93:	8b 5d fc             	mov    -0x4(%ebp),%ebx
c010df96:	c9                   	leave
c010df97:	c3                   	ret

c010df98 <buddy_test>:
c010df98:	55                   	push   %ebp
c010df99:	89 e5                	mov    %esp,%ebp
c010df9b:	53                   	push   %ebx
c010df9c:	81 ec 24 10 00 00    	sub    $0x1024,%esp
c010dfa2:	e8 96 0a 00 00       	call   c010ea3d <__x86.get_pc_thunk.bx>
c010dfa7:	81 c3 85 46 00 00    	add    $0x4685,%ebx
c010dfad:	83 ec 04             	sub    $0x4,%esp
c010dfb0:	68 00 10 00 00       	push   $0x1000
c010dfb5:	6a 00                	push   $0x0
c010dfb7:	8d 85 e4 ef ff ff    	lea    -0x101c(%ebp),%eax
c010dfbd:	50                   	push   %eax
c010dfbe:	e8 e3 d8 ff ff       	call   c010b8a6 <memset>
c010dfc3:	83 c4 10             	add    $0x10,%esp
c010dfc6:	83 ec 04             	sub    $0x4,%esp
c010dfc9:	68 00 10 00 00       	push   $0x1000
c010dfce:	6a 00                	push   $0x0
c010dfd0:	8d 85 e4 ef ff ff    	lea    -0x101c(%ebp),%eax
c010dfd6:	50                   	push   %eax
c010dfd7:	e8 ca d8 ff ff       	call   c010b8a6 <memset>
c010dfdc:	83 c4 10             	add    $0x10,%esp
c010dfdf:	83 ec 0c             	sub    $0xc,%esp
c010dfe2:	8d 83 2e cf ff ff    	lea    -0x30d2(%ebx),%eax
c010dfe8:	50                   	push   %eax
c010dfe9:	e8 f2 d7 ff ff       	call   c010b7e0 <klog>
c010dfee:	83 c4 10             	add    $0x10,%esp
c010dff1:	83 ec 04             	sub    $0x4,%esp
c010dff4:	6a 03                	push   $0x3
c010dff6:	6a 04                	push   $0x4
c010dff8:	8d 85 e4 ef ff ff    	lea    -0x101c(%ebp),%eax
c010dffe:	50                   	push   %eax
c010dfff:	e8 a4 fa ff ff       	call   c010daa8 <buddy_alloc_frames>
c010e004:	83 c4 10             	add    $0x10,%esp
c010e007:	89 45 e4             	mov    %eax,-0x1c(%ebp)
c010e00a:	c7 45 f4 00 00 00 00 	movl   $0x0,-0xc(%ebp)
c010e011:	eb 1a                	jmp    c010e02d <buddy_test+0x95>
c010e013:	8b 45 f4             	mov    -0xc(%ebp),%eax
c010e016:	8b 84 85 e4 ef ff ff 	mov    -0x101c(%ebp,%eax,4),%eax
c010e01d:	83 ec 0c             	sub    $0xc,%esp
c010e020:	50                   	push   %eax
c010e021:	e8 7e c5 ff ff       	call   c010a5a4 <fb_print_hex>
c010e026:	83 c4 10             	add    $0x10,%esp
c010e029:	83 45 f4 01          	addl   $0x1,-0xc(%ebp)
c010e02d:	83 7d f4 03          	cmpl   $0x3,-0xc(%ebp)
c010e031:	76 e0                	jbe    c010e013 <buddy_test+0x7b>
c010e033:	8b 85 e4 ef ff ff    	mov    -0x101c(%ebp),%eax
c010e039:	83 ec 08             	sub    $0x8,%esp
c010e03c:	6a 04                	push   $0x4
c010e03e:	50                   	push   %eax
c010e03f:	e8 fe fd ff ff       	call   c010de42 <buddy_free_frames>
c010e044:	83 c4 10             	add    $0x10,%esp
c010e047:	83 ec 0c             	sub    $0xc,%esp
c010e04a:	8d 83 2e cf ff ff    	lea    -0x30d2(%ebx),%eax
c010e050:	50                   	push   %eax
c010e051:	e8 8a d7 ff ff       	call   c010b7e0 <klog>
c010e056:	83 c4 10             	add    $0x10,%esp
c010e059:	83 ec 04             	sub    $0x4,%esp
c010e05c:	68 00 10 00 00       	push   $0x1000
c010e061:	6a 00                	push   $0x0
c010e063:	8d 85 e4 ef ff ff    	lea    -0x101c(%ebp),%eax
c010e069:	50                   	push   %eax
c010e06a:	e8 37 d8 ff ff       	call   c010b8a6 <memset>
c010e06f:	83 c4 10             	add    $0x10,%esp
c010e072:	83 ec 04             	sub    $0x4,%esp
c010e075:	6a 03                	push   $0x3
c010e077:	6a 04                	push   $0x4
c010e079:	8d 85 e4 ef ff ff    	lea    -0x101c(%ebp),%eax
c010e07f:	50                   	push   %eax
c010e080:	e8 23 fa ff ff       	call   c010daa8 <buddy_alloc_frames>
c010e085:	83 c4 10             	add    $0x10,%esp
c010e088:	89 45 e4             	mov    %eax,-0x1c(%ebp)
c010e08b:	c7 45 f0 00 00 00 00 	movl   $0x0,-0x10(%ebp)
c010e092:	eb 1a                	jmp    c010e0ae <buddy_test+0x116>
c010e094:	8b 45 f0             	mov    -0x10(%ebp),%eax
c010e097:	8b 84 85 e4 ef ff ff 	mov    -0x101c(%ebp,%eax,4),%eax
c010e09e:	83 ec 0c             	sub    $0xc,%esp
c010e0a1:	50                   	push   %eax
c010e0a2:	e8 fd c4 ff ff       	call   c010a5a4 <fb_print_hex>
c010e0a7:	83 c4 10             	add    $0x10,%esp
c010e0aa:	83 45 f0 01          	addl   $0x1,-0x10(%ebp)
c010e0ae:	83 7d f0 03          	cmpl   $0x3,-0x10(%ebp)
c010e0b2:	76 e0                	jbe    c010e094 <buddy_test+0xfc>
c010e0b4:	83 ec 04             	sub    $0x4,%esp
c010e0b7:	68 00 10 00 00       	push   $0x1000
c010e0bc:	6a 00                	push   $0x0
c010e0be:	8d 85 e4 ef ff ff    	lea    -0x101c(%ebp),%eax
c010e0c4:	50                   	push   %eax
c010e0c5:	e8 dc d7 ff ff       	call   c010b8a6 <memset>
c010e0ca:	83 c4 10             	add    $0x10,%esp
c010e0cd:	83 ec 0c             	sub    $0xc,%esp
c010e0d0:	8d 83 2e cf ff ff    	lea    -0x30d2(%ebx),%eax
c010e0d6:	50                   	push   %eax
c010e0d7:	e8 04 d7 ff ff       	call   c010b7e0 <klog>
c010e0dc:	83 c4 10             	add    $0x10,%esp
c010e0df:	83 ec 04             	sub    $0x4,%esp
c010e0e2:	6a 03                	push   $0x3
c010e0e4:	6a 08                	push   $0x8
c010e0e6:	8d 85 e4 ef ff ff    	lea    -0x101c(%ebp),%eax
c010e0ec:	50                   	push   %eax
c010e0ed:	e8 b6 f9 ff ff       	call   c010daa8 <buddy_alloc_frames>
c010e0f2:	83 c4 10             	add    $0x10,%esp
c010e0f5:	89 45 e4             	mov    %eax,-0x1c(%ebp)
c010e0f8:	c7 45 ec 00 00 00 00 	movl   $0x0,-0x14(%ebp)
c010e0ff:	eb 1a                	jmp    c010e11b <buddy_test+0x183>
c010e101:	8b 45 ec             	mov    -0x14(%ebp),%eax
c010e104:	8b 84 85 e4 ef ff ff 	mov    -0x101c(%ebp,%eax,4),%eax
c010e10b:	83 ec 0c             	sub    $0xc,%esp
c010e10e:	50                   	push   %eax
c010e10f:	e8 90 c4 ff ff       	call   c010a5a4 <fb_print_hex>
c010e114:	83 c4 10             	add    $0x10,%esp
c010e117:	83 45 ec 01          	addl   $0x1,-0x14(%ebp)
c010e11b:	83 7d ec 07          	cmpl   $0x7,-0x14(%ebp)
c010e11f:	76 e0                	jbe    c010e101 <buddy_test+0x169>
c010e121:	8b 85 e4 ef ff ff    	mov    -0x101c(%ebp),%eax
c010e127:	83 ec 08             	sub    $0x8,%esp
c010e12a:	6a 08                	push   $0x8
c010e12c:	50                   	push   %eax
c010e12d:	e8 10 fd ff ff       	call   c010de42 <buddy_free_frames>
c010e132:	83 c4 10             	add    $0x10,%esp
c010e135:	83 ec 04             	sub    $0x4,%esp
c010e138:	68 00 10 00 00       	push   $0x1000
c010e13d:	6a 00                	push   $0x0
c010e13f:	8d 85 e4 ef ff ff    	lea    -0x101c(%ebp),%eax
c010e145:	50                   	push   %eax
c010e146:	e8 5b d7 ff ff       	call   c010b8a6 <memset>
c010e14b:	83 c4 10             	add    $0x10,%esp
c010e14e:	83 ec 0c             	sub    $0xc,%esp
c010e151:	8d 83 2e cf ff ff    	lea    -0x30d2(%ebx),%eax
c010e157:	50                   	push   %eax
c010e158:	e8 83 d6 ff ff       	call   c010b7e0 <klog>
c010e15d:	83 c4 10             	add    $0x10,%esp
c010e160:	83 ec 04             	sub    $0x4,%esp
c010e163:	6a 03                	push   $0x3
c010e165:	6a 08                	push   $0x8
c010e167:	8d 85 e4 ef ff ff    	lea    -0x101c(%ebp),%eax
c010e16d:	50                   	push   %eax
c010e16e:	e8 35 f9 ff ff       	call   c010daa8 <buddy_alloc_frames>
c010e173:	83 c4 10             	add    $0x10,%esp
c010e176:	89 45 e4             	mov    %eax,-0x1c(%ebp)
c010e179:	c7 45 e8 00 00 00 00 	movl   $0x0,-0x18(%ebp)
c010e180:	eb 1a                	jmp    c010e19c <buddy_test+0x204>
c010e182:	8b 45 e8             	mov    -0x18(%ebp),%eax
c010e185:	8b 84 85 e4 ef ff ff 	mov    -0x101c(%ebp,%eax,4),%eax
c010e18c:	83 ec 0c             	sub    $0xc,%esp
c010e18f:	50                   	push   %eax
c010e190:	e8 0f c4 ff ff       	call   c010a5a4 <fb_print_hex>
c010e195:	83 c4 10             	add    $0x10,%esp
c010e198:	83 45 e8 01          	addl   $0x1,-0x18(%ebp)
c010e19c:	83 7d e8 07          	cmpl   $0x7,-0x18(%ebp)
c010e1a0:	76 e0                	jbe    c010e182 <buddy_test+0x1ea>
c010e1a2:	90                   	nop
c010e1a3:	8b 5d fc             	mov    -0x4(%ebp),%ebx
c010e1a6:	c9                   	leave
c010e1a7:	c3                   	ret

c010e1a8 <pdt_init>:
c010e1a8:	55                   	push   %ebp
c010e1a9:	89 e5                	mov    %esp,%ebp
c010e1ab:	56                   	push   %esi
c010e1ac:	53                   	push   %ebx
c010e1ad:	83 ec 10             	sub    $0x10,%esp
c010e1b0:	e8 90 08 00 00       	call   c010ea45 <__x86.get_pc_thunk.dx>
c010e1b5:	81 c2 77 44 00 00    	add    $0x4477,%edx
c010e1bb:	c7 45 f4 00 00 00 00 	movl   $0x0,-0xc(%ebp)
c010e1c2:	eb 68                	jmp    c010e22c <pdt_init+0x84>
c010e1c4:	8b 4d f4             	mov    -0xc(%ebp),%ecx
c010e1c7:	8d 9a 14 2b 01 00    	lea    0x12b14(%edx),%ebx
c010e1cd:	89 c8                	mov    %ecx,%eax
c010e1cf:	01 c0                	add    %eax,%eax
c010e1d1:	01 c8                	add    %ecx,%eax
c010e1d3:	c1 e0 02             	shl    $0x2,%eax
c010e1d6:	01 d8                	add    %ebx,%eax
c010e1d8:	c7 00 00 00 00 00    	movl   $0x0,(%eax)
c010e1de:	c7 40 04 00 00 00 00 	movl   $0x0,0x4(%eax)
c010e1e5:	c7 40 08 00 00 00 00 	movl   $0x0,0x8(%eax)
c010e1ec:	8b 45 f4             	mov    -0xc(%ebp),%eax
c010e1ef:	c1 e0 0c             	shl    $0xc,%eax
c010e1f2:	8d 98 ff ff 00 00    	lea    0xffff(%eax),%ebx
c010e1f8:	8b 4d f4             	mov    -0xc(%ebp),%ecx
c010e1fb:	8d b2 14 2b 01 00    	lea    0x12b14(%edx),%esi
c010e201:	89 c8                	mov    %ecx,%eax
c010e203:	01 c0                	add    %eax,%eax
c010e205:	01 c8                	add    %ecx,%eax
c010e207:	c1 e0 02             	shl    $0x2,%eax
c010e20a:	01 f0                	add    %esi,%eax
c010e20c:	89 18                	mov    %ebx,(%eax)
c010e20e:	8b 4d f4             	mov    -0xc(%ebp),%ecx
c010e211:	8d 9a 18 2b 01 00    	lea    0x12b18(%edx),%ebx
c010e217:	89 c8                	mov    %ecx,%eax
c010e219:	01 c0                	add    %eax,%eax
c010e21b:	01 c8                	add    %ecx,%eax
c010e21d:	c1 e0 02             	shl    $0x2,%eax
c010e220:	01 d8                	add    %ebx,%eax
c010e222:	c7 00 00 10 00 00    	movl   $0x1000,(%eax)
c010e228:	83 45 f4 01          	addl   $0x1,-0xc(%ebp)
c010e22c:	83 7d f4 7f          	cmpl   $0x7f,-0xc(%ebp)
c010e230:	76 92                	jbe    c010e1c4 <pdt_init+0x1c>
c010e232:	90                   	nop
c010e233:	90                   	nop
c010e234:	83 c4 10             	add    $0x10,%esp
c010e237:	5b                   	pop    %ebx
c010e238:	5e                   	pop    %esi
c010e239:	5d                   	pop    %ebp
c010e23a:	c3                   	ret

c010e23b <malloc>:
c010e23b:	55                   	push   %ebp
c010e23c:	89 e5                	mov    %esp,%ebp
c010e23e:	53                   	push   %ebx
c010e23f:	83 ec 10             	sub    $0x10,%esp
c010e242:	e8 fe 07 00 00       	call   c010ea45 <__x86.get_pc_thunk.dx>
c010e247:	81 c2 e5 43 00 00    	add    $0x43e5,%edx
c010e24d:	c7 45 f8 00 00 00 00 	movl   $0x0,-0x8(%ebp)
c010e254:	e9 80 00 00 00       	jmp    c010e2d9 <malloc+0x9e>
c010e259:	8b 4d f8             	mov    -0x8(%ebp),%ecx
c010e25c:	8d 9a 1c 2b 01 00    	lea    0x12b1c(%edx),%ebx
c010e262:	89 c8                	mov    %ecx,%eax
c010e264:	01 c0                	add    %eax,%eax
c010e266:	01 c8                	add    %ecx,%eax
c010e268:	c1 e0 02             	shl    $0x2,%eax
c010e26b:	01 d8                	add    %ebx,%eax
c010e26d:	0f b6 00             	movzbl (%eax),%eax
c010e270:	84 c0                	test   %al,%al
c010e272:	75 61                	jne    c010e2d5 <malloc+0x9a>
c010e274:	8b 4d f8             	mov    -0x8(%ebp),%ecx
c010e277:	8d 9a 18 2b 01 00    	lea    0x12b18(%edx),%ebx
c010e27d:	89 c8                	mov    %ecx,%eax
c010e27f:	01 c0                	add    %eax,%eax
c010e281:	01 c8                	add    %ecx,%eax
c010e283:	c1 e0 02             	shl    $0x2,%eax
c010e286:	01 d8                	add    %ebx,%eax
c010e288:	8b 00                	mov    (%eax),%eax
c010e28a:	3b 45 08             	cmp    0x8(%ebp),%eax
c010e28d:	72 2f                	jb     c010e2be <malloc+0x83>
c010e28f:	8b 4d f8             	mov    -0x8(%ebp),%ecx
c010e292:	8d 9a 1c 2b 01 00    	lea    0x12b1c(%edx),%ebx
c010e298:	89 c8                	mov    %ecx,%eax
c010e29a:	01 c0                	add    %eax,%eax
c010e29c:	01 c8                	add    %ecx,%eax
c010e29e:	c1 e0 02             	shl    $0x2,%eax
c010e2a1:	01 d8                	add    %ebx,%eax
c010e2a3:	c6 00 01             	movb   $0x1,(%eax)
c010e2a6:	8b 4d f8             	mov    -0x8(%ebp),%ecx
c010e2a9:	8d 92 14 2b 01 00    	lea    0x12b14(%edx),%edx
c010e2af:	89 c8                	mov    %ecx,%eax
c010e2b1:	01 c0                	add    %eax,%eax
c010e2b3:	01 c8                	add    %ecx,%eax
c010e2b5:	c1 e0 02             	shl    $0x2,%eax
c010e2b8:	01 d0                	add    %edx,%eax
c010e2ba:	8b 00                	mov    (%eax),%eax
c010e2bc:	eb 2a                	jmp    c010e2e8 <malloc+0xad>
c010e2be:	8b 4d f8             	mov    -0x8(%ebp),%ecx
c010e2c1:	8d 9a 1d 2b 01 00    	lea    0x12b1d(%edx),%ebx
c010e2c7:	89 c8                	mov    %ecx,%eax
c010e2c9:	01 c0                	add    %eax,%eax
c010e2cb:	01 c8                	add    %ecx,%eax
c010e2cd:	c1 e0 02             	shl    $0x2,%eax
c010e2d0:	01 d8                	add    %ebx,%eax
c010e2d2:	c6 00 01             	movb   $0x1,(%eax)
c010e2d5:	83 45 f8 01          	addl   $0x1,-0x8(%ebp)
c010e2d9:	83 7d f8 7f          	cmpl   $0x7f,-0x8(%ebp)
c010e2dd:	0f 86 76 ff ff ff    	jbe    c010e259 <malloc+0x1e>
c010e2e3:	b8 00 00 00 00       	mov    $0x0,%eax
c010e2e8:	8b 5d fc             	mov    -0x4(%ebp),%ebx
c010e2eb:	c9                   	leave
c010e2ec:	c3                   	ret

c010e2ed <free>:
c010e2ed:	55                   	push   %ebp
c010e2ee:	89 e5                	mov    %esp,%ebp
c010e2f0:	56                   	push   %esi
c010e2f1:	53                   	push   %ebx
c010e2f2:	83 ec 10             	sub    $0x10,%esp
c010e2f5:	e8 4b 07 00 00       	call   c010ea45 <__x86.get_pc_thunk.dx>
c010e2fa:	81 c2 32 43 00 00    	add    $0x4332,%edx
c010e300:	83 7d 08 00          	cmpl   $0x0,0x8(%ebp)
c010e304:	0f 84 80 00 00 00    	je     c010e38a <free+0x9d>
c010e30a:	c7 45 f4 00 00 00 00 	movl   $0x0,-0xc(%ebp)
c010e311:	eb 6f                	jmp    c010e382 <free+0x95>
c010e313:	8b 4d f4             	mov    -0xc(%ebp),%ecx
c010e316:	8d 9a 14 2b 01 00    	lea    0x12b14(%edx),%ebx
c010e31c:	89 c8                	mov    %ecx,%eax
c010e31e:	01 c0                	add    %eax,%eax
c010e320:	01 c8                	add    %ecx,%eax
c010e322:	c1 e0 02             	shl    $0x2,%eax
c010e325:	01 d8                	add    %ebx,%eax
c010e327:	8b 00                	mov    (%eax),%eax
c010e329:	8b 4d 08             	mov    0x8(%ebp),%ecx
c010e32c:	39 c1                	cmp    %eax,%ecx
c010e32e:	72 4e                	jb     c010e37e <free+0x91>
c010e330:	8b 4d f4             	mov    -0xc(%ebp),%ecx
c010e333:	8d 9a 14 2b 01 00    	lea    0x12b14(%edx),%ebx
c010e339:	89 c8                	mov    %ecx,%eax
c010e33b:	01 c0                	add    %eax,%eax
c010e33d:	01 c8                	add    %ecx,%eax
c010e33f:	c1 e0 02             	shl    $0x2,%eax
c010e342:	01 d8                	add    %ebx,%eax
c010e344:	8b 18                	mov    (%eax),%ebx
c010e346:	8b 4d f4             	mov    -0xc(%ebp),%ecx
c010e349:	8d b2 18 2b 01 00    	lea    0x12b18(%edx),%esi
c010e34f:	89 c8                	mov    %ecx,%eax
c010e351:	01 c0                	add    %eax,%eax
c010e353:	01 c8                	add    %ecx,%eax
c010e355:	c1 e0 02             	shl    $0x2,%eax
c010e358:	01 f0                	add    %esi,%eax
c010e35a:	8b 00                	mov    (%eax),%eax
c010e35c:	01 d8                	add    %ebx,%eax
c010e35e:	8b 4d 08             	mov    0x8(%ebp),%ecx
c010e361:	39 c1                	cmp    %eax,%ecx
c010e363:	73 19                	jae    c010e37e <free+0x91>
c010e365:	8b 4d f4             	mov    -0xc(%ebp),%ecx
c010e368:	8d 92 1c 2b 01 00    	lea    0x12b1c(%edx),%edx
c010e36e:	89 c8                	mov    %ecx,%eax
c010e370:	01 c0                	add    %eax,%eax
c010e372:	01 c8                	add    %ecx,%eax
c010e374:	c1 e0 02             	shl    $0x2,%eax
c010e377:	01 d0                	add    %edx,%eax
c010e379:	c6 00 00             	movb   $0x0,(%eax)
c010e37c:	eb 0d                	jmp    c010e38b <free+0x9e>
c010e37e:	83 45 f4 01          	addl   $0x1,-0xc(%ebp)
c010e382:	83 7d f4 7f          	cmpl   $0x7f,-0xc(%ebp)
c010e386:	76 8b                	jbe    c010e313 <free+0x26>
c010e388:	eb 01                	jmp    c010e38b <free+0x9e>
c010e38a:	90                   	nop
c010e38b:	83 c4 10             	add    $0x10,%esp
c010e38e:	5b                   	pop    %ebx
c010e38f:	5e                   	pop    %esi
c010e390:	5d                   	pop    %ebp
c010e391:	c3                   	ret

c010e392 <init>:
c010e392:	55                   	push   %ebp
c010e393:	89 e5                	mov    %esp,%ebp
c010e395:	e8 9f 06 00 00       	call   c010ea39 <__x86.get_pc_thunk.ax>
c010e39a:	05 92 42 00 00       	add    $0x4292,%eax
c010e39f:	e8 04 fe ff ff       	call   c010e1a8 <pdt_init>
c010e3a4:	90                   	nop
c010e3a5:	5d                   	pop    %ebp
c010e3a6:	c3                   	ret

c010e3a7 <write_header>:
c010e3a7:	55                   	push   %ebp
c010e3a8:	89 e5                	mov    %esp,%ebp
c010e3aa:	83 ec 04             	sub    $0x4,%esp
c010e3ad:	e8 87 06 00 00       	call   c010ea39 <__x86.get_pc_thunk.ax>
c010e3b2:	05 7a 42 00 00       	add    $0x427a,%eax
c010e3b7:	8b 45 1c             	mov    0x1c(%ebp),%eax
c010e3ba:	88 45 fc             	mov    %al,-0x4(%ebp)
c010e3bd:	83 7d 08 00          	cmpl   $0x0,0x8(%ebp)
c010e3c1:	74 30                	je     c010e3f3 <write_header+0x4c>
c010e3c3:	8b 45 08             	mov    0x8(%ebp),%eax
c010e3c6:	8b 55 14             	mov    0x14(%ebp),%edx
c010e3c9:	89 50 0c             	mov    %edx,0xc(%eax)
c010e3cc:	8b 45 08             	mov    0x8(%ebp),%eax
c010e3cf:	0f b6 55 fc          	movzbl -0x4(%ebp),%edx
c010e3d3:	88 50 14             	mov    %dl,0x14(%eax)
c010e3d6:	8b 45 08             	mov    0x8(%ebp),%eax
c010e3d9:	8b 55 0c             	mov    0xc(%ebp),%edx
c010e3dc:	89 50 04             	mov    %edx,0x4(%eax)
c010e3df:	8b 45 08             	mov    0x8(%ebp),%eax
c010e3e2:	8b 55 10             	mov    0x10(%ebp),%edx
c010e3e5:	89 50 08             	mov    %edx,0x8(%eax)
c010e3e8:	8b 45 08             	mov    0x8(%ebp),%eax
c010e3eb:	8b 55 18             	mov    0x18(%ebp),%edx
c010e3ee:	89 50 10             	mov    %edx,0x10(%eax)
c010e3f1:	eb 01                	jmp    c010e3f4 <write_header+0x4d>
c010e3f3:	90                   	nop
c010e3f4:	c9                   	leave
c010e3f5:	c3                   	ret

c010e3f6 <alloc_test>:
c010e3f6:	55                   	push   %ebp
c010e3f7:	89 e5                	mov    %esp,%ebp
c010e3f9:	53                   	push   %ebx
c010e3fa:	83 ec 14             	sub    $0x14,%esp
c010e3fd:	e8 3b 06 00 00       	call   c010ea3d <__x86.get_pc_thunk.bx>
c010e402:	81 c3 2a 42 00 00    	add    $0x422a,%ebx
c010e408:	83 ec 0c             	sub    $0xc,%esp
c010e40b:	ff 75 08             	push   0x8(%ebp)
c010e40e:	e8 61 03 00 00       	call   c010e774 <kmalloc>
c010e413:	83 c4 10             	add    $0x10,%esp
c010e416:	89 45 f4             	mov    %eax,-0xc(%ebp)
c010e419:	83 7d f4 00          	cmpl   $0x0,-0xc(%ebp)
c010e41d:	75 12                	jne    c010e431 <alloc_test+0x3b>
c010e41f:	83 ec 0c             	sub    $0xc,%esp
c010e422:	8d 83 44 cf ff ff    	lea    -0x30bc(%ebx),%eax
c010e428:	50                   	push   %eax
c010e429:	e8 b2 d3 ff ff       	call   c010b7e0 <klog>
c010e42e:	83 c4 10             	add    $0x10,%esp
c010e431:	8b 55 08             	mov    0x8(%ebp),%edx
c010e434:	89 d0                	mov    %edx,%eax
c010e436:	01 c0                	add    %eax,%eax
c010e438:	01 d0                	add    %edx,%eax
c010e43a:	89 c2                	mov    %eax,%edx
c010e43c:	8b 45 f4             	mov    -0xc(%ebp),%eax
c010e43f:	89 10                	mov    %edx,(%eax)
c010e441:	83 ec 0c             	sub    $0xc,%esp
c010e444:	8d 83 4a cf ff ff    	lea    -0x30b6(%ebx),%eax
c010e44a:	50                   	push   %eax
c010e44b:	e8 90 d3 ff ff       	call   c010b7e0 <klog>
c010e450:	83 c4 10             	add    $0x10,%esp
c010e453:	83 ec 0c             	sub    $0xc,%esp
c010e456:	ff 75 08             	push   0x8(%ebp)
c010e459:	e8 c0 bf ff ff       	call   c010a41e <fb_print_num>
c010e45e:	83 c4 10             	add    $0x10,%esp
c010e461:	83 ec 0c             	sub    $0xc,%esp
c010e464:	8d 83 58 cf ff ff    	lea    -0x30a8(%ebx),%eax
c010e46a:	50                   	push   %eax
c010e46b:	e8 70 d3 ff ff       	call   c010b7e0 <klog>
c010e470:	83 c4 10             	add    $0x10,%esp
c010e473:	8b 45 f4             	mov    -0xc(%ebp),%eax
c010e476:	83 ec 0c             	sub    $0xc,%esp
c010e479:	50                   	push   %eax
c010e47a:	e8 25 c1 ff ff       	call   c010a5a4 <fb_print_hex>
c010e47f:	83 c4 10             	add    $0x10,%esp
c010e482:	83 ec 0c             	sub    $0xc,%esp
c010e485:	8d 83 65 cf ff ff    	lea    -0x309b(%ebx),%eax
c010e48b:	50                   	push   %eax
c010e48c:	e8 4f d3 ff ff       	call   c010b7e0 <klog>
c010e491:	83 c4 10             	add    $0x10,%esp
c010e494:	8b 45 f4             	mov    -0xc(%ebp),%eax
c010e497:	8b 00                	mov    (%eax),%eax
c010e499:	83 ec 0c             	sub    $0xc,%esp
c010e49c:	50                   	push   %eax
c010e49d:	e8 02 c1 ff ff       	call   c010a5a4 <fb_print_hex>
c010e4a2:	83 c4 10             	add    $0x10,%esp
c010e4a5:	8b 45 f4             	mov    -0xc(%ebp),%eax
c010e4a8:	8b 5d fc             	mov    -0x4(%ebp),%ebx
c010e4ab:	c9                   	leave
c010e4ac:	c3                   	ret

c010e4ad <allocator_test>:
c010e4ad:	55                   	push   %ebp
c010e4ae:	89 e5                	mov    %esp,%ebp
c010e4b0:	83 ec 28             	sub    $0x28,%esp
c010e4b3:	e8 81 05 00 00       	call   c010ea39 <__x86.get_pc_thunk.ax>
c010e4b8:	05 74 41 00 00       	add    $0x4174,%eax
c010e4bd:	83 ec 0c             	sub    $0xc,%esp
c010e4c0:	6a 08                	push   $0x8
c010e4c2:	e8 2f ff ff ff       	call   c010e3f6 <alloc_test>
c010e4c7:	83 c4 10             	add    $0x10,%esp
c010e4ca:	89 45 f4             	mov    %eax,-0xc(%ebp)
c010e4cd:	83 ec 0c             	sub    $0xc,%esp
c010e4d0:	6a 10                	push   $0x10
c010e4d2:	e8 1f ff ff ff       	call   c010e3f6 <alloc_test>
c010e4d7:	83 c4 10             	add    $0x10,%esp
c010e4da:	89 45 f0             	mov    %eax,-0x10(%ebp)
c010e4dd:	83 ec 0c             	sub    $0xc,%esp
c010e4e0:	6a 08                	push   $0x8
c010e4e2:	e8 0f ff ff ff       	call   c010e3f6 <alloc_test>
c010e4e7:	83 c4 10             	add    $0x10,%esp
c010e4ea:	89 45 ec             	mov    %eax,-0x14(%ebp)
c010e4ed:	83 ec 0c             	sub    $0xc,%esp
c010e4f0:	ff 75 f0             	push   -0x10(%ebp)
c010e4f3:	e8 b9 03 00 00       	call   c010e8b1 <kfree>
c010e4f8:	83 c4 10             	add    $0x10,%esp
c010e4fb:	83 ec 0c             	sub    $0xc,%esp
c010e4fe:	6a 08                	push   $0x8
c010e500:	e8 f1 fe ff ff       	call   c010e3f6 <alloc_test>
c010e505:	83 c4 10             	add    $0x10,%esp
c010e508:	89 45 e8             	mov    %eax,-0x18(%ebp)
c010e50b:	83 ec 0c             	sub    $0xc,%esp
c010e50e:	ff 75 f4             	push   -0xc(%ebp)
c010e511:	e8 9b 03 00 00       	call   c010e8b1 <kfree>
c010e516:	83 c4 10             	add    $0x10,%esp
c010e519:	83 ec 0c             	sub    $0xc,%esp
c010e51c:	ff 75 e8             	push   -0x18(%ebp)
c010e51f:	e8 8d 03 00 00       	call   c010e8b1 <kfree>
c010e524:	83 c4 10             	add    $0x10,%esp
c010e527:	83 ec 0c             	sub    $0xc,%esp
c010e52a:	ff 75 ec             	push   -0x14(%ebp)
c010e52d:	e8 7f 03 00 00       	call   c010e8b1 <kfree>
c010e532:	83 c4 10             	add    $0x10,%esp
c010e535:	83 ec 0c             	sub    $0xc,%esp
c010e538:	6a 10                	push   $0x10
c010e53a:	e8 b7 fe ff ff       	call   c010e3f6 <alloc_test>
c010e53f:	83 c4 10             	add    $0x10,%esp
c010e542:	89 45 e4             	mov    %eax,-0x1c(%ebp)
c010e545:	90                   	nop
c010e546:	c9                   	leave
c010e547:	c3                   	ret

c010e548 <heap_init>:
c010e548:	55                   	push   %ebp
c010e549:	89 e5                	mov    %esp,%ebp
c010e54b:	53                   	push   %ebx
c010e54c:	83 ec 04             	sub    $0x4,%esp
c010e54f:	e8 e9 04 00 00       	call   c010ea3d <__x86.get_pc_thunk.bx>
c010e554:	81 c3 d8 40 00 00    	add    $0x40d8,%ebx
c010e55a:	8b 45 08             	mov    0x8(%ebp),%eax
c010e55d:	89 83 14 31 01 00    	mov    %eax,0x13114(%ebx)
c010e563:	8b 83 14 31 01 00    	mov    0x13114(%ebx),%eax
c010e569:	05 00 00 40 00       	add    $0x400000,%eax
c010e56e:	89 83 1c 31 01 00    	mov    %eax,0x1311c(%ebx)
c010e574:	8b 83 14 31 01 00    	mov    0x13114(%ebx),%eax
c010e57a:	89 83 18 31 01 00    	mov    %eax,0x13118(%ebx)
c010e580:	8b 83 18 31 01 00    	mov    0x13118(%ebx),%eax
c010e586:	83 ec 04             	sub    $0x4,%esp
c010e589:	6a 20                	push   $0x20
c010e58b:	6a 00                	push   $0x0
c010e58d:	50                   	push   %eax
c010e58e:	e8 13 d3 ff ff       	call   c010b8a6 <memset>
c010e593:	83 c4 10             	add    $0x10,%esp
c010e596:	8b 83 18 31 01 00    	mov    0x13118(%ebx),%eax
c010e59c:	c7 00 ba ba ad 0b    	movl   $0xbadbaba,(%eax)
c010e5a2:	8b 83 18 31 01 00    	mov    0x13118(%ebx),%eax
c010e5a8:	c6 40 14 01          	movb   $0x1,0x14(%eax)
c010e5ac:	8b 8b 1c 31 01 00    	mov    0x1311c(%ebx),%ecx
c010e5b2:	8b 93 14 31 01 00    	mov    0x13114(%ebx),%edx
c010e5b8:	8b 83 18 31 01 00    	mov    0x13118(%ebx),%eax
c010e5be:	29 d1                	sub    %edx,%ecx
c010e5c0:	89 48 10             	mov    %ecx,0x10(%eax)
c010e5c3:	90                   	nop
c010e5c4:	8b 5d fc             	mov    -0x4(%ebp),%ebx
c010e5c7:	c9                   	leave
c010e5c8:	c3                   	ret

c010e5c9 <kmalloc_align>:
c010e5c9:	55                   	push   %ebp
c010e5ca:	89 e5                	mov    %esp,%ebp
c010e5cc:	53                   	push   %ebx
c010e5cd:	83 ec 14             	sub    $0x14,%esp
c010e5d0:	e8 68 04 00 00       	call   c010ea3d <__x86.get_pc_thunk.bx>
c010e5d5:	81 c3 57 40 00 00    	add    $0x4057,%ebx
c010e5db:	83 7d 08 00          	cmpl   $0x0,0x8(%ebp)
c010e5df:	75 0a                	jne    c010e5eb <kmalloc_align+0x22>
c010e5e1:	b8 00 00 00 00       	mov    $0x0,%eax
c010e5e6:	e9 84 01 00 00       	jmp    c010e76f <kmalloc_align+0x1a6>
c010e5eb:	83 7d 0c 00          	cmpl   $0x0,0xc(%ebp)
c010e5ef:	75 07                	jne    c010e5f8 <kmalloc_align+0x2f>
c010e5f1:	c7 45 0c 01 00 00 00 	movl   $0x1,0xc(%ebp)
c010e5f8:	8b 45 08             	mov    0x8(%ebp),%eax
c010e5fb:	ba 00 00 00 00       	mov    $0x0,%edx
c010e600:	f7 75 0c             	divl   0xc(%ebp)
c010e603:	8b 45 08             	mov    0x8(%ebp),%eax
c010e606:	29 d0                	sub    %edx,%eax
c010e608:	89 45 f0             	mov    %eax,-0x10(%ebp)
c010e60b:	8b 45 08             	mov    0x8(%ebp),%eax
c010e60e:	ba 00 00 00 00       	mov    $0x0,%edx
c010e613:	f7 75 0c             	divl   0xc(%ebp)
c010e616:	89 d0                	mov    %edx,%eax
c010e618:	85 c0                	test   %eax,%eax
c010e61a:	74 06                	je     c010e622 <kmalloc_align+0x59>
c010e61c:	8b 45 0c             	mov    0xc(%ebp),%eax
c010e61f:	01 45 f0             	add    %eax,-0x10(%ebp)
c010e622:	8b 83 18 31 01 00    	mov    0x13118(%ebx),%eax
c010e628:	89 45 ec             	mov    %eax,-0x14(%ebp)
c010e62b:	8b 45 ec             	mov    -0x14(%ebp),%eax
c010e62e:	83 c0 20             	add    $0x20,%eax
c010e631:	89 45 e8             	mov    %eax,-0x18(%ebp)
c010e634:	8b 45 e8             	mov    -0x18(%ebp),%eax
c010e637:	ba 00 00 00 00       	mov    $0x0,%edx
c010e63c:	f7 75 0c             	divl   0xc(%ebp)
c010e63f:	89 d0                	mov    %edx,%eax
c010e641:	85 c0                	test   %eax,%eax
c010e643:	74 13                	je     c010e658 <kmalloc_align+0x8f>
c010e645:	8b 45 e8             	mov    -0x18(%ebp),%eax
c010e648:	ba 00 00 00 00       	mov    $0x0,%edx
c010e64d:	f7 75 0c             	divl   0xc(%ebp)
c010e650:	8b 45 0c             	mov    0xc(%ebp),%eax
c010e653:	29 d0                	sub    %edx,%eax
c010e655:	01 45 e8             	add    %eax,-0x18(%ebp)
c010e658:	8b 45 ec             	mov    -0x14(%ebp),%eax
c010e65b:	0f b6 40 14          	movzbl 0x14(%eax),%eax
c010e65f:	84 c0                	test   %al,%al
c010e661:	0f 84 fa 00 00 00    	je     c010e761 <kmalloc_align+0x198>
c010e667:	8b 45 ec             	mov    -0x14(%ebp),%eax
c010e66a:	8b 50 10             	mov    0x10(%eax),%edx
c010e66d:	8b 45 ec             	mov    -0x14(%ebp),%eax
c010e670:	8b 4d e8             	mov    -0x18(%ebp),%ecx
c010e673:	29 c1                	sub    %eax,%ecx
c010e675:	8b 45 f0             	mov    -0x10(%ebp),%eax
c010e678:	01 c8                	add    %ecx,%eax
c010e67a:	39 c2                	cmp    %eax,%edx
c010e67c:	0f 82 df 00 00 00    	jb     c010e761 <kmalloc_align+0x198>
c010e682:	8b 45 ec             	mov    -0x14(%ebp),%eax
c010e685:	8b 40 04             	mov    0x4(%eax),%eax
c010e688:	85 c0                	test   %eax,%eax
c010e68a:	74 22                	je     c010e6ae <kmalloc_align+0xe5>
c010e68c:	8b 45 ec             	mov    -0x14(%ebp),%eax
c010e68f:	8b 50 10             	mov    0x10(%eax),%edx
c010e692:	8b 45 f0             	mov    -0x10(%ebp),%eax
c010e695:	83 c0 60             	add    $0x60,%eax
c010e698:	39 c2                	cmp    %eax,%edx
c010e69a:	0f 82 a9 00 00 00    	jb     c010e749 <kmalloc_align+0x180>
c010e6a0:	8b 45 ec             	mov    -0x14(%ebp),%eax
c010e6a3:	8b 40 04             	mov    0x4(%eax),%eax
c010e6a6:	85 c0                	test   %eax,%eax
c010e6a8:	0f 84 9b 00 00 00    	je     c010e749 <kmalloc_align+0x180>
c010e6ae:	8b 55 e8             	mov    -0x18(%ebp),%edx
c010e6b1:	8b 45 f0             	mov    -0x10(%ebp),%eax
c010e6b4:	01 d0                	add    %edx,%eax
c010e6b6:	89 45 f4             	mov    %eax,-0xc(%ebp)
c010e6b9:	8b 83 18 31 01 00    	mov    0x13118(%ebx),%eax
c010e6bf:	8b 40 0c             	mov    0xc(%eax),%eax
c010e6c2:	85 c0                	test   %eax,%eax
c010e6c4:	74 0e                	je     c010e6d4 <kmalloc_align+0x10b>
c010e6c6:	8b 83 18 31 01 00    	mov    0x13118(%ebx),%eax
c010e6cc:	8b 40 0c             	mov    0xc(%eax),%eax
c010e6cf:	39 45 ec             	cmp    %eax,-0x14(%ebp)
c010e6d2:	75 0c                	jne    c010e6e0 <kmalloc_align+0x117>
c010e6d4:	8b 83 18 31 01 00    	mov    0x13118(%ebx),%eax
c010e6da:	8b 55 f4             	mov    -0xc(%ebp),%edx
c010e6dd:	89 50 0c             	mov    %edx,0xc(%eax)
c010e6e0:	83 ec 04             	sub    $0x4,%esp
c010e6e3:	6a 20                	push   $0x20
c010e6e5:	6a 00                	push   $0x0
c010e6e7:	ff 75 f4             	push   -0xc(%ebp)
c010e6ea:	e8 b7 d1 ff ff       	call   c010b8a6 <memset>
c010e6ef:	83 c4 10             	add    $0x10,%esp
c010e6f2:	8b 45 f4             	mov    -0xc(%ebp),%eax
c010e6f5:	c7 00 ba ba ad 0b    	movl   $0xbadbaba,(%eax)
c010e6fb:	8b 45 f4             	mov    -0xc(%ebp),%eax
c010e6fe:	c6 40 14 01          	movb   $0x1,0x14(%eax)
c010e702:	8b 83 1c 31 01 00    	mov    0x1311c(%ebx),%eax
c010e708:	2b 45 e8             	sub    -0x18(%ebp),%eax
c010e70b:	2b 45 f0             	sub    -0x10(%ebp),%eax
c010e70e:	89 c2                	mov    %eax,%edx
c010e710:	8b 45 f4             	mov    -0xc(%ebp),%eax
c010e713:	89 50 10             	mov    %edx,0x10(%eax)
c010e716:	8b 45 f4             	mov    -0xc(%ebp),%eax
c010e719:	8b 55 ec             	mov    -0x14(%ebp),%edx
c010e71c:	89 50 08             	mov    %edx,0x8(%eax)
c010e71f:	8b 45 ec             	mov    -0x14(%ebp),%eax
c010e722:	8b 50 04             	mov    0x4(%eax),%edx
c010e725:	8b 45 f4             	mov    -0xc(%ebp),%eax
c010e728:	89 50 04             	mov    %edx,0x4(%eax)
c010e72b:	8b 45 ec             	mov    -0x14(%ebp),%eax
c010e72e:	8b 50 0c             	mov    0xc(%eax),%edx
c010e731:	8b 45 f4             	mov    -0xc(%ebp),%eax
c010e734:	89 50 0c             	mov    %edx,0xc(%eax)
c010e737:	8b 45 ec             	mov    -0x14(%ebp),%eax
c010e73a:	8b 55 f4             	mov    -0xc(%ebp),%edx
c010e73d:	89 50 0c             	mov    %edx,0xc(%eax)
c010e740:	8b 45 ec             	mov    -0x14(%ebp),%eax
c010e743:	8b 55 f4             	mov    -0xc(%ebp),%edx
c010e746:	89 50 04             	mov    %edx,0x4(%eax)
c010e749:	8b 45 ec             	mov    -0x14(%ebp),%eax
c010e74c:	c6 40 14 00          	movb   $0x0,0x14(%eax)
c010e750:	8b 45 f0             	mov    -0x10(%ebp),%eax
c010e753:	8d 50 20             	lea    0x20(%eax),%edx
c010e756:	8b 45 ec             	mov    -0x14(%ebp),%eax
c010e759:	89 50 10             	mov    %edx,0x10(%eax)
c010e75c:	8b 45 e8             	mov    -0x18(%ebp),%eax
c010e75f:	eb 0e                	jmp    c010e76f <kmalloc_align+0x1a6>
c010e761:	8b 45 ec             	mov    -0x14(%ebp),%eax
c010e764:	8b 40 0c             	mov    0xc(%eax),%eax
c010e767:	89 45 ec             	mov    %eax,-0x14(%ebp)
c010e76a:	e9 bc fe ff ff       	jmp    c010e62b <kmalloc_align+0x62>
c010e76f:	8b 5d fc             	mov    -0x4(%ebp),%ebx
c010e772:	c9                   	leave
c010e773:	c3                   	ret

c010e774 <kmalloc>:
c010e774:	55                   	push   %ebp
c010e775:	89 e5                	mov    %esp,%ebp
c010e777:	83 ec 08             	sub    $0x8,%esp
c010e77a:	e8 ba 02 00 00       	call   c010ea39 <__x86.get_pc_thunk.ax>
c010e77f:	05 ad 3e 00 00       	add    $0x3ead,%eax
c010e784:	b8 10 00 00 00       	mov    $0x10,%eax
c010e789:	83 ec 08             	sub    $0x8,%esp
c010e78c:	50                   	push   %eax
c010e78d:	ff 75 08             	push   0x8(%ebp)
c010e790:	e8 34 fe ff ff       	call   c010e5c9 <kmalloc_align>
c010e795:	83 c4 10             	add    $0x10,%esp
c010e798:	c9                   	leave
c010e799:	c3                   	ret

c010e79a <kmalloc_align_phys>:
c010e79a:	55                   	push   %ebp
c010e79b:	89 e5                	mov    %esp,%ebp
c010e79d:	53                   	push   %ebx
c010e79e:	83 ec 14             	sub    $0x14,%esp
c010e7a1:	e8 97 02 00 00       	call   c010ea3d <__x86.get_pc_thunk.bx>
c010e7a6:	81 c3 86 3e 00 00    	add    $0x3e86,%ebx
c010e7ac:	83 ec 08             	sub    $0x8,%esp
c010e7af:	ff 75 0c             	push   0xc(%ebp)
c010e7b2:	ff 75 08             	push   0x8(%ebp)
c010e7b5:	e8 0f fe ff ff       	call   c010e5c9 <kmalloc_align>
c010e7ba:	83 c4 10             	add    $0x10,%esp
c010e7bd:	89 45 f4             	mov    %eax,-0xc(%ebp)
c010e7c0:	83 ec 0c             	sub    $0xc,%esp
c010e7c3:	ff 75 f4             	push   -0xc(%ebp)
c010e7c6:	e8 46 d9 ff ff       	call   c010c111 <to_phys_addr>
c010e7cb:	83 c4 10             	add    $0x10,%esp
c010e7ce:	8b 55 10             	mov    0x10(%ebp),%edx
c010e7d1:	89 02                	mov    %eax,(%edx)
c010e7d3:	8b 45 f4             	mov    -0xc(%ebp),%eax
c010e7d6:	8b 5d fc             	mov    -0x4(%ebp),%ebx
c010e7d9:	c9                   	leave
c010e7da:	c3                   	ret

c010e7db <kmalloc_phys>:
c010e7db:	55                   	push   %ebp
c010e7dc:	89 e5                	mov    %esp,%ebp
c010e7de:	53                   	push   %ebx
c010e7df:	83 ec 14             	sub    $0x14,%esp
c010e7e2:	e8 56 02 00 00       	call   c010ea3d <__x86.get_pc_thunk.bx>
c010e7e7:	81 c3 45 3e 00 00    	add    $0x3e45,%ebx
c010e7ed:	83 ec 0c             	sub    $0xc,%esp
c010e7f0:	ff 75 08             	push   0x8(%ebp)
c010e7f3:	e8 7c ff ff ff       	call   c010e774 <kmalloc>
c010e7f8:	83 c4 10             	add    $0x10,%esp
c010e7fb:	89 45 f4             	mov    %eax,-0xc(%ebp)
c010e7fe:	83 ec 0c             	sub    $0xc,%esp
c010e801:	ff 75 f4             	push   -0xc(%ebp)
c010e804:	e8 08 d9 ff ff       	call   c010c111 <to_phys_addr>
c010e809:	83 c4 10             	add    $0x10,%esp
c010e80c:	8b 55 0c             	mov    0xc(%ebp),%edx
c010e80f:	89 02                	mov    %eax,(%edx)
c010e811:	8b 45 f4             	mov    -0xc(%ebp),%eax
c010e814:	8b 5d fc             	mov    -0x4(%ebp),%ebx
c010e817:	c9                   	leave
c010e818:	c3                   	ret

c010e819 <kzalloc_align>:
c010e819:	55                   	push   %ebp
c010e81a:	89 e5                	mov    %esp,%ebp
c010e81c:	53                   	push   %ebx
c010e81d:	83 ec 14             	sub    $0x14,%esp
c010e820:	e8 18 02 00 00       	call   c010ea3d <__x86.get_pc_thunk.bx>
c010e825:	81 c3 07 3e 00 00    	add    $0x3e07,%ebx
c010e82b:	83 ec 08             	sub    $0x8,%esp
c010e82e:	ff 75 0c             	push   0xc(%ebp)
c010e831:	ff 75 10             	push   0x10(%ebp)
c010e834:	e8 90 fd ff ff       	call   c010e5c9 <kmalloc_align>
c010e839:	83 c4 10             	add    $0x10,%esp
c010e83c:	89 45 f4             	mov    %eax,-0xc(%ebp)
c010e83f:	8b 45 08             	mov    0x8(%ebp),%eax
c010e842:	83 ec 04             	sub    $0x4,%esp
c010e845:	ff 75 10             	push   0x10(%ebp)
c010e848:	50                   	push   %eax
c010e849:	ff 75 f4             	push   -0xc(%ebp)
c010e84c:	e8 55 d0 ff ff       	call   c010b8a6 <memset>
c010e851:	83 c4 10             	add    $0x10,%esp
c010e854:	8b 45 f4             	mov    -0xc(%ebp),%eax
c010e857:	8b 5d fc             	mov    -0x4(%ebp),%ebx
c010e85a:	c9                   	leave
c010e85b:	c3                   	ret

c010e85c <kzalloc>:
c010e85c:	55                   	push   %ebp
c010e85d:	89 e5                	mov    %esp,%ebp
c010e85f:	53                   	push   %ebx
c010e860:	83 ec 14             	sub    $0x14,%esp
c010e863:	e8 d5 01 00 00       	call   c010ea3d <__x86.get_pc_thunk.bx>
c010e868:	81 c3 c4 3d 00 00    	add    $0x3dc4,%ebx
c010e86e:	83 ec 0c             	sub    $0xc,%esp
c010e871:	ff 75 0c             	push   0xc(%ebp)
c010e874:	e8 fb fe ff ff       	call   c010e774 <kmalloc>
c010e879:	83 c4 10             	add    $0x10,%esp
c010e87c:	89 45 f4             	mov    %eax,-0xc(%ebp)
c010e87f:	8b 45 08             	mov    0x8(%ebp),%eax
c010e882:	83 ec 04             	sub    $0x4,%esp
c010e885:	ff 75 0c             	push   0xc(%ebp)
c010e888:	50                   	push   %eax
c010e889:	ff 75 f4             	push   -0xc(%ebp)
c010e88c:	e8 15 d0 ff ff       	call   c010b8a6 <memset>
c010e891:	83 c4 10             	add    $0x10,%esp
c010e894:	8b 45 f4             	mov    -0xc(%ebp),%eax
c010e897:	8b 5d fc             	mov    -0x4(%ebp),%ebx
c010e89a:	c9                   	leave
c010e89b:	c3                   	ret

c010e89c <get_block_header_addr>:
c010e89c:	55                   	push   %ebp
c010e89d:	89 e5                	mov    %esp,%ebp
c010e89f:	e8 95 01 00 00       	call   c010ea39 <__x86.get_pc_thunk.ax>
c010e8a4:	05 88 3d 00 00       	add    $0x3d88,%eax
c010e8a9:	8b 45 08             	mov    0x8(%ebp),%eax
c010e8ac:	83 e8 20             	sub    $0x20,%eax
c010e8af:	5d                   	pop    %ebp
c010e8b0:	c3                   	ret

c010e8b1 <kfree>:
c010e8b1:	55                   	push   %ebp
c010e8b2:	89 e5                	mov    %esp,%ebp
c010e8b4:	53                   	push   %ebx
c010e8b5:	83 ec 10             	sub    $0x10,%esp
c010e8b8:	e8 80 01 00 00       	call   c010ea3d <__x86.get_pc_thunk.bx>
c010e8bd:	81 c3 6f 3d 00 00    	add    $0x3d6f,%ebx
c010e8c3:	83 7d 08 00          	cmpl   $0x0,0x8(%ebp)
c010e8c7:	0f 84 60 01 00 00    	je     c010ea2d <kfree+0x17c>
c010e8cd:	8b 45 08             	mov    0x8(%ebp),%eax
c010e8d0:	8b 93 1c 31 01 00    	mov    0x1311c(%ebx),%edx
c010e8d6:	39 c2                	cmp    %eax,%edx
c010e8d8:	0f 82 52 01 00 00    	jb     c010ea30 <kfree+0x17f>
c010e8de:	8b 55 08             	mov    0x8(%ebp),%edx
c010e8e1:	8b 83 14 31 01 00    	mov    0x13114(%ebx),%eax
c010e8e7:	39 c2                	cmp    %eax,%edx
c010e8e9:	0f 82 41 01 00 00    	jb     c010ea30 <kfree+0x17f>
c010e8ef:	ff 75 08             	push   0x8(%ebp)
c010e8f2:	e8 a5 ff ff ff       	call   c010e89c <get_block_header_addr>
c010e8f7:	83 c4 04             	add    $0x4,%esp
c010e8fa:	89 45 f8             	mov    %eax,-0x8(%ebp)
c010e8fd:	8b 45 f8             	mov    -0x8(%ebp),%eax
c010e900:	89 45 f4             	mov    %eax,-0xc(%ebp)
c010e903:	8b 45 f4             	mov    -0xc(%ebp),%eax
c010e906:	8b 00                	mov    (%eax),%eax
c010e908:	3d ba ba ad 0b       	cmp    $0xbadbaba,%eax
c010e90d:	0f 85 20 01 00 00    	jne    c010ea33 <kfree+0x182>
c010e913:	8b 45 f4             	mov    -0xc(%ebp),%eax
c010e916:	c6 40 14 01          	movb   $0x1,0x14(%eax)
c010e91a:	8b 83 18 31 01 00    	mov    0x13118(%ebx),%eax
c010e920:	8b 40 0c             	mov    0xc(%eax),%eax
c010e923:	89 c2                	mov    %eax,%edx
c010e925:	8b 45 f4             	mov    -0xc(%ebp),%eax
c010e928:	39 d0                	cmp    %edx,%eax
c010e92a:	73 1b                	jae    c010e947 <kfree+0x96>
c010e92c:	8b 83 18 31 01 00    	mov    0x13118(%ebx),%eax
c010e932:	8b 50 0c             	mov    0xc(%eax),%edx
c010e935:	8b 45 f4             	mov    -0xc(%ebp),%eax
c010e938:	89 50 0c             	mov    %edx,0xc(%eax)
c010e93b:	8b 83 18 31 01 00    	mov    0x13118(%ebx),%eax
c010e941:	8b 55 f4             	mov    -0xc(%ebp),%edx
c010e944:	89 50 0c             	mov    %edx,0xc(%eax)
c010e947:	8b 45 f4             	mov    -0xc(%ebp),%eax
c010e94a:	8b 40 04             	mov    0x4(%eax),%eax
c010e94d:	85 c0                	test   %eax,%eax
c010e94f:	74 68                	je     c010e9b9 <kfree+0x108>
c010e951:	8b 45 f4             	mov    -0xc(%ebp),%eax
c010e954:	8b 40 04             	mov    0x4(%eax),%eax
c010e957:	0f b6 40 14          	movzbl 0x14(%eax),%eax
c010e95b:	84 c0                	test   %al,%al
c010e95d:	74 5a                	je     c010e9b9 <kfree+0x108>
c010e95f:	8b 45 f4             	mov    -0xc(%ebp),%eax
c010e962:	8b 50 10             	mov    0x10(%eax),%edx
c010e965:	8b 45 f4             	mov    -0xc(%ebp),%eax
c010e968:	8b 40 04             	mov    0x4(%eax),%eax
c010e96b:	8b 40 10             	mov    0x10(%eax),%eax
c010e96e:	01 c2                	add    %eax,%edx
c010e970:	8b 45 f4             	mov    -0xc(%ebp),%eax
c010e973:	89 50 10             	mov    %edx,0x10(%eax)
c010e976:	8b 45 f4             	mov    -0xc(%ebp),%eax
c010e979:	8b 40 04             	mov    0x4(%eax),%eax
c010e97c:	8b 50 0c             	mov    0xc(%eax),%edx
c010e97f:	8b 45 f4             	mov    -0xc(%ebp),%eax
c010e982:	89 50 0c             	mov    %edx,0xc(%eax)
c010e985:	8b 45 f4             	mov    -0xc(%ebp),%eax
c010e988:	8b 40 04             	mov    0x4(%eax),%eax
c010e98b:	c7 00 00 00 00 00    	movl   $0x0,(%eax)
c010e991:	8b 45 f4             	mov    -0xc(%ebp),%eax
c010e994:	8b 40 04             	mov    0x4(%eax),%eax
c010e997:	8b 40 04             	mov    0x4(%eax),%eax
c010e99a:	85 c0                	test   %eax,%eax
c010e99c:	74 0c                	je     c010e9aa <kfree+0xf9>
c010e99e:	8b 45 f4             	mov    -0xc(%ebp),%eax
c010e9a1:	8b 40 04             	mov    0x4(%eax),%eax
c010e9a4:	8b 55 f4             	mov    -0xc(%ebp),%edx
c010e9a7:	89 50 08             	mov    %edx,0x8(%eax)
c010e9aa:	8b 45 f4             	mov    -0xc(%ebp),%eax
c010e9ad:	8b 40 04             	mov    0x4(%eax),%eax
c010e9b0:	8b 50 04             	mov    0x4(%eax),%edx
c010e9b3:	8b 45 f4             	mov    -0xc(%ebp),%eax
c010e9b6:	89 50 04             	mov    %edx,0x4(%eax)
c010e9b9:	8b 45 f4             	mov    -0xc(%ebp),%eax
c010e9bc:	8b 40 08             	mov    0x8(%eax),%eax
c010e9bf:	85 c0                	test   %eax,%eax
c010e9c1:	74 71                	je     c010ea34 <kfree+0x183>
c010e9c3:	8b 45 f4             	mov    -0xc(%ebp),%eax
c010e9c6:	8b 40 08             	mov    0x8(%eax),%eax
c010e9c9:	0f b6 40 14          	movzbl 0x14(%eax),%eax
c010e9cd:	84 c0                	test   %al,%al
c010e9cf:	74 63                	je     c010ea34 <kfree+0x183>
c010e9d1:	8b 45 f4             	mov    -0xc(%ebp),%eax
c010e9d4:	8b 40 08             	mov    0x8(%eax),%eax
c010e9d7:	8b 55 f4             	mov    -0xc(%ebp),%edx
c010e9da:	8b 52 04             	mov    0x4(%edx),%edx
c010e9dd:	89 50 04             	mov    %edx,0x4(%eax)
c010e9e0:	8b 45 f4             	mov    -0xc(%ebp),%eax
c010e9e3:	8b 40 08             	mov    0x8(%eax),%eax
c010e9e6:	8b 48 10             	mov    0x10(%eax),%ecx
c010e9e9:	8b 45 f4             	mov    -0xc(%ebp),%eax
c010e9ec:	8b 50 10             	mov    0x10(%eax),%edx
c010e9ef:	8b 45 f4             	mov    -0xc(%ebp),%eax
c010e9f2:	8b 40 08             	mov    0x8(%eax),%eax
c010e9f5:	01 ca                	add    %ecx,%edx
c010e9f7:	89 50 10             	mov    %edx,0x10(%eax)
c010e9fa:	8b 45 f4             	mov    -0xc(%ebp),%eax
c010e9fd:	8b 40 08             	mov    0x8(%eax),%eax
c010ea00:	8b 55 f4             	mov    -0xc(%ebp),%edx
c010ea03:	8b 52 0c             	mov    0xc(%edx),%edx
c010ea06:	89 50 0c             	mov    %edx,0xc(%eax)
c010ea09:	8b 45 f4             	mov    -0xc(%ebp),%eax
c010ea0c:	c7 00 00 00 00 00    	movl   $0x0,(%eax)
c010ea12:	8b 45 f4             	mov    -0xc(%ebp),%eax
c010ea15:	8b 40 04             	mov    0x4(%eax),%eax
c010ea18:	85 c0                	test   %eax,%eax
c010ea1a:	74 18                	je     c010ea34 <kfree+0x183>
c010ea1c:	8b 45 f4             	mov    -0xc(%ebp),%eax
c010ea1f:	8b 40 04             	mov    0x4(%eax),%eax
c010ea22:	8b 55 f4             	mov    -0xc(%ebp),%edx
c010ea25:	8b 52 08             	mov    0x8(%edx),%edx
c010ea28:	89 50 08             	mov    %edx,0x8(%eax)
c010ea2b:	eb 07                	jmp    c010ea34 <kfree+0x183>
c010ea2d:	90                   	nop
c010ea2e:	eb 04                	jmp    c010ea34 <kfree+0x183>
c010ea30:	90                   	nop
c010ea31:	eb 01                	jmp    c010ea34 <kfree+0x183>
c010ea33:	90                   	nop
c010ea34:	8b 5d fc             	mov    -0x4(%ebp),%ebx
c010ea37:	c9                   	leave
c010ea38:	c3                   	ret

Disassembly of section .text.__x86.get_pc_thunk.ax:

c010ea39 <__x86.get_pc_thunk.ax>:
c010ea39:	8b 04 24             	mov    (%esp),%eax
c010ea3c:	c3                   	ret

Disassembly of section .text.__x86.get_pc_thunk.bx:

c010ea3d <__x86.get_pc_thunk.bx>:
c010ea3d:	8b 1c 24             	mov    (%esp),%ebx
c010ea40:	c3                   	ret

Disassembly of section .text.__x86.get_pc_thunk.cx:

c010ea41 <__x86.get_pc_thunk.cx>:
c010ea41:	8b 0c 24             	mov    (%esp),%ecx
c010ea44:	c3                   	ret

Disassembly of section .text.__x86.get_pc_thunk.dx:

c010ea45 <__x86.get_pc_thunk.dx>:
c010ea45:	8b 14 24             	mov    (%esp),%edx
c010ea48:	c3                   	ret
